
CH32V203G8R6.elf:     file format elf32-littleriscv
CH32V203G8R6.elf
architecture: riscv:rv32, flags 0x00000112:
EXEC_P, HAS_SYMS, D_PAGED
start address 0x00000000

Program Header:
    LOAD off    0x00001000 vaddr 0x00000000 paddr 0x00000000 align 2**12
         filesz 0x00003d84 memsz 0x00003d84 flags r-x
    LOAD off    0x00005000 vaddr 0x20000000 paddr 0x00003d84 align 2**12
         filesz 0x000000a8 memsz 0x0000031c flags rw-
    LOAD off    0x00005800 vaddr 0x20004800 paddr 0x20004800 align 2**12
         filesz 0x00000000 memsz 0x00000800 flags rw-

Sections:
Idx Name          Size      VMA       LMA       File off  Algn
  0 .init         00000004  00000000  00000000  00001000  2**1
                  CONTENTS, ALLOC, LOAD, READONLY, CODE
  1 .vector       000000fc  00000004  00000004  00001004  2**1
                  CONTENTS, ALLOC, LOAD, READONLY, CODE
  2 .text         00003c84  00000100  00000100  00001100  2**3
                  CONTENTS, ALLOC, LOAD, READONLY, CODE
  3 .fini         00000000  00003d84  00003d84  000050a8  2**0
                  CONTENTS, ALLOC, LOAD, CODE
  4 .dalign       00000000  20000000  20000000  000050a8  2**0
                  CONTENTS
  5 .dlalign      00000000  00003d84  00003d84  000050a8  2**0
                  CONTENTS
  6 .data         000000a8  20000000  00003d84  00005000  2**2
                  CONTENTS, ALLOC, LOAD, DATA
  7 .bss          00000274  200000a8  00003e2c  000050a8  2**2
                  ALLOC
  8 .stack        00000800  20004800  20004800  00005800  2**0
                  ALLOC
  9 .debug_info   000130de  00000000  00000000  000050a8  2**0
                  CONTENTS, READONLY, DEBUGGING
 10 .debug_abbrev 00003055  00000000  00000000  00018186  2**0
                  CONTENTS, READONLY, DEBUGGING
 11 .debug_aranges 000009b8  00000000  00000000  0001b1e0  2**3
                  CONTENTS, READONLY, DEBUGGING
 12 .debug_ranges 00000b78  00000000  00000000  0001bb98  2**3
                  CONTENTS, READONLY, DEBUGGING
 13 .debug_line   0000f8ba  00000000  00000000  0001c710  2**0
                  CONTENTS, READONLY, DEBUGGING
 14 .debug_str    0000390e  00000000  00000000  0002bfca  2**0
                  CONTENTS, READONLY, DEBUGGING
 15 .comment      00000032  00000000  00000000  0002f8d8  2**0
                  CONTENTS, READONLY
 16 .debug_frame  00002128  00000000  00000000  0002f90c  2**2
                  CONTENTS, READONLY, DEBUGGING
 17 .debug_loc    0000562d  00000000  00000000  00031a34  2**0
                  CONTENTS, READONLY, DEBUGGING
 18 .stab         00000084  00000000  00000000  00037064  2**2
                  CONTENTS, READONLY, DEBUGGING
 19 .stabstr      00000117  00000000  00000000  000370e8  2**0
                  CONTENTS, READONLY, DEBUGGING
SYMBOL TABLE:
00000000 l    d  .init	00000000 .init
00000004 l    d  .vector	00000000 .vector
00000100 l    d  .text	00000000 .text
00003d84 l    d  .fini	00000000 .fini
20000000 l    d  .dalign	00000000 .dalign
00003d84 l    d  .dlalign	00000000 .dlalign
20000000 l    d  .data	00000000 .data
200000a8 l    d  .bss	00000000 .bss
20004800 l    d  .stack	00000000 .stack
00000000 l    d  .debug_info	00000000 .debug_info
00000000 l    d  .debug_abbrev	00000000 .debug_abbrev
00000000 l    d  .debug_aranges	00000000 .debug_aranges
00000000 l    d  .debug_ranges	00000000 .debug_ranges
00000000 l    d  .debug_line	00000000 .debug_line
00000000 l    d  .debug_str	00000000 .debug_str
00000000 l    d  .comment	00000000 .comment
00000000 l    d  .debug_frame	00000000 .debug_frame
00000000 l    d  .debug_loc	00000000 .debug_loc
00000000 l    d  .stab	00000000 .stab
00000000 l    d  .stabstr	00000000 .stabstr
00000000 l    df *ABS*	00000000 ./Startup/startup_ch32v20x_D6.o
00000004 l       .vector	00000000 _vector_base
00000000 l    df *ABS*	00000000 ch32v20x_it.c
00000000 l    df *ABS*	00000000 main.c
200000e8 l     O .bss	00000080 uart2_rx_buf
200000a8 l     O .bss	00000002 counter.5077
200000aa l     O .bss	00000001 led_state.5076
200000ac l     O .bss	00000002 uart2_rx_len
20000080 l     O .data	00000001 key1_last.5083
20000081 l     O .data	00000001 key2_last.5084
00000000 l    df *ABS*	00000000 param_store.c
00000634 l     F .text	00000046 PARAM_LoadActiveBlock
0000067a l     F .text	0000004c PARAM_WriteToFlash.part.0
000006c6 l     F .text	00000256 PARAM_LoadDefaultParams.part.1
0000091c l     F .text	00000048 PARAM_LoadDefaultParams
20000098 l     O .data	00000005 CSWTCH.19
20000098 l     O .data	00000005 CSWTCH.20
20000098 l     O .data	00000005 CSWTCH.18
20000168 l     O .bss	00000054 g_blockHeaders
200001bc l     O .bss	00000010 g_blockOffsets
200000b0 l     O .bss	00000004 g_activeBlockAddr
00000000 l    df *ABS*	00000000 param_test.c
00000000 l    df *ABS*	00000000 system_ch32v20x.c
00000000 l    df *ABS*	00000000 uart_protocol.c
20000218 l     O .bss	00000080 rx_buffer
20000298 l     O .bss	00000080 tx_buffer
200000c0 l     O .bss	00000001 frame_cmd_id
200000c1 l     O .bss	00000001 frame_length
200000c2 l     O .bss	00000001 frame_parsing
200000d4 l     O .bss	00000002 rx_index
00000000 l    df *ABS*	00000000 uart_protocol_handlers.c
20000088 l     O .data	00000002 simulate_measure_value
00000000 l    df *ABS*	00000000 ch32v20x_dbgmcu.c
00000000 l    df *ABS*	00000000 ch32v20x_flash.c
00000000 l    df *ABS*	00000000 ch32v20x_gpio.c
00000000 l    df *ABS*	00000000 ch32v20x_misc.c
00000000 l    df *ABS*	00000000 ch32v20x_rcc.c
20000010 l     O .data	00000010 APBAHBPrescTable
2000008c l     O .data	00000004 ADCPrescTable
00000000 l    df *ABS*	00000000 ch32v20x_tim.c
00000000 l    df *ABS*	00000000 ch32v20x_usart.c
00000000 l    df *ABS*	00000000 debug.c
200000dc l     O .bss	00000002 p_ms
200000de l     O .bss	00000001 p_us
20000090 l     O .data	00000004 curbrk.4652
00000000 l    df *ABS*	00000000 memcpy.c
00000000 l    df *ABS*	00000000 printf.c
00000000 l    df *ABS*	00000000 puts.c
00000000 l    df *ABS*	00000000 wbuf.c
00000000 l    df *ABS*	00000000 wsetup.c
00000000 l    df *ABS*	00000000 fflush.c
00000000 l    df *ABS*	00000000 findfp.c
000026ea l     F .text	00000066 std
00000000 l    df *ABS*	00000000 fwalk.c
00000000 l    df *ABS*	00000000 makebuf.c
00000000 l    df *ABS*	00000000 nano-mallocr.c
00000000 l    df *ABS*	00000000 nano-mallocr.c
00000000 l    df *ABS*	00000000 nano-vfprintf.c
00002b78 l     F .text	00000028 __sfputc_r
00000000 l    df *ABS*	00000000 nano-vfprintf_i.c
00000000 l    df *ABS*	00000000 sbrkr.c
00000000 l    df *ABS*	00000000 stdio.c
00000000 l    df *ABS*	00000000 writer.c
00000000 l    df *ABS*	00000000 closer.c
00000000 l    df *ABS*	00000000 fstatr.c
00000000 l    df *ABS*	00000000 isattyr.c
00000000 l    df *ABS*	00000000 lseekr.c
00000000 l    df *ABS*	00000000 memchr.c
00000000 l    df *ABS*	00000000 mlock.c
00000000 l    df *ABS*	00000000 readr.c
00000000 l    df *ABS*	00000000 close.c
00000000 l    df *ABS*	00000000 fstat.c
00000000 l    df *ABS*	00000000 isatty.c
00000000 l    df *ABS*	00000000 lseek.c
00000000 l    df *ABS*	00000000 read.c
00000000 l    df *ABS*	00000000 impure.c
20000020 l     O .data	00000060 impure_data
00000000 l    df *ABS*	00000000 reent.c
00001ab6  w      .text	00000000 EXTI2_IRQHandler
0000336a g     F .text	00000028 _isatty_r
00001b48 g     F .text	0000001a FLASH_Unlock
000022be g     F .text	000000d4 _puts_r
00003392 g     F .text	0000002c _lseek_r
00001d20 g     F .text	0000001a GPIO_ReadOutputDataBit
00000a56 g     F .text	00000162 PARAM_UpdateBlock
00000a00 g     F .text	00000056 PARAM_ReadBlock
0000227e g     F .text	00000040 printf
20000880 g       .data	00000000 __global_pointer$
00000108 g     F .text	00000028 .hidden __riscv_save_8
00001ab6  w      .text	00000000 TIM1_CC_IRQHandler
000032b4 g     F .text	00000030 __sseek
000027a0 g     F .text	0000006c __sinit
0000239c g     F .text	000000bc __swbuf_r
0000020a g     F .text	00000010 HardFault_Handler
0000275a g     F .text	00000046 __sfmoreglue
000033d8 g     F .text	00000002 __malloc_unlock
00000154 g     F .text	0000000c .hidden __riscv_restore_3
000018f4 g     F .text	000000a4 UART_Protocol_SendResult
00001ab6  w      .text	00000000 SysTick_Handler
00001d68 g     F .text	00000054 NVIC_Init
00001ab6  w      .text	00000000 PVD_IRQHandler
00001780 g     F .text	00000066 UART_Protocol_HandleSyncTime
00001560 g     F .text	0000001c UART_Protocol_CalcChecksum
00000140 g     F .text	00000020 .hidden __riscv_restore_10
00000208 g     F .text	00000002 NMI_Handler
200001e4 g     O .bss	00000032 raw_data
00001ab6  w      .text	00000000 EXTI3_IRQHandler
0000031e g     F .text	000000ae UART2_Config
00000108 g     F .text	00000028 .hidden __riscv_save_11
00001b3e g     F .text	0000000a DBGMCU_GetCHIPID
000015c6 g     F .text	00000044 UART_Protocol_SendFrame
00000cc8 g     F .text	00000006 PARAM_GetActiveBlockAddr
00001be0 g     F .text	00000034 FLASH_ProgramHalfWord
00001a30 g     F .text	00000044 UART_Protocol_SendRawData
0000205a g     F .text	0000000a USART_GetFlagStatus
00003340 g     F .text	0000002a _fstat_r
20000318 g     O .bss	00000004 errno
00000d66 g     F .text	0000007c PARAM_GetTimingParametersByStripType
200000a8 g       .bss	00000000 _sbss
00000800 g       *ABS*	00000000 __stack_size
00002114 g     F .text	00000058 USART_Printf_Init
00001ba8 g     F .text	00000038 FLASH_ErasePage
00001ab6  w      .text	00000000 USBFS_IRQHandler
00000154 g     F .text	0000000c .hidden __riscv_restore_2
000021cc g     F .text	000000b2 memcpy
00002750 g     F .text	0000000a _cleanup_r
00001ab6  w      .text	00000000 EXTI0_IRQHandler
00001ab6  w      .text	00000000 I2C2_EV_IRQHandler
00001f20 g     F .text	00000018 TIM_Cmd
00002392 g     F .text	0000000a puts
20000084 g     O .data	00000004 SystemCoreClock
00000d1e g     F .text	00000048 PARAM_GetMeasurementRangeByStripType
00002052 g     F .text	00000008 USART_ReceiveData
00003412 g     F .text	0000000c _fstat
00000004 g       .init	00000000 _einit
00001f62 g     F .text	0000000c TIM_ClearITPendingBit
00001e7a g     F .text	0000001e RCC_APB2PeriphClockCmd
00000100 g     F .text	00000030 .hidden __riscv_save_12
00001ab6  w      .text	00000000 ADC1_2_IRQHandler
00001c14 g     F .text	000000f2 GPIO_Init
00001ab6  w      .text	00000000 Break_Point_Handler
0000151a g     F .text	00000046 UART_Protocol_Init
00000140 g     F .text	00000020 .hidden __riscv_restore_11
200000d8 g     O .bss	00000004 NVIC_Priority_Group
00001ab6  w      .text	00000000 SPI1_IRQHandler
00001ffe g     F .text	00000016 USART_Cmd
00003216 g     F .text	0000002a _sbrk_r
00001ab6  w      .text	00000000 TAMPER_IRQHandler
00000130 g     F .text	0000000c .hidden __riscv_save_1
00000154 g     F .text	0000000c .hidden __riscv_restore_0
000033da g     F .text	0000002c _read_r
00000116 g     F .text	0000001a .hidden __riscv_save_7
000020a0 g     F .text	00000014 USART_ClearITPendingBit
000004fe g     F .text	000000a0 Key_Process
00001e98 g     F .text	0000001e RCC_APB1PeriphClockCmd
00001ab6  w      .text	00000000 Ecall_M_Mode_Handler
20004800 g       .stack	00000000 _heap_end
0000042c g     F .text	0000001a Process_UART_Data
0000341e g     F .text	0000000c _isatty
200000a0 g     O .data	00000004 _global_impure_ptr
0000014a g     F .text	00000016 .hidden __riscv_restore_5
00001ab6  w      .text	00000000 DMA1_Channel4_IRQHandler
000021a6 g     F .text	00000026 _sbrk
00001854 g     F .text	0000004c UART_Protocol_HandleSetCodeEvent
00001b62 g     F .text	0000000e FLASH_Lock
200000b8 g     O .bss	00000008 device_status
0000014a g     F .text	00000016 .hidden __riscv_restore_6
00001ab6  w      .text	00000000 USART3_IRQHandler
00001ab6  w      .text	00000000 RTC_IRQHandler
2000031c g       .bss	00000000 _ebss
00002064 g     F .text	0000003c USART_GetITStatus
00001ab6  w      .text	00000000 DMA1_Channel7_IRQHandler
00001ab6  w      .text	00000000 CAN1_RX1_IRQHandler
00000c3c g     F .text	00000064 PARAM_GetDateTime
000020b4 g     F .text	0000002a Delay_Init
00000964 g     F .text	0000009c PARAM_Init
00001d3a g     F .text	00000014 GPIO_SetBits
00001ab6  w      .text	00000000 TIM4_IRQHandler
00000108 g     F .text	00000028 .hidden __riscv_save_9
00003ce8 g     O .text	00000020 __sf_fake_stderr
00000116 g     F .text	0000001a .hidden __riscv_save_4
00001ab6  w      .text	00000000 I2C1_EV_IRQHandler
000018bc g     F .text	00000038 UART_Protocol_HandleBloodSampleCheck
00001f4a g     F .text	00000018 TIM_GetITStatus
00001dbc g     F .text	000000be RCC_GetClocksFreq
00001ab6  w      .text	00000000 DMA1_Channel6_IRQHandler
00002ba0 g     F .text	00000040 __sfputs_r
00001ab6  w      .text	00000000 UART4_IRQHandler
000033be g     F .text	00000018 memchr
00001f6e g     F .text	00000090 USART_Init
000029fc g     F .text	000000a8 _free_r
00001ab6  w      .text	00000000 TIM3_IRQHandler
00001ab6  w      .text	00000000 RCC_IRQHandler
00000130 g     F .text	0000000c .hidden __riscv_save_3
00001ab6  w      .text	00000000 TIM1_TRG_COM_IRQHandler
00001ab6  w      .text	00000000 DMA1_Channel1_IRQHandler
00000000 g       .init	00000000 _start
20000000 g     O .data	00000010 AHBPrescTable
0000342a g     F .text	0000000c _lseek
00001b88 g     F .text	00000020 FLASH_WaitForLastOperation
00001ab6  w      .text	00000000 EXTI15_10_IRQHandler
00001f38 g     F .text	00000012 TIM_ITConfig
00001998 g     F .text	00000098 UART_Protocol_HandleRequestResult
200000cc g     O .bss	00000008 rtc_time
00002014 g     F .text	00000036 USART_ITConfig
00001ab6  w      .text	00000000 DMA1_Channel8_IRQHandler
00001692 g     F .text	000000ee UART_Protocol_Parse
00001d4e g     F .text	00000014 GPIO_ResetBits
200000b5 g     O .bss	00000001 blood_sampling_active
00003318 g     F .text	00000028 _close_r
20000000 g       .dalign	00000000 _data_vma
00000cce g     F .text	00000050 PARAM_GetStripParametersByStripType
00000ca0 g     F .text	00000028 PARAM_IncreaseTestCount
200000d6 g     O .bss	00000001 MCU_Version
00002458 g     F .text	000000fc __swsetup_r
00001ab6  w      .text	00000000 EXTI9_5_IRQHandler
0000280c g     F .text	0000009e __sfp
00000108 g     F .text	00000028 .hidden __riscv_save_10
00003240 g     F .text	0000002c __sread
000033d6 g     F .text	00000002 __malloc_lock
0000014a g     F .text	00000016 .hidden __riscv_restore_4
00000140 g     F .text	00000020 .hidden __riscv_restore_8
00002684 g     F .text	00000066 _fflush_r
00000116 g     F .text	0000001a .hidden __riscv_save_6
00001ab6  w      .text	00000000 SPI2_IRQHandler
00003d08 g     O .text	00000020 __sf_fake_stdin
200000c4 g     O .bss	00000004 measure_param
00000160 g     F .text	000000a8 memset
00000140 g     F .text	00000020 .hidden __riscv_restore_9
0000014a g     F .text	00000016 .hidden __riscv_restore_7
0000059e g     F .text	00000096 main
200000b4 g     O .bss	00000001 blood_countdown_seconds
000032e4 g     F .text	00000006 __sclose
00002aa4 g     F .text	000000d4 _malloc_r
00001ab6  w      .text	00000000 DMA1_Channel5_IRQHandler
00001ab6  w      .text	00000000 EXTI4_IRQHandler
000020de g     F .text	00000036 Delay_Ms
00001ab6  w      .text	00000000 USB_LP_CAN1_RX0_IRQHandler
000013e4 g     F .text	000000a8 SystemInit
0000227e g     F .text	00000040 iprintf
00000de2 g     F .text	00000602 PARAM_TestAll
00001ab6  w      .text	00000000 USB_HP_CAN1_TX_IRQHandler
00000000 g       .init	00000000 _sinit
200001cc g     O .bss	00000016 measure_result
000032ea g     F .text	0000002e _write_r
00001ab6  w      .text	00000000 DMA1_Channel3_IRQHandler
00002e68 g     F .text	0000010c _printf_common
20000094 g     O .data	00000004 _impure_ptr
00001ab6  w      .text	00000000 TIM1_UP_IRQHandler
00002554 g     F .text	00000130 __sflush_r
00001ab6  w      .text	00000000 WWDG_IRQHandler
00001ab6  w      .text	00000000 Ecall_U_Mode_Handler
00000492 g     F .text	0000006c TIM2_IRQHandler
20005000 g       .stack	00000000 _eusrstack
00000130 g     F .text	0000000c .hidden __riscv_save_2
00001ab6  w      .text	00000000 SW_Handler
0000160a g     F .text	0000002e UART_Protocol_SendErrorResponse
00001638 g     F .text	0000005a UART_Protocol_ProcessCommand
00001ab6  w      .text	00000000 TIM1_BRK_IRQHandler
00002914 g     F .text	00000058 __swhatbuf_r
0000204a g     F .text	00000008 USART_SendData
00001ab6  w      .text	00000000 EXTI1_IRQHandler
00000116 g     F .text	0000001a .hidden __riscv_save_5
0000216c g     F .text	0000003a _write
200000a8 g       .data	00000000 _edata
2000031c g       .bss	00000000 _end
00001eb6 g     F .text	0000006a TIM_TimeBaseInit
00001ab6  w      .text	00000000 RTCAlarm_IRQHandler
0000157c g     F .text	0000004a UART_Protocol_PackFrame
00003d84 g       .dlalign	00000000 _data_lma
00000bb8 g     F .text	00000084 PARAM_UpdateDateTime
00000446 g     F .text	0000004c USART2_IRQHandler
0000326c g     F .text	00000048 __swrite
00002be0 g     F .text	00000288 _vfiprintf_r
000028aa g     F .text	0000006a _fwalk_reent
0000148c g     F .text	0000008e SystemCoreClockUpdate
00001ab6  w      .text	00000000 I2C2_ER_IRQHandler
00001ab6  w      .text	00000000 DMA1_Channel2_IRQHandler
0000021a g     F .text	00000104 GPIO_Config
00003d28 g     O .text	00000020 __sf_fake_stdout
0000013c g     F .text	00000024 .hidden __riscv_restore_12
00001a74 g     F .text	00000042 UART_Protocol_HandleRequestRawData
000003cc g     F .text	00000060 Timer2_Config
00003436 g     F .text	0000000c _read
00001ab8  w      .text	00000000 handle_reset
00001ab6  w      .text	00000000 CAN1_SCE_IRQHandler
00001ab6  w      .text	00000000 FLASH_IRQHandler
00000130 g     F .text	0000000c .hidden __riscv_save_0
00001ab6  w      .text	00000000 USBFSWakeUp_IRQHandler
00001ab6  w      .text	00000000 USART1_IRQHandler
0000296c g     F .text	00000090 __smakebuf_r
00002f74 g     F .text	000002a2 _printf_i
200000e4 g     O .bss	00000004 __malloc_sbrk_start
00001ab6  w      .text	00000000 I2C1_ER_IRQHandler
00001d62 g     F .text	00000006 NVIC_PriorityGroupConfig
200000e0 g     O .bss	00000004 __malloc_free_list
000018a0 g     F .text	0000001c UART_Protocol_SendBloodSampleNotify
00000154 g     F .text	0000000c .hidden __riscv_restore_1
000017e6 g     F .text	0000006e UART_Protocol_HandleRequestStatus
00002be0 g     F .text	00000288 _vfprintf_r
00001d06 g     F .text	0000001a GPIO_ReadInputDataBit
00001b70 g     F .text	00000018 FLASH_GetBank1Status
00001ab6  w      .text	00000000 USBWakeUp_IRQHandler
00003406 g     F .text	0000000c _close
200000c8 g     O .bss	00000002 raw_data_length



Disassembly of section .init:

00000000 <_sinit>:
   0:	2b90106f          	j	1ab8 <handle_reset>

Disassembly of section .vector:

00000004 <_vector_base>:
	...
   c:	0208                	addi	a0,sp,256
   e:	0000                	unimp
  10:	020a                	slli	tp,tp,0x2
  12:	0000                	unimp
  14:	0000                	unimp
  16:	0000                	unimp
  18:	1ab6                	slli	s5,s5,0x2d
	...
  22:	0000                	unimp
  24:	1ab6                	slli	s5,s5,0x2d
  26:	0000                	unimp
  28:	1ab6                	slli	s5,s5,0x2d
	...
  32:	0000                	unimp
  34:	1ab6                	slli	s5,s5,0x2d
  36:	0000                	unimp
  38:	0000                	unimp
  3a:	0000                	unimp
  3c:	1ab6                	slli	s5,s5,0x2d
  3e:	0000                	unimp
  40:	0000                	unimp
  42:	0000                	unimp
  44:	1ab6                	slli	s5,s5,0x2d
  46:	0000                	unimp
  48:	1ab6                	slli	s5,s5,0x2d
  4a:	0000                	unimp
  4c:	1ab6                	slli	s5,s5,0x2d
  4e:	0000                	unimp
  50:	1ab6                	slli	s5,s5,0x2d
  52:	0000                	unimp
  54:	1ab6                	slli	s5,s5,0x2d
  56:	0000                	unimp
  58:	1ab6                	slli	s5,s5,0x2d
  5a:	0000                	unimp
  5c:	1ab6                	slli	s5,s5,0x2d
  5e:	0000                	unimp
  60:	1ab6                	slli	s5,s5,0x2d
  62:	0000                	unimp
  64:	1ab6                	slli	s5,s5,0x2d
  66:	0000                	unimp
  68:	1ab6                	slli	s5,s5,0x2d
  6a:	0000                	unimp
  6c:	1ab6                	slli	s5,s5,0x2d
  6e:	0000                	unimp
  70:	1ab6                	slli	s5,s5,0x2d
  72:	0000                	unimp
  74:	1ab6                	slli	s5,s5,0x2d
  76:	0000                	unimp
  78:	1ab6                	slli	s5,s5,0x2d
  7a:	0000                	unimp
  7c:	1ab6                	slli	s5,s5,0x2d
  7e:	0000                	unimp
  80:	1ab6                	slli	s5,s5,0x2d
  82:	0000                	unimp
  84:	1ab6                	slli	s5,s5,0x2d
  86:	0000                	unimp
  88:	1ab6                	slli	s5,s5,0x2d
  8a:	0000                	unimp
  8c:	1ab6                	slli	s5,s5,0x2d
  8e:	0000                	unimp
  90:	1ab6                	slli	s5,s5,0x2d
  92:	0000                	unimp
  94:	1ab6                	slli	s5,s5,0x2d
  96:	0000                	unimp
  98:	1ab6                	slli	s5,s5,0x2d
  9a:	0000                	unimp
  9c:	1ab6                	slli	s5,s5,0x2d
  9e:	0000                	unimp
  a0:	1ab6                	slli	s5,s5,0x2d
  a2:	0000                	unimp
  a4:	1ab6                	slli	s5,s5,0x2d
  a6:	0000                	unimp
  a8:	1ab6                	slli	s5,s5,0x2d
  aa:	0000                	unimp
  ac:	1ab6                	slli	s5,s5,0x2d
  ae:	0000                	unimp
  b0:	1ab6                	slli	s5,s5,0x2d
  b2:	0000                	unimp
  b4:	0492                	slli	s1,s1,0x4
  b6:	0000                	unimp
  b8:	1ab6                	slli	s5,s5,0x2d
  ba:	0000                	unimp
  bc:	1ab6                	slli	s5,s5,0x2d
  be:	0000                	unimp
  c0:	1ab6                	slli	s5,s5,0x2d
  c2:	0000                	unimp
  c4:	1ab6                	slli	s5,s5,0x2d
  c6:	0000                	unimp
  c8:	1ab6                	slli	s5,s5,0x2d
  ca:	0000                	unimp
  cc:	1ab6                	slli	s5,s5,0x2d
  ce:	0000                	unimp
  d0:	1ab6                	slli	s5,s5,0x2d
  d2:	0000                	unimp
  d4:	1ab6                	slli	s5,s5,0x2d
  d6:	0000                	unimp
  d8:	1ab6                	slli	s5,s5,0x2d
  da:	0000                	unimp
  dc:	0446                	slli	s0,s0,0x11
  de:	0000                	unimp
  e0:	1ab6                	slli	s5,s5,0x2d
  e2:	0000                	unimp
  e4:	1ab6                	slli	s5,s5,0x2d
  e6:	0000                	unimp
  e8:	1ab6                	slli	s5,s5,0x2d
  ea:	0000                	unimp
  ec:	1ab6                	slli	s5,s5,0x2d
  ee:	0000                	unimp
  f0:	1ab6                	slli	s5,s5,0x2d
  f2:	0000                	unimp
  f4:	1ab6                	slli	s5,s5,0x2d
  f6:	0000                	unimp
  f8:	1ab6                	slli	s5,s5,0x2d
  fa:	0000                	unimp
  fc:	1ab6                	slli	s5,s5,0x2d
	...

Disassembly of section .text:

00000100 <__riscv_save_12>:
     100:	7139                	addi	sp,sp,-64
     102:	4301                	li	t1,0
     104:	c66e                	sw	s11,12(sp)
     106:	a019                	j	10c <__riscv_save_10+0x4>

00000108 <__riscv_save_10>:
     108:	7139                	addi	sp,sp,-64
     10a:	5341                	li	t1,-16
     10c:	c86a                	sw	s10,16(sp)
     10e:	ca66                	sw	s9,20(sp)
     110:	cc62                	sw	s8,24(sp)
     112:	ce5e                	sw	s7,28(sp)
     114:	a019                	j	11a <__riscv_save_4+0x4>

00000116 <__riscv_save_4>:
     116:	7139                	addi	sp,sp,-64
     118:	5301                	li	t1,-32
     11a:	d05a                	sw	s6,32(sp)
     11c:	d256                	sw	s5,36(sp)
     11e:	d452                	sw	s4,40(sp)
     120:	d64e                	sw	s3,44(sp)
     122:	d84a                	sw	s2,48(sp)
     124:	da26                	sw	s1,52(sp)
     126:	dc22                	sw	s0,56(sp)
     128:	de06                	sw	ra,60(sp)
     12a:	40610133          	sub	sp,sp,t1
     12e:	8282                	jr	t0

00000130 <__riscv_save_0>:
     130:	1141                	addi	sp,sp,-16
     132:	c04a                	sw	s2,0(sp)
     134:	c226                	sw	s1,4(sp)
     136:	c422                	sw	s0,8(sp)
     138:	c606                	sw	ra,12(sp)
     13a:	8282                	jr	t0

0000013c <__riscv_restore_12>:
     13c:	4db2                	lw	s11,12(sp)
     13e:	0141                	addi	sp,sp,16

00000140 <__riscv_restore_10>:
     140:	4d02                	lw	s10,0(sp)
     142:	4c92                	lw	s9,4(sp)
     144:	4c22                	lw	s8,8(sp)
     146:	4bb2                	lw	s7,12(sp)
     148:	0141                	addi	sp,sp,16

0000014a <__riscv_restore_4>:
     14a:	4b02                	lw	s6,0(sp)
     14c:	4a92                	lw	s5,4(sp)
     14e:	4a22                	lw	s4,8(sp)
     150:	49b2                	lw	s3,12(sp)
     152:	0141                	addi	sp,sp,16

00000154 <__riscv_restore_0>:
     154:	4902                	lw	s2,0(sp)
     156:	4492                	lw	s1,4(sp)
     158:	4422                	lw	s0,8(sp)
     15a:	40b2                	lw	ra,12(sp)
     15c:	0141                	addi	sp,sp,16
     15e:	8082                	ret

00000160 <memset>:
     160:	433d                	li	t1,15
     162:	872a                	mv	a4,a0
     164:	02c37363          	bgeu	t1,a2,18a <memset+0x2a>
     168:	00f77793          	andi	a5,a4,15
     16c:	efbd                	bnez	a5,1ea <memset+0x8a>
     16e:	e5ad                	bnez	a1,1d8 <memset+0x78>
     170:	ff067693          	andi	a3,a2,-16
     174:	8a3d                	andi	a2,a2,15
     176:	96ba                	add	a3,a3,a4
     178:	c30c                	sw	a1,0(a4)
     17a:	c34c                	sw	a1,4(a4)
     17c:	c70c                	sw	a1,8(a4)
     17e:	c74c                	sw	a1,12(a4)
     180:	0741                	addi	a4,a4,16
     182:	fed76be3          	bltu	a4,a3,178 <memset+0x18>
     186:	e211                	bnez	a2,18a <memset+0x2a>
     188:	8082                	ret
     18a:	40c306b3          	sub	a3,t1,a2
     18e:	068a                	slli	a3,a3,0x2
     190:	00000297          	auipc	t0,0x0
     194:	9696                	add	a3,a3,t0
     196:	00a68067          	jr	10(a3)
     19a:	00b70723          	sb	a1,14(a4)
     19e:	00b706a3          	sb	a1,13(a4)
     1a2:	00b70623          	sb	a1,12(a4)
     1a6:	00b705a3          	sb	a1,11(a4)
     1aa:	00b70523          	sb	a1,10(a4)
     1ae:	00b704a3          	sb	a1,9(a4)
     1b2:	00b70423          	sb	a1,8(a4)
     1b6:	00b703a3          	sb	a1,7(a4)
     1ba:	00b70323          	sb	a1,6(a4)
     1be:	00b702a3          	sb	a1,5(a4)
     1c2:	00b70223          	sb	a1,4(a4)
     1c6:	00b701a3          	sb	a1,3(a4)
     1ca:	00b70123          	sb	a1,2(a4)
     1ce:	00b700a3          	sb	a1,1(a4)
     1d2:	00b70023          	sb	a1,0(a4)
     1d6:	8082                	ret
     1d8:	0ff5f593          	andi	a1,a1,255
     1dc:	00859693          	slli	a3,a1,0x8
     1e0:	8dd5                	or	a1,a1,a3
     1e2:	01059693          	slli	a3,a1,0x10
     1e6:	8dd5                	or	a1,a1,a3
     1e8:	b761                	j	170 <memset+0x10>
     1ea:	00279693          	slli	a3,a5,0x2
     1ee:	00000297          	auipc	t0,0x0
     1f2:	9696                	add	a3,a3,t0
     1f4:	8286                	mv	t0,ra
     1f6:	fa8680e7          	jalr	-88(a3)
     1fa:	8096                	mv	ra,t0
     1fc:	17c1                	addi	a5,a5,-16
     1fe:	8f1d                	sub	a4,a4,a5
     200:	963e                	add	a2,a2,a5
     202:	f8c374e3          	bgeu	t1,a2,18a <memset+0x2a>
     206:	b7a5                	j	16e <memset+0xe>

00000208 <NMI_Handler>:
     208:	a001                	j	208 <NMI_Handler>

0000020a <HardFault_Handler>:
     20a:	beef07b7          	lui	a5,0xbeef0
     20e:	e000e737          	lui	a4,0xe000e
     212:	08078793          	addi	a5,a5,128 # beef0080 <_eusrstack+0x9eeeb080>
     216:	c73c                	sw	a5,72(a4)
     218:	a001                	j	218 <HardFault_Handler+0xe>

0000021a <GPIO_Config>:
     21a:	efdff2ef          	jal	t0,116 <__riscv_save_4>
     21e:	1141                	addi	sp,sp,-16
     220:	4585                	li	a1,1
     222:	4531                	li	a0,12
     224:	c202                	sw	zero,4(sp)
     226:	c402                	sw	zero,8(sp)
     228:	c602                	sw	zero,12(sp)
     22a:	451010ef          	jal	ra,1e7a <RCC_APB2PeriphClockCmd>
     22e:	40011437          	lui	s0,0x40011
     232:	0c000793          	li	a5,192
     236:	4941                	li	s2,16
     238:	827c                	sh	a5,4(sp)
     23a:	004c                	addi	a1,sp,4
     23c:	478d                	li	a5,3
     23e:	c0040513          	addi	a0,s0,-1024 # 40010c00 <_eusrstack+0x2000bc00>
     242:	c64a                	sw	s2,12(sp)
     244:	c43e                	sw	a5,8(sp)
     246:	1cf010ef          	jal	ra,1c14 <GPIO_Init>
     24a:	6785                	lui	a5,0x1
     24c:	c0078793          	addi	a5,a5,-1024 # c00 <PARAM_UpdateDateTime+0x48>
     250:	827c                	sh	a5,4(sp)
     252:	004c                	addi	a1,sp,4
     254:	04800793          	li	a5,72
     258:	c0040513          	addi	a0,s0,-1024
     25c:	c63e                	sw	a5,12(sp)
     25e:	1b7010ef          	jal	ra,1c14 <GPIO_Init>
     262:	10000793          	li	a5,256
     266:	004c                	addi	a1,sp,4
     268:	80040513          	addi	a0,s0,-2048
     26c:	827c                	sh	a5,4(sp)
     26e:	c64a                	sw	s2,12(sp)
     270:	1a5010ef          	jal	ra,1c14 <GPIO_Init>
     274:	77e1                	lui	a5,0xffff8
     276:	004c                	addi	a1,sp,4
     278:	c0040513          	addi	a0,s0,-1024
     27c:	827c                	sh	a5,4(sp)
     27e:	c64a                	sw	s2,12(sp)
     280:	195010ef          	jal	ra,1c14 <GPIO_Init>
     284:	4491                	li	s1,4
     286:	4989                	li	s3,2
     288:	004c                	addi	a1,sp,4
     28a:	80040513          	addi	a0,s0,-2048
     28e:	01311223          	sh	s3,4(sp)
     292:	c626                	sw	s1,12(sp)
     294:	181010ef          	jal	ra,1c14 <GPIO_Init>
     298:	04000793          	li	a5,64
     29c:	004c                	addi	a1,sp,4
     29e:	80040513          	addi	a0,s0,-2048
     2a2:	827c                	sh	a5,4(sp)
     2a4:	c626                	sw	s1,12(sp)
     2a6:	16f010ef          	jal	ra,1c14 <GPIO_Init>
     2aa:	4785                	li	a5,1
     2ac:	004c                	addi	a1,sp,4
     2ae:	c0040513          	addi	a0,s0,-1024
     2b2:	827c                	sh	a5,4(sp)
     2b4:	c626                	sw	s1,12(sp)
     2b6:	15f010ef          	jal	ra,1c14 <GPIO_Init>
     2ba:	004c                	addi	a1,sp,4
     2bc:	80040513          	addi	a0,s0,-2048
     2c0:	01211223          	sh	s2,4(sp)
     2c4:	c626                	sw	s1,12(sp)
     2c6:	14f010ef          	jal	ra,1c14 <GPIO_Init>
     2ca:	08000793          	li	a5,128
     2ce:	004c                	addi	a1,sp,4
     2d0:	80040513          	addi	a0,s0,-2048
     2d4:	827c                	sh	a5,4(sp)
     2d6:	c626                	sw	s1,12(sp)
     2d8:	13d010ef          	jal	ra,1c14 <GPIO_Init>
     2dc:	004c                	addi	a1,sp,4
     2de:	c0040513          	addi	a0,s0,-1024
     2e2:	01311223          	sh	s3,4(sp)
     2e6:	c626                	sw	s1,12(sp)
     2e8:	12d010ef          	jal	ra,1c14 <GPIO_Init>
     2ec:	80040513          	addi	a0,s0,-2048
     2f0:	10000593          	li	a1,256
     2f4:	247010ef          	jal	ra,1d3a <GPIO_SetBits>
     2f8:	c0040513          	addi	a0,s0,-1024
     2fc:	65a1                	lui	a1,0x8
     2fe:	23d010ef          	jal	ra,1d3a <GPIO_SetBits>
     302:	c0040513          	addi	a0,s0,-1024
     306:	04000593          	li	a1,64
     30a:	245010ef          	jal	ra,1d4e <GPIO_ResetBits>
     30e:	08000593          	li	a1,128
     312:	c0040513          	addi	a0,s0,-1024
     316:	239010ef          	jal	ra,1d4e <GPIO_ResetBits>
     31a:	0141                	addi	sp,sp,16
     31c:	b53d                	j	14a <__riscv_restore_4>

0000031e <UART2_Config>:
     31e:	e13ff2ef          	jal	t0,130 <__riscv_save_0>
     322:	7179                	addi	sp,sp,-48
     324:	4585                	li	a1,1
     326:	4511                	li	a0,4
     328:	ca02                	sw	zero,20(sp)
     32a:	cc02                	sw	zero,24(sp)
     32c:	ce02                	sw	zero,28(sp)
     32e:	d002                	sw	zero,32(sp)
     330:	d202                	sw	zero,36(sp)
     332:	d402                	sw	zero,40(sp)
     334:	d602                	sw	zero,44(sp)
     336:	c602                	sw	zero,12(sp)
     338:	c802                	sw	zero,16(sp)
     33a:	341010ef          	jal	ra,1e7a <RCC_APB2PeriphClockCmd>
     33e:	4585                	li	a1,1
     340:	00020537          	lui	a0,0x20
     344:	355010ef          	jal	ra,1e98 <RCC_APB1PeriphClockCmd>
     348:	4791                	li	a5,4
     34a:	82fc                	sh	a5,20(sp)
     34c:	40011437          	lui	s0,0x40011
     350:	47e1                	li	a5,24
     352:	ce3e                	sw	a5,28(sp)
     354:	084c                	addi	a1,sp,20
     356:	478d                	li	a5,3
     358:	80040513          	addi	a0,s0,-2048 # 40010800 <_eusrstack+0x2000b800>
     35c:	cc3e                	sw	a5,24(sp)
     35e:	0b7010ef          	jal	ra,1c14 <GPIO_Init>
     362:	47a1                	li	a5,8
     364:	82fc                	sh	a5,20(sp)
     366:	084c                	addi	a1,sp,20
     368:	04800793          	li	a5,72
     36c:	80040513          	addi	a0,s0,-2048
     370:	ce3e                	sw	a5,28(sp)
     372:	0a3010ef          	jal	ra,1c14 <GPIO_Init>
     376:	67f1                	lui	a5,0x1c
     378:	40004437          	lui	s0,0x40004
     37c:	20078793          	addi	a5,a5,512 # 1c200 <_data_lma+0x1847c>
     380:	100c                	addi	a1,sp,32
     382:	d03e                	sw	a5,32(sp)
     384:	40040513          	addi	a0,s0,1024 # 40004400 <_eusrstack+0x1ffff400>
     388:	000c07b7          	lui	a5,0xc0
     38c:	d43e                	sw	a5,40(sp)
     38e:	d202                	sw	zero,36(sp)
     390:	02011623          	sh	zero,44(sp)
     394:	3db010ef          	jal	ra,1f6e <USART_Init>
     398:	13600793          	li	a5,310
     39c:	867c                	sh	a5,12(sp)
     39e:	4785                	li	a5,1
     3a0:	875c                	sb	a5,14(sp)
     3a2:	0068                	addi	a0,sp,12
     3a4:	4785                	li	a5,1
     3a6:	c83e                	sw	a5,16(sp)
     3a8:	1c1010ef          	jal	ra,1d68 <NVIC_Init>
     3ac:	4605                	li	a2,1
     3ae:	40040513          	addi	a0,s0,1024
     3b2:	52500593          	li	a1,1317
     3b6:	45f010ef          	jal	ra,2014 <USART_ITConfig>
     3ba:	4585                	li	a1,1
     3bc:	40040513          	addi	a0,s0,1024
     3c0:	43f010ef          	jal	ra,1ffe <USART_Cmd>
     3c4:	82019623          	sh	zero,-2004(gp) # 200000ac <uart2_rx_len>
     3c8:	6145                	addi	sp,sp,48
     3ca:	b369                	j	154 <__riscv_restore_0>

000003cc <Timer2_Config>:
     3cc:	d65ff2ef          	jal	t0,130 <__riscv_save_0>
     3d0:	1101                	addi	sp,sp,-32
     3d2:	4585                	li	a1,1
     3d4:	4505                	li	a0,1
     3d6:	ca02                	sw	zero,20(sp)
     3d8:	cc02                	sw	zero,24(sp)
     3da:	00011e23          	sh	zero,28(sp)
     3de:	c602                	sw	zero,12(sp)
     3e0:	c802                	sw	zero,16(sp)
     3e2:	2b7010ef          	jal	ra,1e98 <RCC_APB1PeriphClockCmd>
     3e6:	6791                	lui	a5,0x4
     3e8:	e7f78793          	addi	a5,a5,-385 # 3e7f <_data_lma+0xfb>
     3ec:	ca3e                	sw	a5,20(sp)
     3ee:	084c                	addi	a1,sp,20
     3f0:	06300793          	li	a5,99
     3f4:	40000537          	lui	a0,0x40000
     3f8:	cc3e                	sw	a5,24(sp)
     3fa:	2bd010ef          	jal	ra,1eb6 <TIM_TimeBaseInit>
     3fe:	4605                	li	a2,1
     400:	4585                	li	a1,1
     402:	40000537          	lui	a0,0x40000
     406:	333010ef          	jal	ra,1f38 <TIM_ITConfig>
     40a:	12c00793          	li	a5,300
     40e:	867c                	sh	a5,12(sp)
     410:	4789                	li	a5,2
     412:	875c                	sb	a5,14(sp)
     414:	0068                	addi	a0,sp,12
     416:	4785                	li	a5,1
     418:	c83e                	sw	a5,16(sp)
     41a:	14f010ef          	jal	ra,1d68 <NVIC_Init>
     41e:	4585                	li	a1,1
     420:	40000537          	lui	a0,0x40000
     424:	2fd010ef          	jal	ra,1f20 <TIM_Cmd>
     428:	6105                	addi	sp,sp,32
     42a:	b32d                	j	154 <__riscv_restore_0>

0000042c <Process_UART_Data>:
     42c:	d05ff2ef          	jal	t0,130 <__riscv_save_0>
     430:	82c18413          	addi	s0,gp,-2004 # 200000ac <uart2_rx_len>
     434:	200e                	lhu	a1,0(s0)
     436:	c599                	beqz	a1,444 <Process_UART_Data+0x18>
     438:	86818513          	addi	a0,gp,-1944 # 200000e8 <uart2_rx_buf>
     43c:	256010ef          	jal	ra,1692 <UART_Protocol_Parse>
     440:	00041023          	sh	zero,0(s0)
     444:	bb01                	j	154 <__riscv_restore_0>

00000446 <USART2_IRQHandler>:
     446:	cebff2ef          	jal	t0,130 <__riscv_save_0>
     44a:	40004437          	lui	s0,0x40004
     44e:	52500593          	li	a1,1317
     452:	40040513          	addi	a0,s0,1024 # 40004400 <_eusrstack+0x1ffff400>
     456:	40f010ef          	jal	ra,2064 <USART_GetITStatus>
     45a:	c91d                	beqz	a0,490 <USART2_IRQHandler+0x4a>
     45c:	40040513          	addi	a0,s0,1024
     460:	3f3010ef          	jal	ra,2052 <USART_ReceiveData>
     464:	82c18713          	addi	a4,gp,-2004 # 200000ac <uart2_rx_len>
     468:	2316                	lhu	a3,0(a4)
     46a:	07f00793          	li	a5,127
     46e:	00d7e963          	bltu	a5,a3,480 <USART2_IRQHandler+0x3a>
     472:	00168793          	addi	a5,a3,1
     476:	a31e                	sh	a5,0(a4)
     478:	86818793          	addi	a5,gp,-1944 # 200000e8 <uart2_rx_buf>
     47c:	97b6                	add	a5,a5,a3
     47e:	a388                	sb	a0,0(a5)
     480:	40004537          	lui	a0,0x40004
     484:	52500593          	li	a1,1317
     488:	40050513          	addi	a0,a0,1024 # 40004400 <_eusrstack+0x1ffff400>
     48c:	415010ef          	jal	ra,20a0 <USART_ClearITPendingBit>
     490:	b1d1                	j	154 <__riscv_restore_0>

00000492 <TIM2_IRQHandler>:
     492:	c9fff2ef          	jal	t0,130 <__riscv_save_0>
     496:	4585                	li	a1,1
     498:	40000537          	lui	a0,0x40000
     49c:	2af010ef          	jal	ra,1f4a <TIM_GetITStatus>
     4a0:	c939                	beqz	a0,4f6 <TIM2_IRQHandler+0x64>
     4a2:	4585                	li	a1,1
     4a4:	40000537          	lui	a0,0x40000
     4a8:	2bb010ef          	jal	ra,1f62 <TIM_ClearITPendingBit>
     4ac:	82818713          	addi	a4,gp,-2008 # 200000a8 <_edata>
     4b0:	231e                	lhu	a5,0(a4)
     4b2:	82818413          	addi	s0,gp,-2008 # 200000a8 <_edata>
     4b6:	0785                	addi	a5,a5,1
     4b8:	07c2                	slli	a5,a5,0x10
     4ba:	83c1                	srli	a5,a5,0x10
     4bc:	a31e                	sh	a5,0(a4)
     4be:	4715                	li	a4,5
     4c0:	02e7f7b3          	remu	a5,a5,a4
     4c4:	e395                	bnez	a5,4e8 <TIM2_IRQHandler+0x56>
     4c6:	82a1c783          	lbu	a5,-2006(gp) # 200000aa <led_state.5076>
     4ca:	40011537          	lui	a0,0x40011
     4ce:	82a18493          	addi	s1,gp,-2006 # 200000aa <led_state.5076>
     4d2:	08000593          	li	a1,128
     4d6:	c0050513          	addi	a0,a0,-1024 # 40010c00 <_eusrstack+0x2000bc00>
     4da:	cf99                	beqz	a5,4f8 <TIM2_IRQHandler+0x66>
     4dc:	05f010ef          	jal	ra,1d3a <GPIO_SetBits>
     4e0:	209c                	lbu	a5,0(s1)
     4e2:	0017b793          	seqz	a5,a5
     4e6:	a09c                	sb	a5,0(s1)
     4e8:	201a                	lhu	a4,0(s0)
     4ea:	25700793          	li	a5,599
     4ee:	00e7f463          	bgeu	a5,a4,4f6 <TIM2_IRQHandler+0x64>
     4f2:	00041023          	sh	zero,0(s0)
     4f6:	b9b9                	j	154 <__riscv_restore_0>
     4f8:	057010ef          	jal	ra,1d4e <GPIO_ResetBits>
     4fc:	b7d5                	j	4e0 <TIM2_IRQHandler+0x4e>

000004fe <Key_Process>:
     4fe:	c19ff2ef          	jal	t0,116 <__riscv_save_4>
     502:	40011437          	lui	s0,0x40011
     506:	6585                	lui	a1,0x1
     508:	80058593          	addi	a1,a1,-2048 # 800 <__stack_size>
     50c:	c0040513          	addi	a0,s0,-1024 # 40010c00 <_eusrstack+0x2000bc00>
     510:	7f6010ef          	jal	ra,1d06 <GPIO_ReadInputDataBit>
     514:	8a2a                	mv	s4,a0
     516:	40000593          	li	a1,1024
     51a:	c0040513          	addi	a0,s0,-1024
     51e:	7e8010ef          	jal	ra,1d06 <GPIO_ReadInputDataBit>
     522:	200007b7          	lui	a5,0x20000
     526:	0807c683          	lbu	a3,128(a5) # 20000080 <key1_last.5083>
     52a:	4705                	li	a4,1
     52c:	89aa                	mv	s3,a0
     52e:	08078493          	addi	s1,a5,128
     532:	00e69c63          	bne	a3,a4,54a <Key_Process+0x4c>
     536:	000a1a63          	bnez	s4,54a <Key_Process+0x4c>
     53a:	00003537          	lui	a0,0x3
     53e:	44450513          	addi	a0,a0,1092 # 3444 <_read+0xe>
     542:	651010ef          	jal	ra,2392 <puts>
     546:	09d000ef          	jal	ra,de2 <PARAM_TestAll>
     54a:	200007b7          	lui	a5,0x20000
     54e:	0817c683          	lbu	a3,129(a5) # 20000081 <key2_last.5084>
     552:	4705                	li	a4,1
     554:	08178413          	addi	s0,a5,129
     558:	02e69963          	bne	a3,a4,58a <Key_Process+0x8c>
     55c:	02099763          	bnez	s3,58a <Key_Process+0x8c>
     560:	00003537          	lui	a0,0x3
     564:	47050513          	addi	a0,a0,1136 # 3470 <_read+0x3a>
     568:	62b010ef          	jal	ra,2392 <puts>
     56c:	40011937          	lui	s2,0x40011
     570:	08000593          	li	a1,128
     574:	c0090513          	addi	a0,s2,-1024 # 40010c00 <_eusrstack+0x2000bc00>
     578:	7a8010ef          	jal	ra,1d20 <GPIO_ReadOutputDataBit>
     57c:	08000593          	li	a1,128
     580:	c911                	beqz	a0,594 <Key_Process+0x96>
     582:	c0090513          	addi	a0,s2,-1024
     586:	7c8010ef          	jal	ra,1d4e <GPIO_ResetBits>
     58a:	01448023          	sb	s4,0(s1)
     58e:	01340023          	sb	s3,0(s0)
     592:	be65                	j	14a <__riscv_restore_4>
     594:	c0090513          	addi	a0,s2,-1024
     598:	7a2010ef          	jal	ra,1d3a <GPIO_SetBits>
     59c:	b7fd                	j	58a <Key_Process+0x8c>

0000059e <main>:
     59e:	b93ff2ef          	jal	t0,130 <__riscv_save_0>
     5a2:	4505                	li	a0,1
     5a4:	7be010ef          	jal	ra,1d62 <NVIC_PriorityGroupConfig>
     5a8:	6e5000ef          	jal	ra,148c <SystemCoreClockUpdate>
     5ac:	309010ef          	jal	ra,20b4 <Delay_Init>
     5b0:	31ad                	jal	21a <GPIO_Config>
     5b2:	33b5                	jal	31e <UART2_Config>
     5b4:	3d21                	jal	3cc <Timer2_Config>
     5b6:	765000ef          	jal	ra,151a <UART_Protocol_Init>
     5ba:	6571                	lui	a0,0x1c
     5bc:	20050513          	addi	a0,a0,512 # 1c200 <_data_lma+0x1847c>
     5c0:	355010ef          	jal	ra,2114 <USART_Printf_Init>
     5c4:	200007b7          	lui	a5,0x20000
     5c8:	0847a583          	lw	a1,132(a5) # 20000084 <SystemCoreClock>
     5cc:	00003537          	lui	a0,0x3
     5d0:	49050513          	addi	a0,a0,1168 # 3490 <_read+0x5a>
     5d4:	4ab010ef          	jal	ra,227e <iprintf>
     5d8:	566010ef          	jal	ra,1b3e <DBGMCU_GetCHIPID>
     5dc:	85aa                	mv	a1,a0
     5de:	00003537          	lui	a0,0x3
     5e2:	4a050513          	addi	a0,a0,1184 # 34a0 <_read+0x6a>
     5e6:	499010ef          	jal	ra,227e <iprintf>
     5ea:	00003537          	lui	a0,0x3
     5ee:	4b050513          	addi	a0,a0,1200 # 34b0 <_read+0x7a>
     5f2:	5a1010ef          	jal	ra,2392 <puts>
     5f6:	26bd                	jal	964 <PARAM_Init>
     5f8:	c90d                	beqz	a0,62a <main+0x8c>
     5fa:	00003537          	lui	a0,0x3
     5fe:	4c850513          	addi	a0,a0,1224 # 34c8 <_read+0x92>
     602:	591010ef          	jal	ra,2392 <puts>
     606:	00003537          	lui	a0,0x3
     60a:	50050513          	addi	a0,a0,1280 # 3500 <_read+0xca>
     60e:	585010ef          	jal	ra,2392 <puts>
     612:	00003537          	lui	a0,0x3
     616:	51c50513          	addi	a0,a0,1308 # 351c <_read+0xe6>
     61a:	579010ef          	jal	ra,2392 <puts>
     61e:	35c5                	jal	4fe <Key_Process>
     620:	3531                	jal	42c <Process_UART_Data>
     622:	4529                	li	a0,10
     624:	2bb010ef          	jal	ra,20de <Delay_Ms>
     628:	bfdd                	j	61e <main+0x80>
     62a:	00003537          	lui	a0,0x3
     62e:	4e450513          	addi	a0,a0,1252 # 34e4 <_read+0xae>
     632:	bfc1                	j	602 <main+0x64>

00000634 <PARAM_LoadActiveBlock>:
     634:	ae3ff2ef          	jal	t0,116 <__riscv_save_4>
     638:	8e818793          	addi	a5,gp,-1816 # 20000168 <g_blockHeaders>
     63c:	64a9                	lui	s1,0xa
     63e:	93c18413          	addi	s0,gp,-1732 # 200001bc <g_blockOffsets>
     642:	05478913          	addi	s2,a5,84
     646:	55a48493          	addi	s1,s1,1370 # a55a <_data_lma+0x67d6>
     64a:	8301a703          	lw	a4,-2000(gp) # 200000b0 <g_activeBlockAddr>
     64e:	200e                	lhu	a1,0(s0)
     650:	4631                	li	a2,12
     652:	853e                	mv	a0,a5
     654:	95ba                	add	a1,a1,a4
     656:	377010ef          	jal	ra,21cc <memcpy>
     65a:	211a                	lhu	a4,0(a0)
     65c:	00971d63          	bne	a4,s1,676 <PARAM_LoadActiveBlock+0x42>
     660:	213a                	lhu	a4,2(a0)
     662:	cb11                	beqz	a4,676 <PARAM_LoadActiveBlock+0x42>
     664:	215a                	lhu	a4,4(a0)
     666:	cb01                	beqz	a4,676 <PARAM_LoadActiveBlock+0x42>
     668:	00c50793          	addi	a5,a0,12
     66c:	0409                	addi	s0,s0,2
     66e:	fd279ee3          	bne	a5,s2,64a <PARAM_LoadActiveBlock+0x16>
     672:	4501                	li	a0,0
     674:	bcd9                	j	14a <__riscv_restore_4>
     676:	4505                	li	a0,1
     678:	bff5                	j	674 <PARAM_LoadActiveBlock+0x40>

0000067a <PARAM_WriteToFlash.part.0>:
     67a:	a9dff2ef          	jal	t0,116 <__riscv_save_4>
     67e:	8932                	mv	s2,a2
     680:	89aa                	mv	s3,a0
     682:	8a2e                	mv	s4,a1
     684:	00195913          	srli	s2,s2,0x1
     688:	4c0010ef          	jal	ra,1b48 <FLASH_Unlock>
     68c:	4401                	li	s0,0
     68e:	4a91                	li	s5,4
     690:	01041793          	slli	a5,s0,0x10
     694:	83c1                	srli	a5,a5,0x10
     696:	0127e463          	bltu	a5,s2,69e <PARAM_WriteToFlash.part.0+0x24>
     69a:	4491                	li	s1,4
     69c:	a829                	j	6b6 <PARAM_WriteToFlash.part.0+0x3c>
     69e:	00141513          	slli	a0,s0,0x1
     6a2:	00aa07b3          	add	a5,s4,a0
     6a6:	238e                	lhu	a1,0(a5)
     6a8:	954e                	add	a0,a0,s3
     6aa:	0405                	addi	s0,s0,1
     6ac:	534010ef          	jal	ra,1be0 <FLASH_ProgramHalfWord>
     6b0:	84aa                	mv	s1,a0
     6b2:	fd550fe3          	beq	a0,s5,690 <PARAM_WriteToFlash.part.0+0x16>
     6b6:	4ac010ef          	jal	ra,1b62 <FLASH_Lock>
     6ba:	4791                	li	a5,4
     6bc:	4501                	li	a0,0
     6be:	00f48363          	beq	s1,a5,6c4 <PARAM_WriteToFlash.part.0+0x4a>
     6c2:	4509                	li	a0,2
     6c4:	b459                	j	14a <__riscv_restore_4>

000006c6 <PARAM_LoadDefaultParams.part.1>:
     6c6:	a43ff2ef          	jal	t0,108 <__riscv_save_10>
     6ca:	b0010113          	addi	sp,sp,-1280
     6ce:	93c18493          	addi	s1,gp,-1732 # 200001bc <g_blockOffsets>
     6d2:	40000613          	li	a2,1024
     6d6:	0ff00593          	li	a1,255
     6da:	0208                	addi	a0,sp,256
     6dc:	3451                	jal	160 <memset>
     6de:	8e818913          	addi	s2,gp,-1816 # 20000168 <g_blockHeaders>
     6e2:	00e48993          	addi	s3,s1,14
     6e6:	93c18413          	addi	s0,gp,-1732 # 200001bc <g_blockOffsets>
     6ea:	208a                	lhu	a0,0(s1)
     6ec:	021c                	addi	a5,sp,256
     6ee:	85ca                	mv	a1,s2
     6f0:	4631                	li	a2,12
     6f2:	953e                	add	a0,a0,a5
     6f4:	0489                	addi	s1,s1,2
     6f6:	2d7010ef          	jal	ra,21cc <memcpy>
     6fa:	0931                	addi	s2,s2,12
     6fc:	ff3497e3          	bne	s1,s3,6ea <PARAM_LoadDefaultParams.part.1+0x24>
     700:	4659                	li	a2,22
     702:	4581                	li	a1,0
     704:	00210513          	addi	a0,sp,2
     708:	3ca1                	jal	160 <memset>
     70a:	678d                	lui	a5,0x3
     70c:	73a78793          	addi	a5,a5,1850 # 373a <_read+0x304>
     710:	807c                	sh	a5,0(sp)
     712:	4785                	li	a5,1
     714:	81dc                	sb	a5,3(sp)
     716:	061807b7          	lui	a5,0x6180
     71a:	0785                	addi	a5,a5,1
     71c:	c43e                	sw	a5,8(sp)
     71e:	6785                	lui	a5,0x1
     720:	c0c78793          	addi	a5,a5,-1012 # c0c <PARAM_UpdateDateTime+0x54>
     724:	200a                	lhu	a0,0(s0)
     726:	867c                	sh	a5,12(sp)
     728:	010137b7          	lui	a5,0x1013
     72c:	80a78793          	addi	a5,a5,-2038 # 101280a <_data_lma+0x100ea86>
     730:	c83e                	sw	a5,16(sp)
     732:	0531                	addi	a0,a0,12
     734:	021c                	addi	a5,sp,256
     736:	44a9                	li	s1,10
     738:	4661                	li	a2,24
     73a:	858a                	mv	a1,sp
     73c:	953e                	add	a0,a0,a5
     73e:	8244                	sb	s1,4(sp)
     740:	28d010ef          	jal	ra,21cc <memcpy>
     744:	a4a407b7          	lui	a5,0xa4a40
     748:	32078793          	addi	a5,a5,800 # a4a40320 <_eusrstack+0x84a3b320>
     74c:	ce02                	sw	zero,28(sp)
     74e:	cc3e                	sw	a5,24(sp)
     750:	47a1                	li	a5,8
     752:	00f10fa3          	sb	a5,31(sp)
     756:	000037b7          	lui	a5,0x3
     75a:	5a07a783          	lw	a5,1440(a5) # 35a0 <_read+0x16a>
     75e:	202a                	lhu	a0,2(s0)
     760:	4661                	li	a2,24
     762:	d03e                	sw	a5,32(sp)
     764:	0531                	addi	a0,a0,12
     766:	021c                	addi	a5,sp,256
     768:	953e                	add	a0,a0,a5
     76a:	082c                	addi	a1,sp,24
     76c:	d202                	sw	zero,36(sp)
     76e:	d402                	sw	zero,40(sp)
     770:	d602                	sw	zero,44(sp)
     772:	25b010ef          	jal	ra,21cc <memcpy>
     776:	03200613          	li	a2,50
     77a:	4581                	li	a1,0
     77c:	1808                	addi	a0,sp,48
     77e:	32cd                	jal	160 <memset>
     780:	47d1                	li	a5,20
     782:	04f10423          	sb	a5,72(sp)
     786:	25800793          	li	a5,600
     78a:	04f11523          	sh	a5,74(sp)
     78e:	000a07b7          	lui	a5,0xa0
     792:	7d078793          	addi	a5,a5,2000 # a07d0 <_data_lma+0x9ca4c>
     796:	c6be                	sw	a5,76(sp)
     798:	000507b7          	lui	a5,0x50
     79c:	07a9                	addi	a5,a5,10
     79e:	204a                	lhu	a0,4(s0)
     7a0:	c8be                	sw	a5,80(sp)
     7a2:	001407b7          	lui	a5,0x140
     7a6:	07d1                	addi	a5,a5,20
     7a8:	02910823          	sb	s1,48(sp)
     7ac:	cabe                	sw	a5,84(sp)
     7ae:	009604b7          	lui	s1,0x960
     7b2:	021c                	addi	a5,sp,256
     7b4:	0531                	addi	a0,a0,12
     7b6:	06400913          	li	s2,100
     7ba:	03248a13          	addi	s4,s1,50 # 960032 <_data_lma+0x95c2ae>
     7be:	4aa9                	li	s5,10
     7c0:	953e                	add	a0,a0,a5
     7c2:	03200613          	li	a2,50
     7c6:	180c                	addi	a1,sp,48
     7c8:	03211923          	sh	s2,50(sp)
     7cc:	da52                	sw	s4,52(sp)
     7ce:	05511c23          	sh	s5,88(sp)
     7d2:	1fb010ef          	jal	ra,21cc <memcpy>
     7d6:	03200613          	li	a2,50
     7da:	4581                	li	a1,0
     7dc:	10c8                	addi	a0,sp,100
     7de:	983ff0ef          	jal	ra,160 <memset>
     7e2:	478d                	li	a5,3
     7e4:	06f10e23          	sb	a5,124(sp)
     7e8:	0c800793          	li	a5,200
     7ec:	06f11f23          	sh	a5,126(sp)
     7f0:	206a                	lhu	a0,6(s0)
     7f2:	003c07b7          	lui	a5,0x3c0
     7f6:	7d078713          	addi	a4,a5,2000 # 3c07d0 <_data_lma+0x3bca4c>
     7fa:	04678793          	addi	a5,a5,70
     7fe:	c53e                	sw	a5,136(sp)
     800:	03200793          	li	a5,50
     804:	c13a                	sw	a4,128(sp)
     806:	08f11623          	sh	a5,140(sp)
     80a:	00280737          	lui	a4,0x280
     80e:	021c                	addi	a5,sp,256
     810:	0531                	addi	a0,a0,12
     812:	03270713          	addi	a4,a4,50 # 280032 <_data_lma+0x27c2ae>
     816:	953e                	add	a0,a0,a5
     818:	03200613          	li	a2,50
     81c:	10cc                	addi	a1,sp,100
     81e:	c33a                	sw	a4,132(sp)
     820:	07510223          	sb	s5,100(sp)
     824:	07211323          	sh	s2,102(sp)
     828:	d4d2                	sw	s4,104(sp)
     82a:	1a3010ef          	jal	ra,21cc <memcpy>
     82e:	03200613          	li	a2,50
     832:	4581                	li	a1,0
     834:	0928                	addi	a0,sp,152
     836:	92bff0ef          	jal	ra,160 <memset>
     83a:	240a                	lhu	a0,8(s0)
     83c:	19000793          	li	a5,400
     840:	0af11923          	sh	a5,178(sp)
     844:	008209b7          	lui	s3,0x820
     848:	021c                	addi	a5,sp,256
     84a:	0531                	addi	a0,a0,12
     84c:	7d048b93          	addi	s7,s1,2000
     850:	953e                	add	a0,a0,a5
     852:	08c98993          	addi	s3,s3,140 # 82008c <_data_lma+0x81c308>
     856:	0a048493          	addi	s1,s1,160
     85a:	08c00b13          	li	s6,140
     85e:	03200613          	li	a2,50
     862:	092c                	addi	a1,sp,152
     864:	09510c23          	sb	s5,152(sp)
     868:	09211d23          	sh	s2,154(sp)
     86c:	cf52                	sw	s4,156(sp)
     86e:	0b210823          	sb	s2,176(sp)
     872:	db5e                	sw	s7,180(sp)
     874:	dd4e                	sw	s3,184(sp)
     876:	df26                	sw	s1,188(sp)
     878:	0d611023          	sh	s6,192(sp)
     87c:	151010ef          	jal	ra,21cc <memcpy>
     880:	03200613          	li	a2,50
     884:	4581                	li	a1,0
     886:	01e8                	addi	a0,sp,204
     888:	8d9ff0ef          	jal	ra,160 <memset>
     88c:	242a                	lhu	a0,10(s0)
     88e:	03200793          	li	a5,50
     892:	0ef10223          	sb	a5,228(sp)
     896:	1f400793          	li	a5,500
     89a:	0ef11323          	sh	a5,230(sp)
     89e:	0531                	addi	a0,a0,12
     8a0:	021c                	addi	a5,sp,256
     8a2:	03200613          	li	a2,50
     8a6:	953e                	add	a0,a0,a5
     8a8:	01ec                	addi	a1,sp,204
     8aa:	0d510623          	sb	s5,204(sp)
     8ae:	0d211723          	sh	s2,206(sp)
     8b2:	c9d2                	sw	s4,208(sp)
     8b4:	d5de                	sw	s7,232(sp)
     8b6:	d7ce                	sw	s3,236(sp)
     8b8:	d9a6                	sw	s1,240(sp)
     8ba:	0f611a23          	sh	s6,244(sp)
     8be:	10f010ef          	jal	ra,21cc <memcpy>
     8c2:	2472                	lhu	a2,14(s0)
     8c4:	4701                	li	a4,0
     8c6:	4781                	li	a5,0
     8c8:	fff60693          	addi	a3,a2,-1
     8cc:	06c2                	slli	a3,a3,0x10
     8ce:	82c1                	srli	a3,a3,0x10
     8d0:	01071593          	slli	a1,a4,0x10
     8d4:	81c1                	srli	a1,a1,0x10
     8d6:	00d5ef63          	bltu	a1,a3,8f4 <__stack_size+0xf4>
     8da:	50010713          	addi	a4,sp,1280
     8de:	9732                	add	a4,a4,a2
     8e0:	bef70fa3          	sb	a5,-1025(a4)
     8e4:	00167793          	andi	a5,a2,1
     8e8:	cf91                	beqz	a5,904 <__stack_size+0x104>
     8ea:	4509                	li	a0,2
     8ec:	50010113          	addi	sp,sp,1280
     8f0:	851ff06f          	j	140 <__riscv_restore_10>
     8f4:	020c                	addi	a1,sp,256
     8f6:	95ba                	add	a1,a1,a4
     8f8:	218c                	lbu	a1,0(a1)
     8fa:	0705                	addi	a4,a4,1
     8fc:	97ae                	add	a5,a5,a1
     8fe:	0ff7f793          	andi	a5,a5,255
     902:	b7f9                	j	8d0 <__stack_size+0xd0>
     904:	0800e437          	lui	s0,0x800e
     908:	020c                	addi	a1,sp,256
     90a:	80040513          	addi	a0,s0,-2048 # 800d800 <_data_lma+0x8009a7c>
     90e:	33b5                	jal	67a <PARAM_WriteToFlash.part.0>
     910:	fd69                	bnez	a0,8ea <__stack_size+0xea>
     912:	80040413          	addi	s0,s0,-2048
     916:	8281a823          	sw	s0,-2000(gp) # 200000b0 <g_activeBlockAddr>
     91a:	bfc9                	j	8ec <__stack_size+0xec>

0000091c <PARAM_LoadDefaultParams>:
     91c:	815ff2ef          	jal	t0,130 <__riscv_save_0>
     920:	8e818793          	addi	a5,gp,-1816 # 20000168 <g_blockHeaders>
     924:	7769                	lui	a4,0xffffa
     926:	05478613          	addi	a2,a5,84
     92a:	55a70713          	addi	a4,a4,1370 # ffffa55a <_eusrstack+0xdfff555a>
     92e:	4685                	li	a3,1
     930:	a39a                	sh	a4,0(a5)
     932:	a3b6                	sh	a3,2(a5)
     934:	a3d6                	sh	a3,4(a5)
     936:	0007a423          	sw	zero,8(a5)
     93a:	07b1                	addi	a5,a5,12
     93c:	fec79ae3          	bne	a5,a2,930 <PARAM_LoadDefaultParams+0x14>
     940:	208010ef          	jal	ra,1b48 <FLASH_Unlock>
     944:	0800e537          	lui	a0,0x800e
     948:	80050513          	addi	a0,a0,-2048 # 800d800 <_data_lma+0x8009a7c>
     94c:	25c010ef          	jal	ra,1ba8 <FLASH_ErasePage>
     950:	842a                	mv	s0,a0
     952:	210010ef          	jal	ra,1b62 <FLASH_Lock>
     956:	4791                	li	a5,4
     958:	4505                	li	a0,1
     95a:	00f41363          	bne	s0,a5,960 <PARAM_LoadDefaultParams+0x44>
     95e:	33a5                	jal	6c6 <PARAM_LoadDefaultParams.part.1>
     960:	ff4ff06f          	j	154 <__riscv_restore_0>

00000964 <PARAM_Init>:
     964:	fb2ff2ef          	jal	t0,116 <__riscv_save_4>
     968:	93c18793          	addi	a5,gp,-1732 # 200001bc <g_blockOffsets>
     96c:	00540737          	lui	a4,0x540
     970:	c398                	sw	a4,0(a5)
     972:	00840737          	lui	a4,0x840
     976:	06c70713          	addi	a4,a4,108 # 84006c <_data_lma+0x83c2e8>
     97a:	c3d8                	sw	a4,4(a5)
     97c:	00e80737          	lui	a4,0xe80
     980:	0b670713          	addi	a4,a4,182 # e800b6 <_data_lma+0xe7c332>
     984:	c798                	sw	a4,8(a5)
     986:	016c0737          	lui	a4,0x16c0
     98a:	11a70713          	addi	a4,a4,282 # 16c011a <_data_lma+0x16bc396>
     98e:	00003537          	lui	a0,0x3
     992:	c7d8                	sw	a4,12(a5)
     994:	53050513          	addi	a0,a0,1328 # 3530 <_read+0xfa>
     998:	0800e9b7          	lui	s3,0x800e
     99c:	1f7010ef          	jal	ra,2392 <puts>
     9a0:	83018493          	addi	s1,gp,-2000 # 200000b0 <g_activeBlockAddr>
     9a4:	80098913          	addi	s2,s3,-2048 # 800d800 <_data_lma+0x8009a7c>
     9a8:	0124a023          	sw	s2,0(s1)
     9ac:	3161                	jal	634 <PARAM_LoadActiveBlock>
     9ae:	e919                	bnez	a0,9c4 <PARAM_Init+0x60>
     9b0:	842a                	mv	s0,a0
     9b2:	00003537          	lui	a0,0x3
     9b6:	54450513          	addi	a0,a0,1348 # 3544 <_read+0x10e>
     9ba:	1d9010ef          	jal	ra,2392 <puts>
     9be:	8522                	mv	a0,s0
     9c0:	f8aff06f          	j	14a <__riscv_restore_4>
     9c4:	0134a023          	sw	s3,0(s1)
     9c8:	31b5                	jal	634 <PARAM_LoadActiveBlock>
     9ca:	842a                	mv	s0,a0
     9cc:	e511                	bnez	a0,9d8 <PARAM_Init+0x74>
     9ce:	00003537          	lui	a0,0x3
     9d2:	55c50513          	addi	a0,a0,1372 # 355c <_read+0x126>
     9d6:	b7d5                	j	9ba <PARAM_Init+0x56>
     9d8:	00003537          	lui	a0,0x3
     9dc:	57450513          	addi	a0,a0,1396 # 3574 <_read+0x13e>
     9e0:	1b3010ef          	jal	ra,2392 <puts>
     9e4:	3f25                	jal	91c <PARAM_LoadDefaultParams>
     9e6:	842a                	mv	s0,a0
     9e8:	e501                	bnez	a0,9f0 <PARAM_Init+0x8c>
     9ea:	0124a023          	sw	s2,0(s1)
     9ee:	bfc1                	j	9be <PARAM_Init+0x5a>
     9f0:	00003537          	lui	a0,0x3
     9f4:	59050513          	addi	a0,a0,1424 # 3590 <_read+0x15a>
     9f8:	19b010ef          	jal	ra,2392 <puts>
     9fc:	4405                	li	s0,1
     9fe:	b7c1                	j	9be <PARAM_Init+0x5a>

00000a00 <PARAM_ReadBlock>:
     a00:	4719                	li	a4,6
     a02:	04a76763          	bltu	a4,a0,a50 <PARAM_ReadBlock+0x50>
     a06:	87aa                	mv	a5,a0
     a08:	4505                	li	a0,1
     a0a:	c5a9                	beqz	a1,a54 <PARAM_ReadBlock+0x54>
     a0c:	8301a683          	lw	a3,-2000(gp) # 200000b0 <g_activeBlockAddr>
     a10:	c2b1                	beqz	a3,a54 <PARAM_ReadBlock+0x54>
     a12:	00179513          	slli	a0,a5,0x1
     a16:	0785                	addi	a5,a5,1
     a18:	93c18713          	addi	a4,gp,-1732 # 200001bc <g_blockOffsets>
     a1c:	0786                	slli	a5,a5,0x1
     a1e:	953a                	add	a0,a0,a4
     a20:	97ba                	add	a5,a5,a4
     a22:	00055803          	lhu	a6,0(a0)
     a26:	239e                	lhu	a5,0(a5)
     a28:	4509                	li	a0,2
     a2a:	410787b3          	sub	a5,a5,a6
     a2e:	17d1                	addi	a5,a5,-12
     a30:	07c2                	slli	a5,a5,0x10
     a32:	83c1                	srli	a5,a5,0x10
     a34:	02f66063          	bltu	a2,a5,a54 <PARAM_ReadBlock+0x54>
     a38:	ef8ff2ef          	jal	t0,130 <__riscv_save_0>
     a3c:	06b1                	addi	a3,a3,12
     a3e:	852e                	mv	a0,a1
     a40:	863e                	mv	a2,a5
     a42:	010685b3          	add	a1,a3,a6
     a46:	786010ef          	jal	ra,21cc <memcpy>
     a4a:	4501                	li	a0,0
     a4c:	f08ff06f          	j	154 <__riscv_restore_0>
     a50:	4505                	li	a0,1
     a52:	8082                	ret
     a54:	8082                	ret

00000a56 <PARAM_UpdateBlock>:
     a56:	4799                	li	a5,6
     a58:	14a7ed63          	bltu	a5,a0,bb2 <PARAM_UpdateBlock+0x15c>
     a5c:	4785                	li	a5,1
     a5e:	14058b63          	beqz	a1,bb4 <PARAM_UpdateBlock+0x15e>
     a62:	ea6ff2ef          	jal	t0,108 <__riscv_save_10>
     a66:	8301a683          	lw	a3,-2000(gp) # 200000b0 <g_activeBlockAddr>
     a6a:	bf010113          	addi	sp,sp,-1040
     a6e:	83018913          	addi	s2,gp,-2000 # 200000b0 <g_activeBlockAddr>
     a72:	10068463          	beqz	a3,b7a <PARAM_UpdateBlock+0x124>
     a76:	00150793          	addi	a5,a0,1
     a7a:	93c18713          	addi	a4,gp,-1732 # 200001bc <g_blockOffsets>
     a7e:	0786                	slli	a5,a5,0x1
     a80:	00151813          	slli	a6,a0,0x1
     a84:	97ba                	add	a5,a5,a4
     a86:	983a                	add	a6,a6,a4
     a88:	239a                	lhu	a4,0(a5)
     a8a:	00085783          	lhu	a5,0(a6)
     a8e:	93c18993          	addi	s3,gp,-1732 # 200001bc <g_blockOffsets>
     a92:	8f1d                	sub	a4,a4,a5
     a94:	1751                	addi	a4,a4,-12
     a96:	0742                	slli	a4,a4,0x10
     a98:	8341                	srli	a4,a4,0x10
     a9a:	4789                	li	a5,2
     a9c:	0cc76f63          	bltu	a4,a2,b7a <PARAM_UpdateBlock+0x124>
     aa0:	47b1                	li	a5,12
     aa2:	02f507b3          	mul	a5,a0,a5
     aa6:	8e818713          	addi	a4,gp,-1816 # 20000168 <g_blockHeaders>
     aaa:	0800ea37          	lui	s4,0x800e
     aae:	8e818c13          	addi	s8,gp,-1816 # 20000168 <g_blockHeaders>
     ab2:	973e                	add	a4,a4,a5
     ab4:	235e                	lhu	a5,4(a4)
     ab6:	0785                	addi	a5,a5,1
     ab8:	07c2                	slli	a5,a5,0x10
     aba:	83c1                	srli	a5,a5,0x10
     abc:	a35e                	sh	a5,4(a4)
     abe:	07c2                	slli	a5,a5,0x10
     ac0:	8fc9                	or	a5,a5,a0
     ac2:	c71c                	sw	a5,8(a4)
     ac4:	0800e7b7          	lui	a5,0x800e
     ac8:	80078793          	addi	a5,a5,-2048 # 800d800 <_data_lma+0x8009a7c>
     acc:	00f68363          	beq	a3,a5,ad2 <PARAM_UpdateBlock+0x7c>
     ad0:	8a3e                	mv	s4,a5
     ad2:	8b32                	mv	s6,a2
     ad4:	8aae                	mv	s5,a1
     ad6:	842a                	mv	s0,a0
     ad8:	070010ef          	jal	ra,1b48 <FLASH_Unlock>
     adc:	8552                	mv	a0,s4
     ade:	0ca010ef          	jal	ra,1ba8 <FLASH_ErasePage>
     ae2:	c62a                	sw	a0,12(sp)
     ae4:	07e010ef          	jal	ra,1b62 <FLASH_Lock>
     ae8:	4532                	lw	a0,12(sp)
     aea:	4711                	li	a4,4
     aec:	478d                	li	a5,3
     aee:	08e51663          	bne	a0,a4,b7a <PARAM_UpdateBlock+0x124>
     af2:	40000613          	li	a2,1024
     af6:	0ff00593          	li	a1,255
     afa:	0808                	addi	a0,sp,16
     afc:	e64ff0ef          	jal	ra,160 <memset>
     b00:	8bce                	mv	s7,s3
     b02:	00e98c93          	addi	s9,s3,14
     b06:	93c18493          	addi	s1,gp,-1732 # 200001bc <g_blockOffsets>
     b0a:	208a                	lhu	a0,0(s1)
     b0c:	081c                	addi	a5,sp,16
     b0e:	85e2                	mv	a1,s8
     b10:	4631                	li	a2,12
     b12:	953e                	add	a0,a0,a5
     b14:	0489                	addi	s1,s1,2
     b16:	6b6010ef          	jal	ra,21cc <memcpy>
     b1a:	0c31                	addi	s8,s8,12
     b1c:	fe9c97e3          	bne	s9,s1,b0a <PARAM_UpdateBlock+0xb4>
     b20:	4c01                	li	s8,0
     b22:	449d                	li	s1,7
     b24:	00092783          	lw	a5,0(s2)
     b28:	000bd703          	lhu	a4,0(s7)
     b2c:	07b1                	addi	a5,a5,12
     b2e:	00e785b3          	add	a1,a5,a4
     b32:	00c70513          	addi	a0,a4,12
     b36:	081c                	addi	a5,sp,16
     b38:	953e                	add	a0,a0,a5
     b3a:	05841563          	bne	s0,s8,b84 <PARAM_UpdateBlock+0x12e>
     b3e:	865a                	mv	a2,s6
     b40:	85d6                	mv	a1,s5
     b42:	0c05                	addi	s8,s8,1
     b44:	688010ef          	jal	ra,21cc <memcpy>
     b48:	0b89                	addi	s7,s7,2
     b4a:	fc9c1de3          	bne	s8,s1,b24 <PARAM_UpdateBlock+0xce>
     b4e:	00e9d603          	lhu	a2,14(s3)
     b52:	4701                	li	a4,0
     b54:	4781                	li	a5,0
     b56:	fff60693          	addi	a3,a2,-1
     b5a:	06c2                	slli	a3,a3,0x10
     b5c:	82c1                	srli	a3,a3,0x10
     b5e:	01071593          	slli	a1,a4,0x10
     b62:	81c1                	srli	a1,a1,0x10
     b64:	02d5e763          	bltu	a1,a3,b92 <PARAM_UpdateBlock+0x13c>
     b68:	41010713          	addi	a4,sp,1040
     b6c:	9732                	add	a4,a4,a2
     b6e:	bef70fa3          	sb	a5,-1025(a4)
     b72:	00167793          	andi	a5,a2,1
     b76:	c795                	beqz	a5,ba2 <PARAM_UpdateBlock+0x14c>
     b78:	4791                	li	a5,4
     b7a:	853e                	mv	a0,a5
     b7c:	41010113          	addi	sp,sp,1040
     b80:	dc0ff06f          	j	140 <__riscv_restore_10>
     b84:	002bd603          	lhu	a2,2(s7)
     b88:	1651                	addi	a2,a2,-12
     b8a:	8e19                	sub	a2,a2,a4
     b8c:	0642                	slli	a2,a2,0x10
     b8e:	8241                	srli	a2,a2,0x10
     b90:	bf4d                	j	b42 <PARAM_UpdateBlock+0xec>
     b92:	080c                	addi	a1,sp,16
     b94:	95ba                	add	a1,a1,a4
     b96:	218c                	lbu	a1,0(a1)
     b98:	0705                	addi	a4,a4,1
     b9a:	97ae                	add	a5,a5,a1
     b9c:	0ff7f793          	andi	a5,a5,255
     ba0:	bf7d                	j	b5e <PARAM_UpdateBlock+0x108>
     ba2:	080c                	addi	a1,sp,16
     ba4:	8552                	mv	a0,s4
     ba6:	3cd1                	jal	67a <PARAM_WriteToFlash.part.0>
     ba8:	87aa                	mv	a5,a0
     baa:	f579                	bnez	a0,b78 <PARAM_UpdateBlock+0x122>
     bac:	01492023          	sw	s4,0(s2)
     bb0:	b7e9                	j	b7a <PARAM_UpdateBlock+0x124>
     bb2:	4785                	li	a5,1
     bb4:	853e                	mv	a0,a5
     bb6:	8082                	ret

00000bb8 <PARAM_UpdateDateTime>:
     bb8:	06300813          	li	a6,99
     bbc:	06a86d63          	bltu	a6,a0,c36 <PARAM_UpdateDateTime+0x7e>
     bc0:	fff58893          	addi	a7,a1,-1
     bc4:	0ff8f893          	andi	a7,a7,255
     bc8:	432d                	li	t1,11
     bca:	4805                	li	a6,1
     bcc:	07136663          	bltu	t1,a7,c38 <PARAM_UpdateDateTime+0x80>
     bd0:	fff60893          	addi	a7,a2,-1
     bd4:	0ff8f893          	andi	a7,a7,255
     bd8:	4379                	li	t1,30
     bda:	05136f63          	bltu	t1,a7,c38 <PARAM_UpdateDateTime+0x80>
     bde:	48dd                	li	a7,23
     be0:	04d8ec63          	bltu	a7,a3,c38 <PARAM_UpdateDateTime+0x80>
     be4:	03b00893          	li	a7,59
     be8:	04e8e863          	bltu	a7,a4,c38 <PARAM_UpdateDateTime+0x80>
     bec:	04f8e663          	bltu	a7,a5,c38 <PARAM_UpdateDateTime+0x80>
     bf0:	d26ff2ef          	jal	t0,116 <__riscv_save_4>
     bf4:	1101                	addi	sp,sp,-32
     bf6:	89b2                	mv	s3,a2
     bf8:	8a2e                	mv	s4,a1
     bfa:	8aaa                	mv	s5,a0
     bfc:	4661                	li	a2,24
     bfe:	002c                	addi	a1,sp,8
     c00:	4501                	li	a0,0
     c02:	843e                	mv	s0,a5
     c04:	84ba                	mv	s1,a4
     c06:	8936                	mv	s2,a3
     c08:	3be5                	jal	a00 <PARAM_ReadBlock>
     c0a:	4809                	li	a6,2
     c0c:	e10d                	bnez	a0,c2e <PARAM_UpdateDateTime+0x76>
     c0e:	4661                	li	a2,24
     c10:	002c                	addi	a1,sp,8
     c12:	01510923          	sb	s5,18(sp)
     c16:	014109a3          	sb	s4,19(sp)
     c1a:	01310a23          	sb	s3,20(sp)
     c1e:	01210aa3          	sb	s2,21(sp)
     c22:	00910b23          	sb	s1,22(sp)
     c26:	00810ba3          	sb	s0,23(sp)
     c2a:	3535                	jal	a56 <PARAM_UpdateBlock>
     c2c:	882a                	mv	a6,a0
     c2e:	8542                	mv	a0,a6
     c30:	6105                	addi	sp,sp,32
     c32:	d18ff06f          	j	14a <__riscv_restore_4>
     c36:	4805                	li	a6,1
     c38:	8542                	mv	a0,a6
     c3a:	8082                	ret

00000c3c <PARAM_GetDateTime>:
     c3c:	cd31                	beqz	a0,c98 <PARAM_GetDateTime+0x5c>
     c3e:	cd8ff2ef          	jal	t0,116 <__riscv_save_4>
     c42:	8aaa                	mv	s5,a0
     c44:	1101                	addi	sp,sp,-32
     c46:	4505                	li	a0,1
     c48:	c5a9                	beqz	a1,c92 <PARAM_GetDateTime+0x56>
     c4a:	c621                	beqz	a2,c92 <PARAM_GetDateTime+0x56>
     c4c:	c2b9                	beqz	a3,c92 <PARAM_GetDateTime+0x56>
     c4e:	c331                	beqz	a4,c92 <PARAM_GetDateTime+0x56>
     c50:	c3a9                	beqz	a5,c92 <PARAM_GetDateTime+0x56>
     c52:	89b2                	mv	s3,a2
     c54:	8a2e                	mv	s4,a1
     c56:	4661                	li	a2,24
     c58:	002c                	addi	a1,sp,8
     c5a:	4501                	li	a0,0
     c5c:	843e                	mv	s0,a5
     c5e:	84ba                	mv	s1,a4
     c60:	8936                	mv	s2,a3
     c62:	3b79                	jal	a00 <PARAM_ReadBlock>
     c64:	ed05                	bnez	a0,c9c <PARAM_GetDateTime+0x60>
     c66:	01214783          	lbu	a5,18(sp)
     c6a:	00fa8023          	sb	a5,0(s5)
     c6e:	01314783          	lbu	a5,19(sp)
     c72:	00fa0023          	sb	a5,0(s4) # 800e000 <_data_lma+0x800a27c>
     c76:	01414783          	lbu	a5,20(sp)
     c7a:	00f98023          	sb	a5,0(s3)
     c7e:	01514783          	lbu	a5,21(sp)
     c82:	00f90023          	sb	a5,0(s2)
     c86:	01614783          	lbu	a5,22(sp)
     c8a:	a09c                	sb	a5,0(s1)
     c8c:	01714783          	lbu	a5,23(sp)
     c90:	a01c                	sb	a5,0(s0)
     c92:	6105                	addi	sp,sp,32
     c94:	cb6ff06f          	j	14a <__riscv_restore_4>
     c98:	4505                	li	a0,1
     c9a:	8082                	ret
     c9c:	4509                	li	a0,2
     c9e:	bfd5                	j	c92 <PARAM_GetDateTime+0x56>

00000ca0 <PARAM_IncreaseTestCount>:
     ca0:	c90ff2ef          	jal	t0,130 <__riscv_save_0>
     ca4:	1101                	addi	sp,sp,-32
     ca6:	4661                	li	a2,24
     ca8:	002c                	addi	a1,sp,8
     caa:	4501                	li	a0,0
     cac:	3b91                	jal	a00 <PARAM_ReadBlock>
     cae:	4785                	li	a5,1
     cb0:	e901                	bnez	a0,cc0 <PARAM_IncreaseTestCount+0x20>
     cb2:	873c                	lhu	a5,14(sp)
     cb4:	4661                	li	a2,24
     cb6:	002c                	addi	a1,sp,8
     cb8:	0785                	addi	a5,a5,1
     cba:	877c                	sh	a5,14(sp)
     cbc:	3b69                	jal	a56 <PARAM_UpdateBlock>
     cbe:	87aa                	mv	a5,a0
     cc0:	853e                	mv	a0,a5
     cc2:	6105                	addi	sp,sp,32
     cc4:	c90ff06f          	j	154 <__riscv_restore_0>

00000cc8 <PARAM_GetActiveBlockAddr>:
     cc8:	8301a503          	lw	a0,-2000(gp) # 200000b0 <g_activeBlockAddr>
     ccc:	8082                	ret

00000cce <PARAM_GetStripParametersByStripType>:
     cce:	c1b9                	beqz	a1,d14 <PARAM_GetStripParametersByStripType+0x46>
     cd0:	87aa                	mv	a5,a0
     cd2:	4505                	li	a0,1
     cd4:	c621                	beqz	a2,d1c <PARAM_GetStripParametersByStripType+0x4e>
     cd6:	c2b9                	beqz	a3,d1c <PARAM_GetStripParametersByStripType+0x4e>
     cd8:	4711                	li	a4,4
     cda:	4509                	li	a0,2
     cdc:	04f76063          	bltu	a4,a5,d1c <PARAM_GetStripParametersByStripType+0x4e>
     ce0:	c50ff2ef          	jal	t0,130 <__riscv_save_0>
     ce4:	853e                	mv	a0,a5
     ce6:	81818793          	addi	a5,gp,-2024 # 20000098 <CSWTCH.18>
     cea:	953e                	add	a0,a0,a5
     cec:	2108                	lbu	a0,0(a0)
     cee:	7139                	addi	sp,sp,-64
     cf0:	84b2                	mv	s1,a2
     cf2:	892e                	mv	s2,a1
     cf4:	03200613          	li	a2,50
     cf8:	006c                	addi	a1,sp,12
     cfa:	8436                	mv	s0,a3
     cfc:	3311                	jal	a00 <PARAM_ReadBlock>
     cfe:	ed09                	bnez	a0,d18 <PARAM_GetStripParametersByStripType+0x4a>
     d00:	873c                	lhu	a5,14(sp)
     d02:	00f91023          	sh	a5,0(s2)
     d06:	80bc                	lhu	a5,16(sp)
     d08:	a09e                	sh	a5,0(s1)
     d0a:	81bc                	lhu	a5,18(sp)
     d0c:	a01e                	sh	a5,0(s0)
     d0e:	6121                	addi	sp,sp,64
     d10:	c44ff06f          	j	154 <__riscv_restore_0>
     d14:	4505                	li	a0,1
     d16:	8082                	ret
     d18:	450d                	li	a0,3
     d1a:	bfd5                	j	d0e <PARAM_GetStripParametersByStripType+0x40>
     d1c:	8082                	ret

00000d1e <PARAM_GetMeasurementRangeByStripType>:
     d1e:	cd9d                	beqz	a1,d5c <PARAM_GetMeasurementRangeByStripType+0x3e>
     d20:	87aa                	mv	a5,a0
     d22:	4505                	li	a0,1
     d24:	c221                	beqz	a2,d64 <PARAM_GetMeasurementRangeByStripType+0x46>
     d26:	4711                	li	a4,4
     d28:	4509                	li	a0,2
     d2a:	02f76d63          	bltu	a4,a5,d64 <PARAM_GetMeasurementRangeByStripType+0x46>
     d2e:	c02ff2ef          	jal	t0,130 <__riscv_save_0>
     d32:	81818513          	addi	a0,gp,-2024 # 20000098 <CSWTCH.18>
     d36:	97aa                	add	a5,a5,a0
     d38:	2388                	lbu	a0,0(a5)
     d3a:	7139                	addi	sp,sp,-64
     d3c:	8432                	mv	s0,a2
     d3e:	84ae                	mv	s1,a1
     d40:	03200613          	li	a2,50
     d44:	006c                	addi	a1,sp,12
     d46:	396d                	jal	a00 <PARAM_ReadBlock>
     d48:	ed01                	bnez	a0,d60 <PARAM_GetMeasurementRangeByStripType+0x42>
     d4a:	02414783          	lbu	a5,36(sp)
     d4e:	a09c                	sb	a5,0(s1)
     d50:	02615783          	lhu	a5,38(sp)
     d54:	a01e                	sh	a5,0(s0)
     d56:	6121                	addi	sp,sp,64
     d58:	bfcff06f          	j	154 <__riscv_restore_0>
     d5c:	4505                	li	a0,1
     d5e:	8082                	ret
     d60:	450d                	li	a0,3
     d62:	bfd5                	j	d56 <PARAM_GetMeasurementRangeByStripType+0x38>
     d64:	8082                	ret

00000d66 <PARAM_GetTimingParametersByStripType>:
     d66:	c9ad                	beqz	a1,dd8 <PARAM_GetTimingParametersByStripType+0x72>
     d68:	87aa                	mv	a5,a0
     d6a:	4505                	li	a0,1
     d6c:	ca35                	beqz	a2,de0 <PARAM_GetTimingParametersByStripType+0x7a>
     d6e:	caad                	beqz	a3,de0 <PARAM_GetTimingParametersByStripType+0x7a>
     d70:	ba6ff2ef          	jal	t0,116 <__riscv_save_4>
     d74:	fff70813          	addi	a6,a4,-1
     d78:	0ff87813          	andi	a6,a6,255
     d7c:	7139                	addi	sp,sp,-64
     d7e:	4a05                	li	s4,1
     d80:	03056f63          	bltu	a0,a6,dbe <PARAM_GetTimingParametersByStripType+0x58>
     d84:	4811                	li	a6,4
     d86:	4509                	li	a0,2
     d88:	02f86b63          	bltu	a6,a5,dbe <PARAM_GetTimingParametersByStripType+0x58>
     d8c:	81818513          	addi	a0,gp,-2024 # 20000098 <CSWTCH.18>
     d90:	97aa                	add	a5,a5,a0
     d92:	2388                	lbu	a0,0(a5)
     d94:	84b2                	mv	s1,a2
     d96:	892e                	mv	s2,a1
     d98:	03200613          	li	a2,50
     d9c:	006c                	addi	a1,sp,12
     d9e:	89ba                	mv	s3,a4
     da0:	8436                	mv	s0,a3
     da2:	39b9                	jal	a00 <PARAM_ReadBlock>
     da4:	ed05                	bnez	a0,ddc <PARAM_GetTimingParametersByStripType+0x76>
     da6:	01499f63          	bne	s3,s4,dc4 <PARAM_GetTimingParametersByStripType+0x5e>
     daa:	02a15783          	lhu	a5,42(sp)
     dae:	00f91023          	sh	a5,0(s2)
     db2:	02c15783          	lhu	a5,44(sp)
     db6:	a09e                	sh	a5,0(s1)
     db8:	02e15783          	lhu	a5,46(sp)
     dbc:	a01e                	sh	a5,0(s0)
     dbe:	6121                	addi	sp,sp,64
     dc0:	b8aff06f          	j	14a <__riscv_restore_4>
     dc4:	03015783          	lhu	a5,48(sp)
     dc8:	00f91023          	sh	a5,0(s2)
     dcc:	03215783          	lhu	a5,50(sp)
     dd0:	a09e                	sh	a5,0(s1)
     dd2:	03415783          	lhu	a5,52(sp)
     dd6:	b7dd                	j	dbc <PARAM_GetTimingParametersByStripType+0x56>
     dd8:	4505                	li	a0,1
     dda:	8082                	ret
     ddc:	450d                	li	a0,3
     dde:	b7c5                	j	dbe <PARAM_GetTimingParametersByStripType+0x58>
     de0:	8082                	ret

00000de2 <PARAM_TestAll>:
     de2:	b4eff2ef          	jal	t0,130 <__riscv_save_0>
     de6:	00003537          	lui	a0,0x3
     dea:	715d                	addi	sp,sp,-80
     dec:	5a450513          	addi	a0,a0,1444 # 35a4 <_read+0x16e>
     df0:	5a2010ef          	jal	ra,2392 <puts>
     df4:	3e85                	jal	964 <PARAM_Init>
     df6:	c911                	beqz	a0,e0a <PARAM_TestAll+0x28>
     df8:	00003537          	lui	a0,0x3
     dfc:	5c050513          	addi	a0,a0,1472 # 35c0 <_read+0x18a>
     e00:	592010ef          	jal	ra,2392 <puts>
     e04:	6161                	addi	sp,sp,80
     e06:	b4eff06f          	j	154 <__riscv_restore_0>
     e0a:	00003537          	lui	a0,0x3
     e0e:	5dc50513          	addi	a0,a0,1500 # 35dc <_read+0x1a6>
     e12:	580010ef          	jal	ra,2392 <puts>
     e16:	4661                	li	a2,24
     e18:	086c                	addi	a1,sp,28
     e1a:	4501                	li	a0,0
     e1c:	36d5                	jal	a00 <PARAM_ReadBlock>
     e1e:	0e050a63          	beqz	a0,f12 <PARAM_TestAll+0x130>
     e22:	00003537          	lui	a0,0x3
     e26:	5f450513          	addi	a0,a0,1524 # 35f4 <_read+0x1be>
     e2a:	568010ef          	jal	ra,2392 <puts>
     e2e:	00003537          	lui	a0,0x3
     e32:	6e450513          	addi	a0,a0,1764 # 36e4 <_read+0x2ae>
     e36:	55c010ef          	jal	ra,2392 <puts>
     e3a:	4661                	li	a2,24
     e3c:	086c                	addi	a1,sp,28
     e3e:	4505                	li	a0,1
     e40:	36c1                	jal	a00 <PARAM_ReadBlock>
     e42:	1c050663          	beqz	a0,100e <PARAM_TestAll+0x22c>
     e46:	00003537          	lui	a0,0x3
     e4a:	6fc50513          	addi	a0,a0,1788 # 36fc <_read+0x2c6>
     e4e:	544010ef          	jal	ra,2392 <puts>
     e52:	00003537          	lui	a0,0x3
     e56:	7c050513          	addi	a0,a0,1984 # 37c0 <_read+0x38a>
     e5a:	538010ef          	jal	ra,2392 <puts>
     e5e:	03200613          	li	a2,50
     e62:	086c                	addi	a1,sp,28
     e64:	4509                	li	a0,2
     e66:	3e69                	jal	a00 <PARAM_ReadBlock>
     e68:	28050563          	beqz	a0,10f2 <PARAM_TestAll+0x310>
     e6c:	00003537          	lui	a0,0x3
     e70:	7d450513          	addi	a0,a0,2004 # 37d4 <_read+0x39e>
     e74:	51e010ef          	jal	ra,2392 <puts>
     e78:	00004537          	lui	a0,0x4
     e7c:	8a450513          	addi	a0,a0,-1884 # 38a4 <_read+0x46e>
     e80:	512010ef          	jal	ra,2392 <puts>
     e84:	087c                	addi	a5,sp,28
     e86:	01a10713          	addi	a4,sp,26
     e8a:	0834                	addi	a3,sp,24
     e8c:	01610613          	addi	a2,sp,22
     e90:	084c                	addi	a1,sp,20
     e92:	01210513          	addi	a0,sp,18
     e96:	335d                	jal	c3c <PARAM_GetDateTime>
     e98:	34050863          	beqz	a0,11e8 <PARAM_TestAll+0x406>
     e9c:	00004537          	lui	a0,0x4
     ea0:	8bc50513          	addi	a0,a0,-1860 # 38bc <_read+0x486>
     ea4:	4ee010ef          	jal	ra,2392 <puts>
     ea8:	00004537          	lui	a0,0x4
     eac:	98450513          	addi	a0,a0,-1660 # 3984 <_read+0x54e>
     eb0:	4e2010ef          	jal	ra,2392 <puts>
     eb4:	3d11                	jal	cc8 <PARAM_GetActiveBlockAddr>
     eb6:	85aa                	mv	a1,a0
     eb8:	84aa                	mv	s1,a0
     eba:	00004537          	lui	a0,0x4
     ebe:	99c50513          	addi	a0,a0,-1636 # 399c <_read+0x566>
     ec2:	3bc010ef          	jal	ra,227e <iprintf>
     ec6:	4661                	li	a2,24
     ec8:	086c                	addi	a1,sp,28
     eca:	4501                	li	a0,0
     ecc:	3e15                	jal	a00 <PARAM_ReadBlock>
     ece:	3e050563          	beqz	a0,12b8 <PARAM_TestAll+0x4d6>
     ed2:	00003537          	lui	a0,0x3
     ed6:	5f450513          	addi	a0,a0,1524 # 35f4 <_read+0x1be>
     eda:	4b8010ef          	jal	ra,2392 <puts>
     ede:	00004537          	lui	a0,0x4
     ee2:	a2050513          	addi	a0,a0,-1504 # 3a20 <_read+0x5ea>
     ee6:	4ac010ef          	jal	ra,2392 <puts>
     eea:	01210693          	addi	a3,sp,18
     eee:	0810                	addi	a2,sp,16
     ef0:	00e10593          	addi	a1,sp,14
     ef4:	4501                	li	a0,0
     ef6:	3be1                	jal	cce <PARAM_GetStripParametersByStripType>
     ef8:	42050563          	beqz	a0,1322 <PARAM_TestAll+0x540>
     efc:	00004537          	lui	a0,0x4
     f00:	a3850513          	addi	a0,a0,-1480 # 3a38 <_read+0x602>
     f04:	48e010ef          	jal	ra,2392 <puts>
     f08:	00004537          	lui	a0,0x4
     f0c:	b2c50513          	addi	a0,a0,-1236 # 3b2c <_read+0x6f6>
     f10:	bdc5                	j	e00 <PARAM_TestAll+0x1e>
     f12:	00003537          	lui	a0,0x3
     f16:	60c50513          	addi	a0,a0,1548 # 360c <_read+0x1d6>
     f1a:	478010ef          	jal	ra,2392 <puts>
     f1e:	01c14583          	lbu	a1,28(sp)
     f22:	01d14683          	lbu	a3,29(sp)
     f26:	06400793          	li	a5,100
     f2a:	02f5f633          	remu	a2,a1,a5
     f2e:	00003537          	lui	a0,0x3
     f32:	61c50513          	addi	a0,a0,1564 # 361c <_read+0x1e6>
     f36:	02f6f733          	remu	a4,a3,a5
     f3a:	02f5d5b3          	divu	a1,a1,a5
     f3e:	02f6d6b3          	divu	a3,a3,a5
     f42:	33c010ef          	jal	ra,227e <iprintf>
     f46:	02014603          	lbu	a2,32(sp)
     f4a:	47a9                	li	a5,10
     f4c:	01f14583          	lbu	a1,31(sp)
     f50:	02f676b3          	remu	a3,a2,a5
     f54:	00003537          	lui	a0,0x3
     f58:	64450513          	addi	a0,a0,1604 # 3644 <_read+0x20e>
     f5c:	02f65633          	divu	a2,a2,a5
     f60:	31e010ef          	jal	ra,227e <iprintf>
     f64:	02f14603          	lbu	a2,47(sp)
     f68:	02215583          	lhu	a1,34(sp)
     f6c:	00003537          	lui	a0,0x3
     f70:	66050513          	addi	a0,a0,1632 # 3660 <_read+0x22a>
     f74:	30a010ef          	jal	ra,227e <iprintf>
     f78:	02f14483          	lbu	s1,47(sp)
     f7c:	478d                	li	a5,3
     f7e:	02215403          	lhu	s0,34(sp)
     f82:	00148593          	addi	a1,s1,1
     f86:	02f5e5b3          	rem	a1,a1,a5
     f8a:	00a40613          	addi	a2,s0,10
     f8e:	0642                	slli	a2,a2,0x10
     f90:	00003537          	lui	a0,0x3
     f94:	8241                	srli	a2,a2,0x10
     f96:	68050513          	addi	a0,a0,1664 # 3680 <_read+0x24a>
     f9a:	02c11123          	sh	a2,34(sp)
     f9e:	02b107a3          	sb	a1,47(sp)
     fa2:	2dc010ef          	jal	ra,227e <iprintf>
     fa6:	4661                	li	a2,24
     fa8:	086c                	addi	a1,sp,28
     faa:	4501                	li	a0,0
     fac:	aabff0ef          	jal	ra,a56 <PARAM_UpdateBlock>
     fb0:	c511                	beqz	a0,fbc <PARAM_TestAll+0x1da>
     fb2:	00003537          	lui	a0,0x3
     fb6:	6a450513          	addi	a0,a0,1700 # 36a4 <_read+0x26e>
     fba:	bd85                	j	e2a <PARAM_TestAll+0x48>
     fbc:	4661                	li	a2,24
     fbe:	4581                	li	a1,0
     fc0:	0868                	addi	a0,sp,28
     fc2:	99eff0ef          	jal	ra,160 <memset>
     fc6:	4661                	li	a2,24
     fc8:	086c                	addi	a1,sp,28
     fca:	4501                	li	a0,0
     fcc:	a35ff0ef          	jal	ra,a00 <PARAM_ReadBlock>
     fd0:	e40519e3          	bnez	a0,e22 <PARAM_TestAll+0x40>
     fd4:	02f14783          	lbu	a5,47(sp)
     fd8:	00978663          	beq	a5,s1,fe4 <PARAM_TestAll+0x202>
     fdc:	02215783          	lhu	a5,34(sp)
     fe0:	02879263          	bne	a5,s0,1004 <PARAM_TestAll+0x222>
     fe4:	00003537          	lui	a0,0x3
     fe8:	6bc50513          	addi	a0,a0,1724 # 36bc <_read+0x286>
     fec:	3a6010ef          	jal	ra,2392 <puts>
     ff0:	4661                	li	a2,24
     ff2:	086c                	addi	a1,sp,28
     ff4:	4501                	li	a0,0
     ff6:	029107a3          	sb	s1,47(sp)
     ffa:	02811123          	sh	s0,34(sp)
     ffe:	a59ff0ef          	jal	ra,a56 <PARAM_UpdateBlock>
    1002:	b535                	j	e2e <PARAM_TestAll+0x4c>
    1004:	00003537          	lui	a0,0x3
    1008:	6d050513          	addi	a0,a0,1744 # 36d0 <_read+0x29a>
    100c:	b7c5                	j	fec <PARAM_TestAll+0x20a>
    100e:	00003537          	lui	a0,0x3
    1012:	71450513          	addi	a0,a0,1812 # 3714 <_read+0x2de>
    1016:	37c010ef          	jal	ra,2392 <puts>
    101a:	01f14683          	lbu	a3,31(sp)
    101e:	01e14603          	lbu	a2,30(sp)
    1022:	86ac                	lhu	a1,28(sp)
    1024:	00003537          	lui	a0,0x3
    1028:	72450513          	addi	a0,a0,1828 # 3724 <_read+0x2ee>
    102c:	252010ef          	jal	ra,227e <iprintf>
    1030:	02d10583          	lb	a1,45(sp)
    1034:	47a9                	li	a5,10
    1036:	02e10683          	lb	a3,46(sp)
    103a:	41f5d713          	srai	a4,a1,0x1f
    103e:	00b74633          	xor	a2,a4,a1
    1042:	8e19                	sub	a2,a2,a4
    1044:	02f66633          	rem	a2,a2,a5
    1048:	00003537          	lui	a0,0x3
    104c:	75050513          	addi	a0,a0,1872 # 3750 <_read+0x31a>
    1050:	02f5c5b3          	div	a1,a1,a5
    1054:	02f686b3          	mul	a3,a3,a5
    1058:	226010ef          	jal	ra,227e <iprintf>
    105c:	4795                	li	a5,5
    105e:	00003537          	lui	a0,0x3
    1062:	02d10483          	lb	s1,45(sp)
    1066:	4615                	li	a2,5
    1068:	02f106a3          	sb	a5,45(sp)
    106c:	4581                	li	a1,0
    106e:	478d                	li	a5,3
    1070:	46f9                	li	a3,30
    1072:	77850513          	addi	a0,a0,1912 # 3778 <_read+0x342>
    1076:	02e10403          	lb	s0,46(sp)
    107a:	02f10723          	sb	a5,46(sp)
    107e:	200010ef          	jal	ra,227e <iprintf>
    1082:	4661                	li	a2,24
    1084:	086c                	addi	a1,sp,28
    1086:	4505                	li	a0,1
    1088:	9cfff0ef          	jal	ra,a56 <PARAM_UpdateBlock>
    108c:	c511                	beqz	a0,1098 <PARAM_TestAll+0x2b6>
    108e:	00003537          	lui	a0,0x3
    1092:	7a850513          	addi	a0,a0,1960 # 37a8 <_read+0x372>
    1096:	bb65                	j	e4e <PARAM_TestAll+0x6c>
    1098:	4661                	li	a2,24
    109a:	4581                	li	a1,0
    109c:	0868                	addi	a0,sp,28
    109e:	8c2ff0ef          	jal	ra,160 <memset>
    10a2:	4661                	li	a2,24
    10a4:	086c                	addi	a1,sp,28
    10a6:	4505                	li	a0,1
    10a8:	959ff0ef          	jal	ra,a00 <PARAM_ReadBlock>
    10ac:	d8051de3          	bnez	a0,e46 <PARAM_TestAll+0x64>
    10b0:	5732                	lw	a4,44(sp)
    10b2:	010007b7          	lui	a5,0x1000
    10b6:	f0078793          	addi	a5,a5,-256 # ffff00 <_data_lma+0xffc17c>
    10ba:	8f7d                	and	a4,a4,a5
    10bc:	000307b7          	lui	a5,0x30
    10c0:	50078793          	addi	a5,a5,1280 # 30500 <_data_lma+0x2c77c>
    10c4:	02f70263          	beq	a4,a5,10e8 <PARAM_TestAll+0x306>
    10c8:	00003537          	lui	a0,0x3
    10cc:	6bc50513          	addi	a0,a0,1724 # 36bc <_read+0x286>
    10d0:	2c2010ef          	jal	ra,2392 <puts>
    10d4:	4661                	li	a2,24
    10d6:	086c                	addi	a1,sp,28
    10d8:	4505                	li	a0,1
    10da:	029106a3          	sb	s1,45(sp)
    10de:	02810723          	sb	s0,46(sp)
    10e2:	975ff0ef          	jal	ra,a56 <PARAM_UpdateBlock>
    10e6:	b3b5                	j	e52 <PARAM_TestAll+0x70>
    10e8:	00003537          	lui	a0,0x3
    10ec:	6d050513          	addi	a0,a0,1744 # 36d0 <_read+0x29a>
    10f0:	b7c5                	j	10d0 <PARAM_TestAll+0x2ee>
    10f2:	00003537          	lui	a0,0x3
    10f6:	7e850513          	addi	a0,a0,2024 # 37e8 <_read+0x3b2>
    10fa:	298010ef          	jal	ra,2392 <puts>
    10fe:	02215683          	lhu	a3,34(sp)
    1102:	02015603          	lhu	a2,32(sp)
    1106:	87ac                	lhu	a1,30(sp)
    1108:	00003537          	lui	a0,0x3
    110c:	7fc50513          	addi	a0,a0,2044 # 37fc <_read+0x3c6>
    1110:	16e010ef          	jal	ra,227e <iprintf>
    1114:	03615603          	lhu	a2,54(sp)
    1118:	03414583          	lbu	a1,52(sp)
    111c:	00004537          	lui	a0,0x4
    1120:	82450513          	addi	a0,a0,-2012 # 3824 <_read+0x3ee>
    1124:	15a010ef          	jal	ra,227e <iprintf>
    1128:	03e15683          	lhu	a3,62(sp)
    112c:	03c15603          	lhu	a2,60(sp)
    1130:	03a15583          	lhu	a1,58(sp)
    1134:	06400793          	li	a5,100
    1138:	02f686b3          	mul	a3,a3,a5
    113c:	00004537          	lui	a0,0x4
    1140:	83c50513          	addi	a0,a0,-1988 # 383c <_read+0x406>
    1144:	02f60633          	mul	a2,a2,a5
    1148:	02f585b3          	mul	a1,a1,a5
    114c:	132010ef          	jal	ra,227e <iprintf>
    1150:	07800793          	li	a5,120
    1154:	00004537          	lui	a0,0x4
    1158:	87a4                	lhu	s1,30(sp)
    115a:	5dc00613          	li	a2,1500
    115e:	87fc                	sh	a5,30(sp)
    1160:	07800593          	li	a1,120
    1164:	47bd                	li	a5,15
    1166:	86850513          	addi	a0,a0,-1944 # 3868 <_read+0x432>
    116a:	03a15403          	lhu	s0,58(sp)
    116e:	02f11d23          	sh	a5,58(sp)
    1172:	10c010ef          	jal	ra,227e <iprintf>
    1176:	03200613          	li	a2,50
    117a:	086c                	addi	a1,sp,28
    117c:	4509                	li	a0,2
    117e:	8d9ff0ef          	jal	ra,a56 <PARAM_UpdateBlock>
    1182:	c511                	beqz	a0,118e <PARAM_TestAll+0x3ac>
    1184:	00004537          	lui	a0,0x4
    1188:	89050513          	addi	a0,a0,-1904 # 3890 <_read+0x45a>
    118c:	b1e5                	j	e74 <PARAM_TestAll+0x92>
    118e:	03200613          	li	a2,50
    1192:	4581                	li	a1,0
    1194:	0868                	addi	a0,sp,28
    1196:	fcbfe0ef          	jal	ra,160 <memset>
    119a:	03200613          	li	a2,50
    119e:	086c                	addi	a1,sp,28
    11a0:	4509                	li	a0,2
    11a2:	85fff0ef          	jal	ra,a00 <PARAM_ReadBlock>
    11a6:	cc0513e3          	bnez	a0,e6c <PARAM_TestAll+0x8a>
    11aa:	87b8                	lhu	a4,30(sp)
    11ac:	07800793          	li	a5,120
    11b0:	00f71763          	bne	a4,a5,11be <PARAM_TestAll+0x3dc>
    11b4:	03a15703          	lhu	a4,58(sp)
    11b8:	47bd                	li	a5,15
    11ba:	02f70263          	beq	a4,a5,11de <PARAM_TestAll+0x3fc>
    11be:	00003537          	lui	a0,0x3
    11c2:	6bc50513          	addi	a0,a0,1724 # 36bc <_read+0x286>
    11c6:	1cc010ef          	jal	ra,2392 <puts>
    11ca:	03200613          	li	a2,50
    11ce:	086c                	addi	a1,sp,28
    11d0:	4509                	li	a0,2
    11d2:	87e4                	sh	s1,30(sp)
    11d4:	02811d23          	sh	s0,58(sp)
    11d8:	87fff0ef          	jal	ra,a56 <PARAM_UpdateBlock>
    11dc:	b971                	j	e78 <PARAM_TestAll+0x96>
    11de:	00003537          	lui	a0,0x3
    11e2:	6d050513          	addi	a0,a0,1744 # 36d0 <_read+0x29a>
    11e6:	b7c5                	j	11c6 <PARAM_TestAll+0x3e4>
    11e8:	01c14803          	lbu	a6,28(sp)
    11ec:	01a14783          	lbu	a5,26(sp)
    11f0:	01814703          	lbu	a4,24(sp)
    11f4:	01614683          	lbu	a3,22(sp)
    11f8:	01414603          	lbu	a2,20(sp)
    11fc:	01214583          	lbu	a1,18(sp)
    1200:	00004537          	lui	a0,0x4
    1204:	8d050513          	addi	a0,a0,-1840 # 38d0 <_read+0x49a>
    1208:	076010ef          	jal	ra,227e <iprintf>
    120c:	01814703          	lbu	a4,24(sp)
    1210:	47e1                	li	a5,24
    1212:	03c00693          	li	a3,60
    1216:	0705                	addi	a4,a4,1
    1218:	02f76733          	rem	a4,a4,a5
    121c:	01a14783          	lbu	a5,26(sp)
    1220:	01414603          	lbu	a2,20(sp)
    1224:	01214583          	lbu	a1,18(sp)
    1228:	07f9                	addi	a5,a5,30
    122a:	01c14803          	lbu	a6,28(sp)
    122e:	00004537          	lui	a0,0x4
    1232:	90050513          	addi	a0,a0,-1792 # 3900 <_read+0x4ca>
    1236:	02d7e7b3          	rem	a5,a5,a3
    123a:	01614683          	lbu	a3,22(sp)
    123e:	0ff77413          	andi	s0,a4,255
    1242:	0ff7f493          	andi	s1,a5,255
    1246:	038010ef          	jal	ra,227e <iprintf>
    124a:	01c14783          	lbu	a5,28(sp)
    124e:	01614603          	lbu	a2,22(sp)
    1252:	01414583          	lbu	a1,20(sp)
    1256:	01214503          	lbu	a0,18(sp)
    125a:	8726                	mv	a4,s1
    125c:	86a2                	mv	a3,s0
    125e:	95bff0ef          	jal	ra,bb8 <PARAM_UpdateDateTime>
    1262:	c511                	beqz	a0,126e <PARAM_TestAll+0x48c>
    1264:	00004537          	lui	a0,0x4
    1268:	93050513          	addi	a0,a0,-1744 # 3930 <_read+0x4fa>
    126c:	b925                	j	ea4 <PARAM_TestAll+0xc2>
    126e:	087c                	addi	a5,sp,28
    1270:	01a10713          	addi	a4,sp,26
    1274:	0834                	addi	a3,sp,24
    1276:	01610613          	addi	a2,sp,22
    127a:	084c                	addi	a1,sp,20
    127c:	01210513          	addi	a0,sp,18
    1280:	9bdff0ef          	jal	ra,c3c <PARAM_GetDateTime>
    1284:	c0051ce3          	bnez	a0,e9c <PARAM_TestAll+0xba>
    1288:	01814783          	lbu	a5,24(sp)
    128c:	00f41663          	bne	s0,a5,1298 <PARAM_TestAll+0x4b6>
    1290:	01a14783          	lbu	a5,26(sp)
    1294:	00f48763          	beq	s1,a5,12a2 <PARAM_TestAll+0x4c0>
    1298:	00004537          	lui	a0,0x4
    129c:	94450513          	addi	a0,a0,-1724 # 3944 <_read+0x50e>
    12a0:	b111                	j	ea4 <PARAM_TestAll+0xc2>
    12a2:	01c14683          	lbu	a3,28(sp)
    12a6:	00004537          	lui	a0,0x4
    12aa:	8626                	mv	a2,s1
    12ac:	85a2                	mv	a1,s0
    12ae:	95850513          	addi	a0,a0,-1704 # 3958 <_read+0x522>
    12b2:	7cd000ef          	jal	ra,227e <iprintf>
    12b6:	becd                	j	ea8 <PARAM_TestAll+0xc6>
    12b8:	02215403          	lhu	s0,34(sp)
    12bc:	4661                	li	a2,24
    12be:	086c                	addi	a1,sp,28
    12c0:	0405                	addi	s0,s0,1
    12c2:	02811123          	sh	s0,34(sp)
    12c6:	f90ff0ef          	jal	ra,a56 <PARAM_UpdateBlock>
    12ca:	c511                	beqz	a0,12d6 <PARAM_TestAll+0x4f4>
    12cc:	00003537          	lui	a0,0x3
    12d0:	6a450513          	addi	a0,a0,1700 # 36a4 <_read+0x26e>
    12d4:	b119                	j	eda <PARAM_TestAll+0xf8>
    12d6:	9f3ff0ef          	jal	ra,cc8 <PARAM_GetActiveBlockAddr>
    12da:	862a                	mv	a2,a0
    12dc:	00a49763          	bne	s1,a0,12ea <PARAM_TestAll+0x508>
    12e0:	00004537          	lui	a0,0x4
    12e4:	9b850513          	addi	a0,a0,-1608 # 39b8 <_read+0x582>
    12e8:	becd                	j	eda <PARAM_TestAll+0xf8>
    12ea:	00004537          	lui	a0,0x4
    12ee:	85a6                	mv	a1,s1
    12f0:	9cc50513          	addi	a0,a0,-1588 # 39cc <_read+0x596>
    12f4:	78b000ef          	jal	ra,227e <iprintf>
    12f8:	4661                	li	a2,24
    12fa:	086c                	addi	a1,sp,28
    12fc:	4501                	li	a0,0
    12fe:	f02ff0ef          	jal	ra,a00 <PARAM_ReadBlock>
    1302:	bc0518e3          	bnez	a0,ed2 <PARAM_TestAll+0xf0>
    1306:	02215783          	lhu	a5,34(sp)
    130a:	00878763          	beq	a5,s0,1318 <PARAM_TestAll+0x536>
    130e:	00004537          	lui	a0,0x4
    1312:	9f050513          	addi	a0,a0,-1552 # 39f0 <_read+0x5ba>
    1316:	b6d1                	j	eda <PARAM_TestAll+0xf8>
    1318:	00004537          	lui	a0,0x4
    131c:	a0850513          	addi	a0,a0,-1528 # 3a08 <_read+0x5d2>
    1320:	be6d                	j	eda <PARAM_TestAll+0xf8>
    1322:	80b0                	lhu	a2,16(sp)
    1324:	872c                	lhu	a1,14(sp)
    1326:	81b4                	lhu	a3,18(sp)
    1328:	00004537          	lui	a0,0x4
    132c:	a5050513          	addi	a0,a0,-1456 # 3a50 <_read+0x61a>
    1330:	74f000ef          	jal	ra,227e <iprintf>
    1334:	0850                	addi	a2,sp,20
    1336:	00d10593          	addi	a1,sp,13
    133a:	4501                	li	a0,0
    133c:	9e3ff0ef          	jal	ra,d1e <PARAM_GetMeasurementRangeByStripType>
    1340:	c511                	beqz	a0,134c <PARAM_TestAll+0x56a>
    1342:	00004537          	lui	a0,0x4
    1346:	a8050513          	addi	a0,a0,-1408 # 3a80 <_read+0x64a>
    134a:	be6d                	j	f04 <PARAM_TestAll+0x122>
    134c:	82b0                	lhu	a2,20(sp)
    134e:	868c                	lbu	a1,13(sp)
    1350:	00004537          	lui	a0,0x4
    1354:	a9850513          	addi	a0,a0,-1384 # 3a98 <_read+0x662>
    1358:	727000ef          	jal	ra,227e <iprintf>
    135c:	4705                	li	a4,1
    135e:	01a10693          	addi	a3,sp,26
    1362:	0830                	addi	a2,sp,24
    1364:	01610593          	addi	a1,sp,22
    1368:	4501                	li	a0,0
    136a:	9fdff0ef          	jal	ra,d66 <PARAM_GetTimingParametersByStripType>
    136e:	c511                	beqz	a0,137a <PARAM_TestAll+0x598>
    1370:	00004537          	lui	a0,0x4
    1374:	ab450513          	addi	a0,a0,-1356 # 3ab4 <_read+0x67e>
    1378:	b671                	j	f04 <PARAM_TestAll+0x122>
    137a:	85b4                	lhu	a3,26(sp)
    137c:	84b0                	lhu	a2,24(sp)
    137e:	83ac                	lhu	a1,22(sp)
    1380:	06400793          	li	a5,100
    1384:	02f60633          	mul	a2,a2,a5
    1388:	00004537          	lui	a0,0x4
    138c:	acc50513          	addi	a0,a0,-1332 # 3acc <_read+0x696>
    1390:	02f585b3          	mul	a1,a1,a5
    1394:	02f686b3          	mul	a3,a3,a5
    1398:	6e7000ef          	jal	ra,227e <iprintf>
    139c:	4661                	li	a2,24
    139e:	086c                	addi	a1,sp,28
    13a0:	4501                	li	a0,0
    13a2:	e5eff0ef          	jal	ra,a00 <PARAM_ReadBlock>
    13a6:	02215403          	lhu	s0,34(sp)
    13aa:	8f7ff0ef          	jal	ra,ca0 <PARAM_IncreaseTestCount>
    13ae:	c511                	beqz	a0,13ba <PARAM_TestAll+0x5d8>
    13b0:	00004537          	lui	a0,0x4
    13b4:	b0050513          	addi	a0,a0,-1280 # 3b00 <_read+0x6ca>
    13b8:	b6b1                	j	f04 <PARAM_TestAll+0x122>
    13ba:	086c                	addi	a1,sp,28
    13bc:	4661                	li	a2,24
    13be:	e42ff0ef          	jal	ra,a00 <PARAM_ReadBlock>
    13c2:	02215603          	lhu	a2,34(sp)
    13c6:	00004537          	lui	a0,0x4
    13ca:	85a2                	mv	a1,s0
    13cc:	b1450513          	addi	a0,a0,-1260 # 3b14 <_read+0x6de>
    13d0:	6af000ef          	jal	ra,227e <iprintf>
    13d4:	4661                	li	a2,24
    13d6:	086c                	addi	a1,sp,28
    13d8:	4501                	li	a0,0
    13da:	02811123          	sh	s0,34(sp)
    13de:	e78ff0ef          	jal	ra,a56 <PARAM_UpdateBlock>
    13e2:	b61d                	j	f08 <PARAM_TestAll+0x126>

000013e4 <SystemInit>:
    13e4:	400217b7          	lui	a5,0x40021
    13e8:	4398                	lw	a4,0(a5)
    13ea:	f0ff06b7          	lui	a3,0xf0ff0
    13ee:	00176713          	ori	a4,a4,1
    13f2:	c398                	sw	a4,0(a5)
    13f4:	43d8                	lw	a4,4(a5)
    13f6:	8f75                	and	a4,a4,a3
    13f8:	c3d8                	sw	a4,4(a5)
    13fa:	4398                	lw	a4,0(a5)
    13fc:	fef706b7          	lui	a3,0xfef70
    1400:	16fd                	addi	a3,a3,-1
    1402:	8f75                	and	a4,a4,a3
    1404:	c398                	sw	a4,0(a5)
    1406:	4398                	lw	a4,0(a5)
    1408:	fffc06b7          	lui	a3,0xfffc0
    140c:	16fd                	addi	a3,a3,-1
    140e:	8f75                	and	a4,a4,a3
    1410:	c398                	sw	a4,0(a5)
    1412:	43d8                	lw	a4,4(a5)
    1414:	ff0106b7          	lui	a3,0xff010
    1418:	16fd                	addi	a3,a3,-1
    141a:	8f75                	and	a4,a4,a3
    141c:	c3d8                	sw	a4,4(a5)
    141e:	009f0737          	lui	a4,0x9f0
    1422:	c798                	sw	a4,8(a5)
    1424:	400246b7          	lui	a3,0x40024
    1428:	8006a703          	lw	a4,-2048(a3) # 40023800 <_eusrstack+0x2001e800>
    142c:	01076713          	ori	a4,a4,16
    1430:	80e6a023          	sw	a4,-2048(a3)
    1434:	43d8                	lw	a4,4(a5)
    1436:	ffc106b7          	lui	a3,0xffc10
    143a:	16fd                	addi	a3,a3,-1
    143c:	c3d8                	sw	a4,4(a5)
    143e:	43d8                	lw	a4,4(a5)
    1440:	c3d8                	sw	a4,4(a5)
    1442:	43d8                	lw	a4,4(a5)
    1444:	40076713          	ori	a4,a4,1024
    1448:	c3d8                	sw	a4,4(a5)
    144a:	43d8                	lw	a4,4(a5)
    144c:	8f75                	and	a4,a4,a3
    144e:	c3d8                	sw	a4,4(a5)
    1450:	43d8                	lw	a4,4(a5)
    1452:	003c06b7          	lui	a3,0x3c0
    1456:	8f55                	or	a4,a4,a3
    1458:	c3d8                	sw	a4,4(a5)
    145a:	4398                	lw	a4,0(a5)
    145c:	010006b7          	lui	a3,0x1000
    1460:	8f55                	or	a4,a4,a3
    1462:	c398                	sw	a4,0(a5)
    1464:	4398                	lw	a4,0(a5)
    1466:	00671693          	slli	a3,a4,0x6
    146a:	fe06dde3          	bgez	a3,1464 <SystemInit+0x80>
    146e:	43d8                	lw	a4,4(a5)
    1470:	400216b7          	lui	a3,0x40021
    1474:	9b71                	andi	a4,a4,-4
    1476:	c3d8                	sw	a4,4(a5)
    1478:	43d8                	lw	a4,4(a5)
    147a:	00276713          	ori	a4,a4,2
    147e:	c3d8                	sw	a4,4(a5)
    1480:	4721                	li	a4,8
    1482:	42dc                	lw	a5,4(a3)
    1484:	8bb1                	andi	a5,a5,12
    1486:	fee79ee3          	bne	a5,a4,1482 <SystemInit+0x9e>
    148a:	8082                	ret

0000148c <SystemCoreClockUpdate>:
    148c:	400216b7          	lui	a3,0x40021
    1490:	42dc                	lw	a5,4(a3)
    1492:	4611                	li	a2,4
    1494:	8bb1                	andi	a5,a5,12
    1496:	80418713          	addi	a4,gp,-2044 # 20000084 <SystemCoreClock>
    149a:	00c78563          	beq	a5,a2,14a4 <SystemCoreClockUpdate+0x18>
    149e:	4621                	li	a2,8
    14a0:	02c78863          	beq	a5,a2,14d0 <SystemCoreClockUpdate+0x44>
    14a4:	007a17b7          	lui	a5,0x7a1
    14a8:	20078793          	addi	a5,a5,512 # 7a1200 <_data_lma+0x79d47c>
    14ac:	c31c                	sw	a5,0(a4)
    14ae:	400217b7          	lui	a5,0x40021
    14b2:	43dc                	lw	a5,4(a5)
    14b4:	8391                	srli	a5,a5,0x4
    14b6:	00f7f693          	andi	a3,a5,15
    14ba:	200007b7          	lui	a5,0x20000
    14be:	00078793          	mv	a5,a5
    14c2:	97b6                	add	a5,a5,a3
    14c4:	2394                	lbu	a3,0(a5)
    14c6:	431c                	lw	a5,0(a4)
    14c8:	00d7d7b3          	srl	a5,a5,a3
    14cc:	c31c                	sw	a5,0(a4)
    14ce:	8082                	ret
    14d0:	42dc                	lw	a5,4(a3)
    14d2:	42d4                	lw	a3,4(a3)
    14d4:	6641                	lui	a2,0x10
    14d6:	83c9                	srli	a5,a5,0x12
    14d8:	8bbd                	andi	a5,a5,15
    14da:	8ef1                	and	a3,a3,a2
    14dc:	0789                	addi	a5,a5,2
    14de:	4645                	li	a2,17
    14e0:	00c79363          	bne	a5,a2,14e6 <SystemCoreClockUpdate+0x5a>
    14e4:	47c9                	li	a5,18
    14e6:	ee81                	bnez	a3,14fe <SystemCoreClockUpdate+0x72>
    14e8:	400246b7          	lui	a3,0x40024
    14ec:	8006a683          	lw	a3,-2048(a3) # 40023800 <_eusrstack+0x2001e800>
    14f0:	8ac1                	andi	a3,a3,16
    14f2:	ce89                	beqz	a3,150c <SystemCoreClockUpdate+0x80>
    14f4:	007a16b7          	lui	a3,0x7a1
    14f8:	20068693          	addi	a3,a3,512 # 7a1200 <_data_lma+0x79d47c>
    14fc:	a821                	j	1514 <SystemCoreClockUpdate+0x88>
    14fe:	400216b7          	lui	a3,0x40021
    1502:	42d4                	lw	a3,4(a3)
    1504:	00e69613          	slli	a2,a3,0xe
    1508:	fe0656e3          	bgez	a2,14f4 <SystemCoreClockUpdate+0x68>
    150c:	003d16b7          	lui	a3,0x3d1
    1510:	90068693          	addi	a3,a3,-1792 # 3d0900 <_data_lma+0x3ccb7c>
    1514:	02d787b3          	mul	a5,a5,a3
    1518:	bf51                	j	14ac <SystemCoreClockUpdate+0x20>

0000151a <UART_Protocol_Init>:
    151a:	c17fe2ef          	jal	t0,130 <__riscv_save_0>
    151e:	84019a23          	sh	zero,-1964(gp) # 200000d4 <rx_index>
    1522:	84018123          	sb	zero,-1982(gp) # 200000c2 <frame_parsing>
    1526:	00fa1737          	lui	a4,0xfa1
    152a:	83818793          	addi	a5,gp,-1992 # 200000b8 <device_status>
    152e:	bb870713          	addi	a4,a4,-1096 # fa0bb8 <_data_lma+0xf9ce34>
    1532:	0007a023          	sw	zero,0(a5) # 20000000 <_data_vma>
    1536:	c3d8                	sw	a4,4(a5)
    1538:	84418793          	addi	a5,gp,-1980 # 200000c4 <measure_param>
    153c:	00078023          	sb	zero,0(a5)
    1540:	00079123          	sh	zero,2(a5)
    1544:	82018aa3          	sb	zero,-1995(gp) # 200000b5 <blood_sampling_active>
    1548:	00004537          	lui	a0,0x4
    154c:	82018a23          	sb	zero,-1996(gp) # 200000b4 <blood_countdown_seconds>
    1550:	b5c50513          	addi	a0,a0,-1188 # 3b5c <_read+0x726>
    1554:	84019423          	sh	zero,-1976(gp) # 200000c8 <raw_data_length>
    1558:	63b000ef          	jal	ra,2392 <puts>
    155c:	bf9fe06f          	j	154 <__riscv_restore_0>

00001560 <UART_Protocol_CalcChecksum>:
    1560:	4781                	li	a5,0
    1562:	0ff7f713          	andi	a4,a5,255
    1566:	00c76363          	bltu	a4,a2,156c <UART_Protocol_CalcChecksum+0xc>
    156a:	8082                	ret
    156c:	00f58733          	add	a4,a1,a5
    1570:	2318                	lbu	a4,0(a4)
    1572:	0785                	addi	a5,a5,1
    1574:	953a                	add	a0,a0,a4
    1576:	0ff57513          	andi	a0,a0,255
    157a:	b7e5                	j	1562 <UART_Protocol_CalcChecksum+0x2>

0000157c <UART_Protocol_PackFrame>:
    157c:	b9bfe2ef          	jal	t0,116 <__riscv_save_4>
    1580:	8436                	mv	s0,a3
    1582:	8a2a                	mv	s4,a0
    1584:	84b2                	mv	s1,a2
    1586:	892e                	mv	s2,a1
    1588:	3fe1                	jal	1560 <UART_Protocol_CalcChecksum>
    158a:	faa00793          	li	a5,-86
    158e:	a01c                	sb	a5,0(s0)
    1590:	014400a3          	sb	s4,1(s0)
    1594:	a024                	sb	s1,2(s0)
    1596:	89aa                	mv	s3,a0
    1598:	450d                	li	a0,3
    159a:	c899                	beqz	s1,15b0 <UART_Protocol_PackFrame+0x34>
    159c:	00090a63          	beqz	s2,15b0 <UART_Protocol_PackFrame+0x34>
    15a0:	8626                	mv	a2,s1
    15a2:	85ca                	mv	a1,s2
    15a4:	00340513          	addi	a0,s0,3
    15a8:	425000ef          	jal	ra,21cc <memcpy>
    15ac:	00348513          	addi	a0,s1,3
    15b0:	00a407b3          	add	a5,s0,a0
    15b4:	01378023          	sb	s3,0(a5)
    15b8:	843e                	mv	s0,a5
    15ba:	05500793          	li	a5,85
    15be:	b01c                	sb	a5,1(s0)
    15c0:	0509                	addi	a0,a0,2
    15c2:	b89fe06f          	j	14a <__riscv_restore_4>

000015c6 <UART_Protocol_SendFrame>:
    15c6:	b51fe2ef          	jal	t0,116 <__riscv_save_4>
    15ca:	a1818693          	addi	a3,gp,-1512 # 20000298 <tx_buffer>
    15ce:	377d                	jal	157c <UART_Protocol_PackFrame>
    15d0:	40004937          	lui	s2,0x40004
    15d4:	89aa                	mv	s3,a0
    15d6:	4401                	li	s0,0
    15d8:	a1818493          	addi	s1,gp,-1512 # 20000298 <tx_buffer>
    15dc:	40090913          	addi	s2,s2,1024 # 40004400 <_eusrstack+0x1ffff400>
    15e0:	01041793          	slli	a5,s0,0x10
    15e4:	83c1                	srli	a5,a5,0x10
    15e6:	0137e463          	bltu	a5,s3,15ee <UART_Protocol_SendFrame+0x28>
    15ea:	b61fe06f          	j	14a <__riscv_restore_4>
    15ee:	008487b3          	add	a5,s1,s0
    15f2:	238c                	lbu	a1,0(a5)
    15f4:	854a                	mv	a0,s2
    15f6:	255000ef          	jal	ra,204a <USART_SendData>
    15fa:	08000593          	li	a1,128
    15fe:	854a                	mv	a0,s2
    1600:	25b000ef          	jal	ra,205a <USART_GetFlagStatus>
    1604:	d97d                	beqz	a0,15fa <UART_Protocol_SendFrame+0x34>
    1606:	0405                	addi	s0,s0,1
    1608:	bfe1                	j	15e0 <UART_Protocol_SendFrame+0x1a>

0000160a <UART_Protocol_SendErrorResponse>:
    160a:	b27fe2ef          	jal	t0,130 <__riscv_save_0>
    160e:	1141                	addi	sp,sp,-16
    1610:	842a                	mv	s0,a0
    1612:	84ae                	mv	s1,a1
    1614:	8648                	sb	a0,12(sp)
    1616:	86cc                	sb	a1,13(sp)
    1618:	4609                	li	a2,2
    161a:	006c                	addi	a1,sp,12
    161c:	0ff00513          	li	a0,255
    1620:	375d                	jal	15c6 <UART_Protocol_SendFrame>
    1622:	00004537          	lui	a0,0x4
    1626:	8626                	mv	a2,s1
    1628:	85a2                	mv	a1,s0
    162a:	b9c50513          	addi	a0,a0,-1124 # 3b9c <_read+0x766>
    162e:	451000ef          	jal	ra,227e <iprintf>
    1632:	0141                	addi	sp,sp,16
    1634:	b21fe06f          	j	154 <__riscv_restore_0>

00001638 <UART_Protocol_ProcessCommand>:
    1638:	af9fe2ef          	jal	t0,130 <__riscv_save_0>
    163c:	892a                	mv	s2,a0
    163e:	842e                	mv	s0,a1
    1640:	85aa                	mv	a1,a0
    1642:	00004537          	lui	a0,0x4
    1646:	b7850513          	addi	a0,a0,-1160 # 3b78 <_read+0x742>
    164a:	84b2                	mv	s1,a2
    164c:	433000ef          	jal	ra,227e <iprintf>
    1650:	fff90793          	addi	a5,s2,-1
    1654:	0ff7f793          	andi	a5,a5,255
    1658:	4715                	li	a4,5
    165a:	02f76863          	bltu	a4,a5,168a <UART_Protocol_ProcessCommand+0x52>
    165e:	6711                	lui	a4,0x4
    1660:	078a                	slli	a5,a5,0x2
    1662:	b4470713          	addi	a4,a4,-1212 # 3b44 <_read+0x70e>
    1666:	97ba                	add	a5,a5,a4
    1668:	439c                	lw	a5,0(a5)
    166a:	85a6                	mv	a1,s1
    166c:	8522                	mv	a0,s0
    166e:	8782                	jr	a5
    1670:	2a01                	jal	1780 <UART_Protocol_HandleSyncTime>
    1672:	ae3fe06f          	j	154 <__riscv_restore_0>
    1676:	2a85                	jal	17e6 <UART_Protocol_HandleRequestStatus>
    1678:	bfed                	j	1672 <UART_Protocol_ProcessCommand+0x3a>
    167a:	2ae9                	jal	1854 <UART_Protocol_HandleSetCodeEvent>
    167c:	bfdd                	j	1672 <UART_Protocol_ProcessCommand+0x3a>
    167e:	2c3d                	jal	18bc <UART_Protocol_HandleBloodSampleCheck>
    1680:	bfcd                	j	1672 <UART_Protocol_ProcessCommand+0x3a>
    1682:	2e19                	jal	1998 <UART_Protocol_HandleRequestResult>
    1684:	b7fd                	j	1672 <UART_Protocol_ProcessCommand+0x3a>
    1686:	26fd                	jal	1a74 <UART_Protocol_HandleRequestRawData>
    1688:	b7ed                	j	1672 <UART_Protocol_ProcessCommand+0x3a>
    168a:	45b9                	li	a1,14
    168c:	854a                	mv	a0,s2
    168e:	3fb5                	jal	160a <UART_Protocol_SendErrorResponse>
    1690:	b7cd                	j	1672 <UART_Protocol_ProcessCommand+0x3a>

00001692 <UART_Protocol_Parse>:
    1692:	a6ffe2ef          	jal	t0,100 <__riscv_save_12>
    1696:	1141                	addi	sp,sp,-16
    1698:	99818c13          	addi	s8,gp,-1640 # 20000218 <rx_buffer>
    169c:	8caa                	mv	s9,a0
    169e:	c22e                	sw	a1,4(sp)
    16a0:	4481                	li	s1,0
    16a2:	4505                	li	a0,1
    16a4:	4d0d                	li	s10,3
    16a6:	003c0b13          	addi	s6,s8,3
    16aa:	4792                	lw	a5,4(sp)
    16ac:	01049713          	slli	a4,s1,0x10
    16b0:	8341                	srli	a4,a4,0x10
    16b2:	00f76563          	bltu	a4,a5,16bc <UART_Protocol_Parse+0x2a>
    16b6:	0141                	addi	sp,sp,16
    16b8:	a85fe06f          	j	13c <__riscv_restore_12>
    16bc:	009c8733          	add	a4,s9,s1
    16c0:	2310                	lbu	a2,0(a4)
    16c2:	84218713          	addi	a4,gp,-1982 # 200000c2 <frame_parsing>
    16c6:	2314                	lbu	a3,0(a4)
    16c8:	84218b93          	addi	s7,gp,-1982 # 200000c2 <frame_parsing>
    16cc:	e285                	bnez	a3,16ec <UART_Protocol_Parse+0x5a>
    16ce:	0aa00693          	li	a3,170
    16d2:	00d61b63          	bne	a2,a3,16e8 <UART_Protocol_Parse+0x56>
    16d6:	4685                	li	a3,1
    16d8:	a314                	sb	a3,0(a4)
    16da:	4705                	li	a4,1
    16dc:	84e19a23          	sh	a4,-1964(gp) # 200000d4 <rx_index>
    16e0:	faa00713          	li	a4,-86
    16e4:	00ec0023          	sb	a4,0(s8)
    16e8:	0485                	addi	s1,s1,1
    16ea:	b7c1                	j	16aa <UART_Protocol_Parse+0x18>
    16ec:	85418693          	addi	a3,gp,-1964 # 200000d4 <rx_index>
    16f0:	229a                	lhu	a4,0(a3)
    16f2:	85418d93          	addi	s11,gp,-1964 # 200000d4 <rx_index>
    16f6:	00170413          	addi	s0,a4,1
    16fa:	0442                	slli	s0,s0,0x10
    16fc:	8041                	srli	s0,s0,0x10
    16fe:	9762                	add	a4,a4,s8
    1700:	a282                	sh	s0,0(a3)
    1702:	a310                	sb	a2,0(a4)
    1704:	03a41463          	bne	s0,s10,172c <UART_Protocol_Parse+0x9a>
    1708:	001c4703          	lbu	a4,1(s8)
    170c:	84e18023          	sb	a4,-1984(gp) # 200000c0 <frame_cmd_id>
    1710:	002c4703          	lbu	a4,2(s8)
    1714:	84e180a3          	sb	a4,-1983(gp) # 200000c1 <frame_length>
    1718:	000dd683          	lhu	a3,0(s11)
    171c:	07f00713          	li	a4,127
    1720:	fcd774e3          	bgeu	a4,a3,16e8 <UART_Protocol_Parse+0x56>
    1724:	000b8023          	sb	zero,0(s7)
    1728:	4509                	li	a0,2
    172a:	bf7d                	j	16e8 <UART_Protocol_Parse+0x56>
    172c:	4711                	li	a4,4
    172e:	fe8775e3          	bgeu	a4,s0,1718 <UART_Protocol_Parse+0x86>
    1732:	8411c683          	lbu	a3,-1983(gp) # 200000c1 <frame_length>
    1736:	00568713          	addi	a4,a3,5
    173a:	fce41fe3          	bne	s0,a4,1718 <UART_Protocol_Parse+0x86>
    173e:	05500593          	li	a1,85
    1742:	8401c703          	lbu	a4,-1984(gp) # 200000c0 <frame_cmd_id>
    1746:	02b61863          	bne	a2,a1,1776 <UART_Protocol_Parse+0xe4>
    174a:	8636                	mv	a2,a3
    174c:	85da                	mv	a1,s6
    174e:	853a                	mv	a0,a4
    1750:	c636                	sw	a3,12(sp)
    1752:	c43a                	sw	a4,8(sp)
    1754:	9462                	add	s0,s0,s8
    1756:	3529                	jal	1560 <UART_Protocol_CalcChecksum>
    1758:	ffe44603          	lbu	a2,-2(s0)
    175c:	4722                	lw	a4,8(sp)
    175e:	46b2                	lw	a3,12(sp)
    1760:	45b5                	li	a1,13
    1762:	00a61b63          	bne	a2,a0,1778 <UART_Protocol_Parse+0xe6>
    1766:	853a                	mv	a0,a4
    1768:	8636                	mv	a2,a3
    176a:	85da                	mv	a1,s6
    176c:	35f1                	jal	1638 <UART_Protocol_ProcessCommand>
    176e:	4501                	li	a0,0
    1770:	000b8023          	sb	zero,0(s7)
    1774:	b755                	j	1718 <UART_Protocol_Parse+0x86>
    1776:	45b1                	li	a1,12
    1778:	853a                	mv	a0,a4
    177a:	3d41                	jal	160a <UART_Protocol_SendErrorResponse>
    177c:	4509                	li	a0,2
    177e:	bfcd                	j	1770 <UART_Protocol_Parse+0xde>

00001780 <UART_Protocol_HandleSyncTime>:
    1780:	9b1fe2ef          	jal	t0,130 <__riscv_save_0>
    1784:	1141                	addi	sp,sp,-16
    1786:	000107a3          	sb	zero,15(sp)
    178a:	479d                	li	a5,7
    178c:	00f58863          	beq	a1,a5,179c <UART_Protocol_HandleSyncTime+0x1c>
    1790:	45b1                	li	a1,12
    1792:	4505                	li	a0,1
    1794:	3d9d                	jal	160a <UART_Protocol_SendErrorResponse>
    1796:	0141                	addi	sp,sp,16
    1798:	9bdfe06f          	j	154 <__riscv_restore_0>
    179c:	210c                	lbu	a1,0(a0)
    179e:	311c                	lbu	a5,1(a0)
    17a0:	2130                	lbu	a2,2(a0)
    17a2:	05a2                	slli	a1,a1,0x8
    17a4:	3134                	lbu	a3,3(a0)
    17a6:	2158                	lbu	a4,4(a0)
    17a8:	8ddd                	or	a1,a1,a5
    17aa:	00654803          	lbu	a6,6(a0)
    17ae:	315c                	lbu	a5,5(a0)
    17b0:	00004537          	lui	a0,0x4
    17b4:	84b19623          	sh	a1,-1972(gp) # 200000cc <rtc_time>
    17b8:	cb850513          	addi	a0,a0,-840 # 3cb8 <_read+0x882>
    17bc:	84c18893          	addi	a7,gp,-1972 # 200000cc <rtc_time>
    17c0:	00c88123          	sb	a2,2(a7)
    17c4:	00d881a3          	sb	a3,3(a7)
    17c8:	00e88223          	sb	a4,4(a7)
    17cc:	00f882a3          	sb	a5,5(a7)
    17d0:	01088323          	sb	a6,6(a7)
    17d4:	2ab000ef          	jal	ra,227e <iprintf>
    17d8:	4605                	li	a2,1
    17da:	00f10593          	addi	a1,sp,15
    17de:	08100513          	li	a0,129
    17e2:	33d5                	jal	15c6 <UART_Protocol_SendFrame>
    17e4:	bf4d                	j	1796 <UART_Protocol_HandleSyncTime+0x16>

000017e6 <UART_Protocol_HandleRequestStatus>:
    17e6:	94bfe2ef          	jal	t0,130 <__riscv_save_0>
    17ea:	8381d583          	lhu	a1,-1992(gp) # 200000b8 <device_status>
    17ee:	6705                	lui	a4,0x1
    17f0:	83818793          	addi	a5,gp,-1992 # 200000b8 <device_status>
    17f4:	bb870713          	addi	a4,a4,-1096 # bb8 <PARAM_UpdateDateTime>
    17f8:	23b2                	lhu	a2,2(a5)
    17fa:	a3da                	sh	a4,4(a5)
    17fc:	0fa00713          	li	a4,250
    1800:	0085d693          	srli	a3,a1,0x8
    1804:	a3fa                	sh	a4,6(a5)
    1806:	00859713          	slli	a4,a1,0x8
    180a:	1141                	addi	sp,sp,-16
    180c:	8f55                	or	a4,a4,a3
    180e:	8478                	sh	a4,8(sp)
    1810:	00861793          	slli	a5,a2,0x8
    1814:	00865713          	srli	a4,a2,0x8
    1818:	8fd9                	or	a5,a5,a4
    181a:	857c                	sh	a5,10(sp)
    181c:	fa00c7b7          	lui	a5,0xfa00c
    1820:	80b78793          	addi	a5,a5,-2037 # fa00b80b <_eusrstack+0xda00680b>
    1824:	c63e                	sw	a5,12(sp)
    1826:	000047b7          	lui	a5,0x4
    182a:	c487a703          	lw	a4,-952(a5) # 3c48 <_read+0x812>
    182e:	c4c7a783          	lw	a5,-948(a5)
    1832:	6685                	lui	a3,0x1
    1834:	00004537          	lui	a0,0x4
    1838:	bb868693          	addi	a3,a3,-1096 # bb8 <PARAM_UpdateDateTime>
    183c:	c5050513          	addi	a0,a0,-944 # 3c50 <_read+0x81a>
    1840:	23f000ef          	jal	ra,227e <iprintf>
    1844:	002c                	addi	a1,sp,8
    1846:	4621                	li	a2,8
    1848:	08200513          	li	a0,130
    184c:	3bad                	jal	15c6 <UART_Protocol_SendFrame>
    184e:	0141                	addi	sp,sp,16
    1850:	905fe06f          	j	154 <__riscv_restore_0>

00001854 <UART_Protocol_HandleSetCodeEvent>:
    1854:	8ddfe2ef          	jal	t0,130 <__riscv_save_0>
    1858:	1141                	addi	sp,sp,-16
    185a:	000107a3          	sb	zero,15(sp)
    185e:	478d                	li	a5,3
    1860:	00f58863          	beq	a1,a5,1870 <UART_Protocol_HandleSetCodeEvent+0x1c>
    1864:	45b1                	li	a1,12
    1866:	450d                	li	a0,3
    1868:	334d                	jal	160a <UART_Protocol_SendErrorResponse>
    186a:	0141                	addi	sp,sp,16
    186c:	8e9fe06f          	j	154 <__riscv_restore_0>
    1870:	3110                	lbu	a2,1(a0)
    1872:	210c                	lbu	a1,0(a0)
    1874:	2138                	lbu	a4,2(a0)
    1876:	0622                	slli	a2,a2,0x8
    1878:	00004537          	lui	a0,0x4
    187c:	8e59                	or	a2,a2,a4
    187e:	84b18223          	sb	a1,-1980(gp) # 200000c4 <measure_param>
    1882:	c9c50513          	addi	a0,a0,-868 # 3c9c <_read+0x866>
    1886:	84418793          	addi	a5,gp,-1980 # 200000c4 <measure_param>
    188a:	a3b2                	sh	a2,2(a5)
    188c:	1f3000ef          	jal	ra,227e <iprintf>
    1890:	4605                	li	a2,1
    1892:	00f10593          	addi	a1,sp,15
    1896:	08300513          	li	a0,131
    189a:	d2dff0ef          	jal	ra,15c6 <UART_Protocol_SendFrame>
    189e:	b7f1                	j	186a <UART_Protocol_HandleSetCodeEvent+0x16>

000018a0 <UART_Protocol_SendBloodSampleNotify>:
    18a0:	891fe2ef          	jal	t0,130 <__riscv_save_0>
    18a4:	1141                	addi	sp,sp,-16
    18a6:	87c8                	sb	a0,15(sp)
    18a8:	00f10593          	addi	a1,sp,15
    18ac:	4605                	li	a2,1
    18ae:	08400513          	li	a0,132
    18b2:	d15ff0ef          	jal	ra,15c6 <UART_Protocol_SendFrame>
    18b6:	0141                	addi	sp,sp,16
    18b8:	89dfe06f          	j	154 <__riscv_restore_0>

000018bc <UART_Protocol_HandleBloodSampleCheck>:
    18bc:	875fe2ef          	jal	t0,130 <__riscv_save_0>
    18c0:	83a1d783          	lhu	a5,-1990(gp) # 200000ba <device_status+0x2>
    18c4:	c799                	beqz	a5,18d2 <UART_Protocol_HandleBloodSampleCheck+0x16>
    18c6:	4599                	li	a1,6
    18c8:	4511                	li	a0,4
    18ca:	d41ff0ef          	jal	ra,160a <UART_Protocol_SendErrorResponse>
    18ce:	887fe06f          	j	154 <__riscv_restore_0>
    18d2:	4705                	li	a4,1
    18d4:	00004537          	lui	a0,0x4
    18d8:	82e18aa3          	sb	a4,-1995(gp) # 200000b5 <blood_sampling_active>
    18dc:	4795                	li	a5,5
    18de:	4595                	li	a1,5
    18e0:	bc450513          	addi	a0,a0,-1084 # 3bc4 <_read+0x78e>
    18e4:	82f18a23          	sb	a5,-1996(gp) # 200000b4 <blood_countdown_seconds>
    18e8:	197000ef          	jal	ra,227e <iprintf>
    18ec:	8341c503          	lbu	a0,-1996(gp) # 200000b4 <blood_countdown_seconds>
    18f0:	3f45                	jal	18a0 <UART_Protocol_SendBloodSampleNotify>
    18f2:	bff1                	j	18ce <UART_Protocol_HandleBloodSampleCheck+0x12>

000018f4 <UART_Protocol_SendResult>:
    18f4:	83dfe2ef          	jal	t0,130 <__riscv_save_0>
    18f8:	211e                	lhu	a5,0(a0)
    18fa:	1101                	addi	sp,sp,-32
    18fc:	004c                	addi	a1,sp,4
    18fe:	00879713          	slli	a4,a5,0x8
    1902:	83a1                	srli	a5,a5,0x8
    1904:	8fd9                	or	a5,a5,a4
    1906:	827c                	sh	a5,4(sp)
    1908:	213e                	lhu	a5,2(a0)
    190a:	000107a3          	sb	zero,15(sp)
    190e:	000108a3          	sb	zero,17(sp)
    1912:	00879713          	slli	a4,a5,0x8
    1916:	83a1                	srli	a5,a5,0x8
    1918:	8fd9                	or	a5,a5,a4
    191a:	837c                	sh	a5,6(sp)
    191c:	215e                	lhu	a5,4(a0)
    191e:	000109a3          	sb	zero,19(sp)
    1922:	00010aa3          	sb	zero,21(sp)
    1926:	00879713          	slli	a4,a5,0x8
    192a:	83a1                	srli	a5,a5,0x8
    192c:	8fd9                	or	a5,a5,a4
    192e:	847c                	sh	a5,8(sp)
    1930:	217e                	lhu	a5,6(a0)
    1932:	00010ba3          	sb	zero,23(sp)
    1936:	4665                	li	a2,25
    1938:	00879713          	slli	a4,a5,0x8
    193c:	83a1                	srli	a5,a5,0x8
    193e:	8fd9                	or	a5,a5,a4
    1940:	857c                	sh	a5,10(sp)
    1942:	251c                	lbu	a5,8(a0)
    1944:	865c                	sb	a5,12(sp)
    1946:	253e                	lhu	a5,10(a0)
    1948:	0087d713          	srli	a4,a5,0x8
    194c:	875c                	sb	a5,14(sp)
    194e:	255c                	lbu	a5,12(a0)
    1950:	86d8                	sb	a4,13(sp)
    1952:	00f10823          	sb	a5,16(sp)
    1956:	355c                	lbu	a5,13(a0)
    1958:	00f10923          	sb	a5,18(sp)
    195c:	257c                	lbu	a5,14(a0)
    195e:	00f10a23          	sb	a5,20(sp)
    1962:	357c                	lbu	a5,15(a0)
    1964:	00f10b23          	sb	a5,22(sp)
    1968:	291c                	lbu	a5,16(a0)
    196a:	00f10c23          	sb	a5,24(sp)
    196e:	293e                	lhu	a5,18(a0)
    1970:	0087d713          	srli	a4,a5,0x8
    1974:	00f10d23          	sb	a5,26(sp)
    1978:	295e                	lhu	a5,20(a0)
    197a:	00e10ca3          	sb	a4,25(sp)
    197e:	08500513          	li	a0,133
    1982:	0087d713          	srli	a4,a5,0x8
    1986:	00e10da3          	sb	a4,27(sp)
    198a:	00f10e23          	sb	a5,28(sp)
    198e:	c39ff0ef          	jal	ra,15c6 <UART_Protocol_SendFrame>
    1992:	6105                	addi	sp,sp,32
    1994:	fc0fe06f          	j	154 <__riscv_restore_0>

00001998 <UART_Protocol_HandleRequestResult>:
    1998:	f7efe2ef          	jal	t0,116 <__riscv_save_4>
    199c:	8351c783          	lbu	a5,-1995(gp) # 200000b5 <blood_sampling_active>
    19a0:	1141                	addi	sp,sp,-16
    19a2:	cb81                	beqz	a5,19b2 <UART_Protocol_HandleRequestResult+0x1a>
    19a4:	45a1                	li	a1,8
    19a6:	4515                	li	a0,5
    19a8:	c63ff0ef          	jal	ra,160a <UART_Protocol_SendErrorResponse>
    19ac:	0141                	addi	sp,sp,16
    19ae:	f9cfe06f          	j	14a <__riscv_restore_4>
    19b2:	84418713          	addi	a4,gp,-1980 # 200000c4 <measure_param>
    19b6:	80818913          	addi	s2,gp,-2040 # 20000088 <simulate_measure_value>
    19ba:	2336                	lhu	a3,2(a4)
    19bc:	00095a03          	lhu	s4,0(s2)
    19c0:	8381da83          	lhu	s5,-1992(gp) # 200000b8 <device_status>
    19c4:	8441c783          	lbu	a5,-1980(gp) # 200000c4 <measure_param>
    19c8:	94c18413          	addi	s0,gp,-1716 # 200001cc <measure_result>
    19cc:	4621                	li	a2,8
    19ce:	84c18593          	addi	a1,gp,-1972 # 200000cc <rtc_time>
    19d2:	00a40513          	addi	a0,s0,10
    19d6:	a076                	sh	a3,6(s0)
    19d8:	c636                	sw	a3,12(sp)
    19da:	a41c                	sb	a5,8(s0)
    19dc:	83818993          	addi	s3,gp,-1992 # 200000b8 <device_status>
    19e0:	94019623          	sh	zero,-1716(gp) # 200001cc <measure_result>
    19e4:	01441123          	sh	s4,2(s0)
    19e8:	01541223          	sh	s5,4(s0)
    19ec:	7e0000ef          	jal	ra,21cc <memcpy>
    19f0:	0049d783          	lhu	a5,4(s3)
    19f4:	0c800713          	li	a4,200
    19f8:	46b2                	lw	a3,12(sp)
    19fa:	a83e                	sh	a5,18(s0)
    19fc:	0069d783          	lhu	a5,6(s3)
    1a00:	a85e                	sh	a5,20(s0)
    1a02:	00aa0793          	addi	a5,s4,10
    1a06:	07c2                	slli	a5,a5,0x10
    1a08:	83c1                	srli	a5,a5,0x10
    1a0a:	02f76063          	bltu	a4,a5,1a2a <UART_Protocol_HandleRequestResult+0x92>
    1a0e:	00004537          	lui	a0,0x4
    1a12:	8656                	mv	a2,s5
    1a14:	85d2                	mv	a1,s4
    1a16:	c1050513          	addi	a0,a0,-1008 # 3c10 <_read+0x7da>
    1a1a:	00f91023          	sh	a5,0(s2)
    1a1e:	061000ef          	jal	ra,227e <iprintf>
    1a22:	94c18513          	addi	a0,gp,-1716 # 200001cc <measure_result>
    1a26:	35f9                	jal	18f4 <UART_Protocol_SendResult>
    1a28:	b751                	j	19ac <UART_Protocol_HandleRequestResult+0x14>
    1a2a:	06400793          	li	a5,100
    1a2e:	b7c5                	j	1a0e <UART_Protocol_HandleRequestResult+0x76>

00001a30 <UART_Protocol_SendRawData>:
    1a30:	f00fe2ef          	jal	t0,130 <__riscv_save_0>
    1a34:	03200793          	li	a5,50
    1a38:	7139                	addi	sp,sp,-64
    1a3a:	03200613          	li	a2,50
    1a3e:	00b7e363          	bltu	a5,a1,1a44 <UART_Protocol_SendRawData+0x14>
    1a42:	862e                	mv	a2,a1
    1a44:	0642                	slli	a2,a2,0x10
    1a46:	8241                	srli	a2,a2,0x10
    1a48:	0ff67413          	andi	s0,a2,255
    1a4c:	85aa                	mv	a1,a0
    1a4e:	00e10513          	addi	a0,sp,14
    1a52:	86c0                	sb	s0,13(sp)
    1a54:	00010623          	sb	zero,12(sp)
    1a58:	774000ef          	jal	ra,21cc <memcpy>
    1a5c:	00240613          	addi	a2,s0,2
    1a60:	006c                	addi	a1,sp,12
    1a62:	0ff67613          	andi	a2,a2,255
    1a66:	08600513          	li	a0,134
    1a6a:	b5dff0ef          	jal	ra,15c6 <UART_Protocol_SendFrame>
    1a6e:	6121                	addi	sp,sp,64
    1a70:	ee4fe06f          	j	154 <__riscv_restore_0>

00001a74 <UART_Protocol_HandleRequestRawData>:
    1a74:	ebcfe2ef          	jal	t0,130 <__riscv_save_0>
    1a78:	47f9                	li	a5,30
    1a7a:	84f19423          	sh	a5,-1976(gp) # 200000c8 <raw_data_length>
    1a7e:	84ba                	mv	s1,a4
    1a80:	96418693          	addi	a3,gp,-1692 # 200001e4 <raw_data>
    1a84:	47c1                	li	a5,16
    1a86:	842a                	mv	s0,a0
    1a88:	02e00713          	li	a4,46
    1a8c:	a29c                	sb	a5,0(a3)
    1a8e:	0785                	addi	a5,a5,1
    1a90:	0ff7f793          	andi	a5,a5,255
    1a94:	0685                	addi	a3,a3,1
    1a96:	fee79be3          	bne	a5,a4,1a8c <UART_Protocol_HandleRequestRawData+0x18>
    1a9a:	00004537          	lui	a0,0x4
    1a9e:	45f9                	li	a1,30
    1aa0:	bf050513          	addi	a0,a0,-1040 # 3bf0 <_read+0x7ba>
    1aa4:	7da000ef          	jal	ra,227e <iprintf>
    1aa8:	8481d583          	lhu	a1,-1976(gp) # 200000c8 <raw_data_length>
    1aac:	96418513          	addi	a0,gp,-1692 # 200001e4 <raw_data>
    1ab0:	3741                	jal	1a30 <UART_Protocol_SendRawData>
    1ab2:	ea2fe06f          	j	154 <__riscv_restore_0>

00001ab6 <ADC1_2_IRQHandler>:
    1ab6:	a001                	j	1ab6 <ADC1_2_IRQHandler>

00001ab8 <handle_reset>:
    1ab8:	1ffff197          	auipc	gp,0x1ffff
    1abc:	dc818193          	addi	gp,gp,-568 # 20000880 <__global_pointer$>
    1ac0:	20003117          	auipc	sp,0x20003
    1ac4:	54010113          	addi	sp,sp,1344 # 20005000 <_eusrstack>
    1ac8:	00002517          	auipc	a0,0x2
    1acc:	2bc50513          	addi	a0,a0,700 # 3d84 <_data_lma>
    1ad0:	1fffe597          	auipc	a1,0x1fffe
    1ad4:	53058593          	addi	a1,a1,1328 # 20000000 <_data_vma>
    1ad8:	82818613          	addi	a2,gp,-2008 # 200000a8 <_edata>
    1adc:	00c5fa63          	bgeu	a1,a2,1af0 <handle_reset+0x38>
    1ae0:	00052283          	lw	t0,0(a0)
    1ae4:	0055a023          	sw	t0,0(a1)
    1ae8:	0511                	addi	a0,a0,4
    1aea:	0591                	addi	a1,a1,4
    1aec:	fec5eae3          	bltu	a1,a2,1ae0 <handle_reset+0x28>
    1af0:	82818513          	addi	a0,gp,-2008 # 200000a8 <_edata>
    1af4:	a9c18593          	addi	a1,gp,-1380 # 2000031c <_ebss>
    1af8:	00b57763          	bgeu	a0,a1,1b06 <handle_reset+0x4e>
    1afc:	00052023          	sw	zero,0(a0)
    1b00:	0511                	addi	a0,a0,4
    1b02:	feb56de3          	bltu	a0,a1,1afc <handle_reset+0x44>
    1b06:	42fd                	li	t0,31
    1b08:	bc029073          	csrw	0xbc0,t0
    1b0c:	428d                	li	t0,3
    1b0e:	80429073          	csrw	0x804,t0
    1b12:	08800293          	li	t0,136
    1b16:	30029073          	csrw	mstatus,t0
    1b1a:	ffffe297          	auipc	t0,0xffffe
    1b1e:	4ea28293          	addi	t0,t0,1258 # 4 <_einit>
    1b22:	0032e293          	ori	t0,t0,3
    1b26:	30529073          	csrw	mtvec,t0
    1b2a:	8bbff0ef          	jal	ra,13e4 <SystemInit>
    1b2e:	fffff297          	auipc	t0,0xfffff
    1b32:	a7028293          	addi	t0,t0,-1424 # 59e <main>
    1b36:	34129073          	csrw	mepc,t0
    1b3a:	30200073          	mret

00001b3e <DBGMCU_GetCHIPID>:
    1b3e:	1ffff7b7          	lui	a5,0x1ffff
    1b42:	7047a503          	lw	a0,1796(a5) # 1ffff704 <_data_lma+0x1fffb980>
    1b46:	8082                	ret

00001b48 <FLASH_Unlock>:
    1b48:	456707b7          	lui	a5,0x45670
    1b4c:	40022737          	lui	a4,0x40022
    1b50:	12378793          	addi	a5,a5,291 # 45670123 <_eusrstack+0x2566b123>
    1b54:	c35c                	sw	a5,4(a4)
    1b56:	cdef97b7          	lui	a5,0xcdef9
    1b5a:	9ab78793          	addi	a5,a5,-1621 # cdef89ab <_eusrstack+0xadef39ab>
    1b5e:	c35c                	sw	a5,4(a4)
    1b60:	8082                	ret

00001b62 <FLASH_Lock>:
    1b62:	40022737          	lui	a4,0x40022
    1b66:	4b1c                	lw	a5,16(a4)
    1b68:	0807e793          	ori	a5,a5,128
    1b6c:	cb1c                	sw	a5,16(a4)
    1b6e:	8082                	ret

00001b70 <FLASH_GetBank1Status>:
    1b70:	40022737          	lui	a4,0x40022
    1b74:	475c                	lw	a5,12(a4)
    1b76:	4505                	li	a0,1
    1b78:	8b85                	andi	a5,a5,1
    1b7a:	e791                	bnez	a5,1b86 <FLASH_GetBank1Status+0x16>
    1b7c:	4748                	lw	a0,12(a4)
    1b7e:	8941                	andi	a0,a0,16
    1b80:	00153513          	seqz	a0,a0
    1b84:	050d                	addi	a0,a0,3
    1b86:	8082                	ret

00001b88 <FLASH_WaitForLastOperation>:
    1b88:	da8fe2ef          	jal	t0,130 <__riscv_save_0>
    1b8c:	842a                	mv	s0,a0
    1b8e:	4485                	li	s1,1
    1b90:	37c5                	jal	1b70 <FLASH_GetBank1Status>
    1b92:	00951863          	bne	a0,s1,1ba2 <FLASH_WaitForLastOperation+0x1a>
    1b96:	e019                	bnez	s0,1b9c <FLASH_WaitForLastOperation+0x14>
    1b98:	4515                	li	a0,5
    1b9a:	a029                	j	1ba4 <FLASH_WaitForLastOperation+0x1c>
    1b9c:	3fd1                	jal	1b70 <FLASH_GetBank1Status>
    1b9e:	147d                	addi	s0,s0,-1
    1ba0:	bfcd                	j	1b92 <FLASH_WaitForLastOperation+0xa>
    1ba2:	d87d                	beqz	s0,1b98 <FLASH_WaitForLastOperation+0x10>
    1ba4:	db0fe06f          	j	154 <__riscv_restore_0>

00001ba8 <FLASH_ErasePage>:
    1ba8:	d88fe2ef          	jal	t0,130 <__riscv_save_0>
    1bac:	84aa                	mv	s1,a0
    1bae:	000b0537          	lui	a0,0xb0
    1bb2:	3fd9                	jal	1b88 <FLASH_WaitForLastOperation>
    1bb4:	4791                	li	a5,4
    1bb6:	02f51363          	bne	a0,a5,1bdc <FLASH_ErasePage+0x34>
    1bba:	40022437          	lui	s0,0x40022
    1bbe:	481c                	lw	a5,16(s0)
    1bc0:	000b0537          	lui	a0,0xb0
    1bc4:	0027e793          	ori	a5,a5,2
    1bc8:	c81c                	sw	a5,16(s0)
    1bca:	c844                	sw	s1,20(s0)
    1bcc:	481c                	lw	a5,16(s0)
    1bce:	0407e793          	ori	a5,a5,64
    1bd2:	c81c                	sw	a5,16(s0)
    1bd4:	3f55                	jal	1b88 <FLASH_WaitForLastOperation>
    1bd6:	481c                	lw	a5,16(s0)
    1bd8:	9bf5                	andi	a5,a5,-3
    1bda:	c81c                	sw	a5,16(s0)
    1bdc:	d78fe06f          	j	154 <__riscv_restore_0>

00001be0 <FLASH_ProgramHalfWord>:
    1be0:	d50fe2ef          	jal	t0,130 <__riscv_save_0>
    1be4:	1141                	addi	sp,sp,-16
    1be6:	84aa                	mv	s1,a0
    1be8:	6515                	lui	a0,0x5
    1bea:	c62e                	sw	a1,12(sp)
    1bec:	3f71                	jal	1b88 <FLASH_WaitForLastOperation>
    1bee:	4791                	li	a5,4
    1bf0:	45b2                	lw	a1,12(sp)
    1bf2:	00f51e63          	bne	a0,a5,1c0e <FLASH_ProgramHalfWord+0x2e>
    1bf6:	40022437          	lui	s0,0x40022
    1bfa:	481c                	lw	a5,16(s0)
    1bfc:	6515                	lui	a0,0x5
    1bfe:	0017e793          	ori	a5,a5,1
    1c02:	c81c                	sw	a5,16(s0)
    1c04:	a08e                	sh	a1,0(s1)
    1c06:	3749                	jal	1b88 <FLASH_WaitForLastOperation>
    1c08:	481c                	lw	a5,16(s0)
    1c0a:	9bf9                	andi	a5,a5,-2
    1c0c:	c81c                	sw	a5,16(s0)
    1c0e:	0141                	addi	sp,sp,16
    1c10:	d44fe06f          	j	154 <__riscv_restore_0>

00001c14 <GPIO_Init>:
    1c14:	459c                	lw	a5,8(a1)
    1c16:	0107f713          	andi	a4,a5,16
    1c1a:	00f7f813          	andi	a6,a5,15
    1c1e:	c701                	beqz	a4,1c26 <GPIO_Init+0x12>
    1c20:	41d8                	lw	a4,4(a1)
    1c22:	00e86833          	or	a6,a6,a4
    1c26:	40022737          	lui	a4,0x40022
    1c2a:	5b14                	lw	a3,48(a4)
    1c2c:	0f000737          	lui	a4,0xf000
    1c30:	8f75                	and	a4,a4,a3
    1c32:	eb4d                	bnez	a4,1ce4 <GPIO_Init+0xd0>
    1c34:	4685                	li	a3,1
    1c36:	84d18b23          	sb	a3,-1962(gp) # 200000d6 <MCU_Version>
    1c3a:	40011737          	lui	a4,0x40011
    1c3e:	00e51563          	bne	a0,a4,1c48 <GPIO_Init+0x34>
    1c42:	219a                	lhu	a4,0(a1)
    1c44:	8335                	srli	a4,a4,0xd
    1c46:	a19a                	sh	a4,0(a1)
    1c48:	218e                	lhu	a1,0(a1)
    1c4a:	0ff5f713          	andi	a4,a1,255
    1c4e:	c339                	beqz	a4,1c94 <GPIO_Init+0x80>
    1c50:	4118                	lw	a4,0(a0)
    1c52:	4681                	li	a3,0
    1c54:	4e85                	li	t4,1
    1c56:	4f3d                	li	t5,15
    1c58:	02800f93          	li	t6,40
    1c5c:	04800293          	li	t0,72
    1c60:	4e21                	li	t3,8
    1c62:	00de9633          	sll	a2,t4,a3
    1c66:	00c5f8b3          	and	a7,a1,a2
    1c6a:	03161163          	bne	a2,a7,1c8c <GPIO_Init+0x78>
    1c6e:	00269893          	slli	a7,a3,0x2
    1c72:	011f1333          	sll	t1,t5,a7
    1c76:	fff34313          	not	t1,t1
    1c7a:	00e37733          	and	a4,t1,a4
    1c7e:	011818b3          	sll	a7,a6,a7
    1c82:	00e8e733          	or	a4,a7,a4
    1c86:	07f79763          	bne	a5,t6,1cf4 <GPIO_Init+0xe0>
    1c8a:	c950                	sw	a2,20(a0)
    1c8c:	0685                	addi	a3,a3,1
    1c8e:	fdc69ae3          	bne	a3,t3,1c62 <GPIO_Init+0x4e>
    1c92:	c118                	sw	a4,0(a0)
    1c94:	0ff00713          	li	a4,255
    1c98:	04b77563          	bgeu	a4,a1,1ce2 <GPIO_Init+0xce>
    1c9c:	4154                	lw	a3,4(a0)
    1c9e:	4621                	li	a2,8
    1ca0:	4e85                	li	t4,1
    1ca2:	4f3d                	li	t5,15
    1ca4:	02800f93          	li	t6,40
    1ca8:	04800293          	li	t0,72
    1cac:	4e41                	li	t3,16
    1cae:	00ce98b3          	sll	a7,t4,a2
    1cb2:	0115f733          	and	a4,a1,a7
    1cb6:	02e89263          	bne	a7,a4,1cda <GPIO_Init+0xc6>
    1cba:	00261713          	slli	a4,a2,0x2
    1cbe:	1701                	addi	a4,a4,-32
    1cc0:	00ef1333          	sll	t1,t5,a4
    1cc4:	fff34313          	not	t1,t1
    1cc8:	00d376b3          	and	a3,t1,a3
    1ccc:	00e81733          	sll	a4,a6,a4
    1cd0:	8ed9                	or	a3,a3,a4
    1cd2:	03f79563          	bne	a5,t6,1cfc <GPIO_Init+0xe8>
    1cd6:	01152a23          	sw	a7,20(a0) # 5014 <_data_lma+0x1290>
    1cda:	0605                	addi	a2,a2,1
    1cdc:	fdc619e3          	bne	a2,t3,1cae <GPIO_Init+0x9a>
    1ce0:	c154                	sw	a3,4(a0)
    1ce2:	8082                	ret
    1ce4:	40011737          	lui	a4,0x40011
    1ce8:	f6e510e3          	bne	a0,a4,1c48 <GPIO_Init+0x34>
    1cec:	8561c703          	lbu	a4,-1962(gp) # 200000d6 <MCU_Version>
    1cf0:	df21                	beqz	a4,1c48 <GPIO_Init+0x34>
    1cf2:	bf81                	j	1c42 <GPIO_Init+0x2e>
    1cf4:	f8579ce3          	bne	a5,t0,1c8c <GPIO_Init+0x78>
    1cf8:	c910                	sw	a2,16(a0)
    1cfa:	bf49                	j	1c8c <GPIO_Init+0x78>
    1cfc:	fc579fe3          	bne	a5,t0,1cda <GPIO_Init+0xc6>
    1d00:	01152823          	sw	a7,16(a0)
    1d04:	bfd9                	j	1cda <GPIO_Init+0xc6>

00001d06 <GPIO_ReadInputDataBit>:
    1d06:	400117b7          	lui	a5,0x40011
    1d0a:	00f51663          	bne	a0,a5,1d16 <GPIO_ReadInputDataBit+0x10>
    1d0e:	8561c783          	lbu	a5,-1962(gp) # 200000d6 <MCU_Version>
    1d12:	c391                	beqz	a5,1d16 <GPIO_ReadInputDataBit+0x10>
    1d14:	81b5                	srli	a1,a1,0xd
    1d16:	4508                	lw	a0,8(a0)
    1d18:	8d6d                	and	a0,a0,a1
    1d1a:	00a03533          	snez	a0,a0
    1d1e:	8082                	ret

00001d20 <GPIO_ReadOutputDataBit>:
    1d20:	400117b7          	lui	a5,0x40011
    1d24:	00f51663          	bne	a0,a5,1d30 <GPIO_ReadOutputDataBit+0x10>
    1d28:	8561c783          	lbu	a5,-1962(gp) # 200000d6 <MCU_Version>
    1d2c:	c391                	beqz	a5,1d30 <GPIO_ReadOutputDataBit+0x10>
    1d2e:	81b5                	srli	a1,a1,0xd
    1d30:	4548                	lw	a0,12(a0)
    1d32:	8d6d                	and	a0,a0,a1
    1d34:	00a03533          	snez	a0,a0
    1d38:	8082                	ret

00001d3a <GPIO_SetBits>:
    1d3a:	400117b7          	lui	a5,0x40011
    1d3e:	00f51663          	bne	a0,a5,1d4a <GPIO_SetBits+0x10>
    1d42:	8561c783          	lbu	a5,-1962(gp) # 200000d6 <MCU_Version>
    1d46:	c391                	beqz	a5,1d4a <GPIO_SetBits+0x10>
    1d48:	81b5                	srli	a1,a1,0xd
    1d4a:	c90c                	sw	a1,16(a0)
    1d4c:	8082                	ret

00001d4e <GPIO_ResetBits>:
    1d4e:	400117b7          	lui	a5,0x40011
    1d52:	00f51663          	bne	a0,a5,1d5e <GPIO_ResetBits+0x10>
    1d56:	8561c783          	lbu	a5,-1962(gp) # 200000d6 <MCU_Version>
    1d5a:	c391                	beqz	a5,1d5e <GPIO_ResetBits+0x10>
    1d5c:	81b5                	srli	a1,a1,0xd
    1d5e:	c94c                	sw	a1,20(a0)
    1d60:	8082                	ret

00001d62 <NVIC_PriorityGroupConfig>:
    1d62:	84a1ac23          	sw	a0,-1960(gp) # 200000d8 <NVIC_Priority_Group>
    1d66:	8082                	ret

00001d68 <NVIC_Init>:
    1d68:	8581a703          	lw	a4,-1960(gp) # 200000d8 <NVIC_Priority_Group>
    1d6c:	4785                	li	a5,1
    1d6e:	2114                	lbu	a3,0(a0)
    1d70:	02f71063          	bne	a4,a5,1d90 <NVIC_Init+0x28>
    1d74:	311c                	lbu	a5,1(a0)
    1d76:	02e79c63          	bne	a5,a4,1dae <NVIC_Init+0x46>
    1d7a:	213c                	lbu	a5,2(a0)
    1d7c:	0796                	slli	a5,a5,0x5
    1d7e:	f807e793          	ori	a5,a5,-128
    1d82:	e000e737          	lui	a4,0xe000e
    1d86:	0ff7f793          	andi	a5,a5,255
    1d8a:	9736                	add	a4,a4,a3
    1d8c:	40f70023          	sb	a5,1024(a4) # e000e400 <_eusrstack+0xc0009400>
    1d90:	4705                	li	a4,1
    1d92:	0056d793          	srli	a5,a3,0x5
    1d96:	00d71733          	sll	a4,a4,a3
    1d9a:	4154                	lw	a3,4(a0)
    1d9c:	ce89                	beqz	a3,1db6 <NVIC_Init+0x4e>
    1d9e:	04078793          	addi	a5,a5,64 # 40011040 <_eusrstack+0x2000c040>
    1da2:	078a                	slli	a5,a5,0x2
    1da4:	e000e6b7          	lui	a3,0xe000e
    1da8:	97b6                	add	a5,a5,a3
    1daa:	c398                	sw	a4,0(a5)
    1dac:	8082                	ret
    1dae:	f3ed                	bnez	a5,1d90 <NVIC_Init+0x28>
    1db0:	213c                	lbu	a5,2(a0)
    1db2:	0796                	slli	a5,a5,0x5
    1db4:	b7f9                	j	1d82 <NVIC_Init+0x1a>
    1db6:	06078793          	addi	a5,a5,96
    1dba:	b7e5                	j	1da2 <NVIC_Init+0x3a>

00001dbc <RCC_GetClocksFreq>:
    1dbc:	40021737          	lui	a4,0x40021
    1dc0:	435c                	lw	a5,4(a4)
    1dc2:	4691                	li	a3,4
    1dc4:	8bb1                	andi	a5,a5,12
    1dc6:	00d78563          	beq	a5,a3,1dd0 <RCC_GetClocksFreq+0x14>
    1dca:	46a1                	li	a3,8
    1dcc:	06d78263          	beq	a5,a3,1e30 <RCC_GetClocksFreq+0x74>
    1dd0:	007a17b7          	lui	a5,0x7a1
    1dd4:	20078793          	addi	a5,a5,512 # 7a1200 <_data_lma+0x79d47c>
    1dd8:	c11c                	sw	a5,0(a0)
    1dda:	40021637          	lui	a2,0x40021
    1dde:	425c                	lw	a5,4(a2)
    1de0:	20000737          	lui	a4,0x20000
    1de4:	01070713          	addi	a4,a4,16 # 20000010 <APBAHBPrescTable>
    1de8:	8391                	srli	a5,a5,0x4
    1dea:	8bbd                	andi	a5,a5,15
    1dec:	97ba                	add	a5,a5,a4
    1dee:	2394                	lbu	a3,0(a5)
    1df0:	411c                	lw	a5,0(a0)
    1df2:	00d7d7b3          	srl	a5,a5,a3
    1df6:	c15c                	sw	a5,4(a0)
    1df8:	4254                	lw	a3,4(a2)
    1dfa:	82a1                	srli	a3,a3,0x8
    1dfc:	8a9d                	andi	a3,a3,7
    1dfe:	96ba                	add	a3,a3,a4
    1e00:	2294                	lbu	a3,0(a3)
    1e02:	00d7d6b3          	srl	a3,a5,a3
    1e06:	c514                	sw	a3,8(a0)
    1e08:	4254                	lw	a3,4(a2)
    1e0a:	82ad                	srli	a3,a3,0xb
    1e0c:	8a9d                	andi	a3,a3,7
    1e0e:	9736                	add	a4,a4,a3
    1e10:	2318                	lbu	a4,0(a4)
    1e12:	00e7d7b3          	srl	a5,a5,a4
    1e16:	c55c                	sw	a5,12(a0)
    1e18:	4258                	lw	a4,4(a2)
    1e1a:	8339                	srli	a4,a4,0xe
    1e1c:	00377693          	andi	a3,a4,3
    1e20:	80c18713          	addi	a4,gp,-2036 # 2000008c <ADCPrescTable>
    1e24:	9736                	add	a4,a4,a3
    1e26:	2318                	lbu	a4,0(a4)
    1e28:	02e7d7b3          	divu	a5,a5,a4
    1e2c:	c91c                	sw	a5,16(a0)
    1e2e:	8082                	ret
    1e30:	435c                	lw	a5,4(a4)
    1e32:	4358                	lw	a4,4(a4)
    1e34:	66c1                	lui	a3,0x10
    1e36:	83c9                	srli	a5,a5,0x12
    1e38:	8bbd                	andi	a5,a5,15
    1e3a:	8f75                	and	a4,a4,a3
    1e3c:	0789                	addi	a5,a5,2
    1e3e:	46c5                	li	a3,17
    1e40:	00d79363          	bne	a5,a3,1e46 <RCC_GetClocksFreq+0x8a>
    1e44:	47c9                	li	a5,18
    1e46:	ef01                	bnez	a4,1e5e <RCC_GetClocksFreq+0xa2>
    1e48:	40024737          	lui	a4,0x40024
    1e4c:	80072703          	lw	a4,-2048(a4) # 40023800 <_eusrstack+0x2001e800>
    1e50:	8b41                	andi	a4,a4,16
    1e52:	cf09                	beqz	a4,1e6c <RCC_GetClocksFreq+0xb0>
    1e54:	007a1737          	lui	a4,0x7a1
    1e58:	20070713          	addi	a4,a4,512 # 7a1200 <_data_lma+0x79d47c>
    1e5c:	a821                	j	1e74 <RCC_GetClocksFreq+0xb8>
    1e5e:	40021737          	lui	a4,0x40021
    1e62:	4358                	lw	a4,4(a4)
    1e64:	00e71693          	slli	a3,a4,0xe
    1e68:	fe06d6e3          	bgez	a3,1e54 <RCC_GetClocksFreq+0x98>
    1e6c:	003d1737          	lui	a4,0x3d1
    1e70:	90070713          	addi	a4,a4,-1792 # 3d0900 <_data_lma+0x3ccb7c>
    1e74:	02e787b3          	mul	a5,a5,a4
    1e78:	b785                	j	1dd8 <RCC_GetClocksFreq+0x1c>

00001e7a <RCC_APB2PeriphClockCmd>:
    1e7a:	c599                	beqz	a1,1e88 <RCC_APB2PeriphClockCmd+0xe>
    1e7c:	40021737          	lui	a4,0x40021
    1e80:	4f1c                	lw	a5,24(a4)
    1e82:	8d5d                	or	a0,a0,a5
    1e84:	cf08                	sw	a0,24(a4)
    1e86:	8082                	ret
    1e88:	400217b7          	lui	a5,0x40021
    1e8c:	4f98                	lw	a4,24(a5)
    1e8e:	fff54513          	not	a0,a0
    1e92:	8d79                	and	a0,a0,a4
    1e94:	cf88                	sw	a0,24(a5)
    1e96:	8082                	ret

00001e98 <RCC_APB1PeriphClockCmd>:
    1e98:	c599                	beqz	a1,1ea6 <RCC_APB1PeriphClockCmd+0xe>
    1e9a:	40021737          	lui	a4,0x40021
    1e9e:	4f5c                	lw	a5,28(a4)
    1ea0:	8d5d                	or	a0,a0,a5
    1ea2:	cf48                	sw	a0,28(a4)
    1ea4:	8082                	ret
    1ea6:	400217b7          	lui	a5,0x40021
    1eaa:	4fd8                	lw	a4,28(a5)
    1eac:	fff54513          	not	a0,a0
    1eb0:	8d79                	and	a0,a0,a4
    1eb2:	cfc8                	sw	a0,28(a5)
    1eb4:	8082                	ret

00001eb6 <TIM_TimeBaseInit>:
    1eb6:	211e                	lhu	a5,0(a0)
    1eb8:	40013737          	lui	a4,0x40013
    1ebc:	c0070713          	addi	a4,a4,-1024 # 40012c00 <_eusrstack+0x2000dc00>
    1ec0:	07c2                	slli	a5,a5,0x10
    1ec2:	83c1                	srli	a5,a5,0x10
    1ec4:	02e50463          	beq	a0,a4,1eec <TIM_TimeBaseInit+0x36>
    1ec8:	40000737          	lui	a4,0x40000
    1ecc:	02e50063          	beq	a0,a4,1eec <TIM_TimeBaseInit+0x36>
    1ed0:	40070713          	addi	a4,a4,1024 # 40000400 <_eusrstack+0x1fffb400>
    1ed4:	00e50c63          	beq	a0,a4,1eec <TIM_TimeBaseInit+0x36>
    1ed8:	40001737          	lui	a4,0x40001
    1edc:	80070693          	addi	a3,a4,-2048 # 40000800 <_eusrstack+0x1fffb800>
    1ee0:	00d50663          	beq	a0,a3,1eec <TIM_TimeBaseInit+0x36>
    1ee4:	c0070713          	addi	a4,a4,-1024
    1ee8:	00e51663          	bne	a0,a4,1ef4 <TIM_TimeBaseInit+0x3e>
    1eec:	21ba                	lhu	a4,2(a1)
    1eee:	f8f7f793          	andi	a5,a5,-113
    1ef2:	8fd9                	or	a5,a5,a4
    1ef4:	21fa                	lhu	a4,6(a1)
    1ef6:	cff7f793          	andi	a5,a5,-769
    1efa:	07c2                	slli	a5,a5,0x10
    1efc:	83c1                	srli	a5,a5,0x10
    1efe:	8fd9                	or	a5,a5,a4
    1f00:	a11e                	sh	a5,0(a0)
    1f02:	21de                	lhu	a5,4(a1)
    1f04:	b55e                	sh	a5,44(a0)
    1f06:	219e                	lhu	a5,0(a1)
    1f08:	b51e                	sh	a5,40(a0)
    1f0a:	400137b7          	lui	a5,0x40013
    1f0e:	c0078793          	addi	a5,a5,-1024 # 40012c00 <_eusrstack+0x2000dc00>
    1f12:	00f51463          	bne	a0,a5,1f1a <TIM_TimeBaseInit+0x64>
    1f16:	259c                	lbu	a5,8(a1)
    1f18:	b91e                	sh	a5,48(a0)
    1f1a:	4785                	li	a5,1
    1f1c:	a95e                	sh	a5,20(a0)
    1f1e:	8082                	ret

00001f20 <TIM_Cmd>:
    1f20:	211e                	lhu	a5,0(a0)
    1f22:	c589                	beqz	a1,1f2c <TIM_Cmd+0xc>
    1f24:	0017e793          	ori	a5,a5,1
    1f28:	a11e                	sh	a5,0(a0)
    1f2a:	8082                	ret
    1f2c:	07c2                	slli	a5,a5,0x10
    1f2e:	83c1                	srli	a5,a5,0x10
    1f30:	9bf9                	andi	a5,a5,-2
    1f32:	07c2                	slli	a5,a5,0x10
    1f34:	83c1                	srli	a5,a5,0x10
    1f36:	bfcd                	j	1f28 <TIM_Cmd+0x8>

00001f38 <TIM_ITConfig>:
    1f38:	255e                	lhu	a5,12(a0)
    1f3a:	c601                	beqz	a2,1f42 <TIM_ITConfig+0xa>
    1f3c:	8ddd                	or	a1,a1,a5
    1f3e:	a54e                	sh	a1,12(a0)
    1f40:	8082                	ret
    1f42:	fff5c593          	not	a1,a1
    1f46:	8dfd                	and	a1,a1,a5
    1f48:	bfdd                	j	1f3e <TIM_ITConfig+0x6>

00001f4a <TIM_GetITStatus>:
    1f4a:	291e                	lhu	a5,16(a0)
    1f4c:	254a                	lhu	a0,12(a0)
    1f4e:	8fed                	and	a5,a5,a1
    1f50:	0542                	slli	a0,a0,0x10
    1f52:	8141                	srli	a0,a0,0x10
    1f54:	c789                	beqz	a5,1f5e <TIM_GetITStatus+0x14>
    1f56:	8d6d                	and	a0,a0,a1
    1f58:	00a03533          	snez	a0,a0
    1f5c:	8082                	ret
    1f5e:	4501                	li	a0,0
    1f60:	8082                	ret

00001f62 <TIM_ClearITPendingBit>:
    1f62:	fff5c593          	not	a1,a1
    1f66:	05c2                	slli	a1,a1,0x10
    1f68:	81c1                	srli	a1,a1,0x10
    1f6a:	a90e                	sh	a1,16(a0)
    1f6c:	8082                	ret

00001f6e <USART_Init>:
    1f6e:	9c2fe2ef          	jal	t0,130 <__riscv_save_0>
    1f72:	2916                	lhu	a3,16(a0)
    1f74:	77f5                	lui	a5,0xffffd
    1f76:	17fd                	addi	a5,a5,-1
    1f78:	8ff5                	and	a5,a5,a3
    1f7a:	21f6                	lhu	a3,6(a1)
    1f7c:	25da                	lhu	a4,12(a1)
    1f7e:	7179                	addi	sp,sp,-48
    1f80:	8fd5                	or	a5,a5,a3
    1f82:	a91e                	sh	a5,16(a0)
    1f84:	2556                	lhu	a3,12(a0)
    1f86:	77fd                	lui	a5,0xfffff
    1f88:	9f378793          	addi	a5,a5,-1549 # ffffe9f3 <_eusrstack+0xdfff99f3>
    1f8c:	8ff5                	and	a5,a5,a3
    1f8e:	21d6                	lhu	a3,4(a1)
    1f90:	842a                	mv	s0,a0
    1f92:	c62e                	sw	a1,12(sp)
    1f94:	8fd5                	or	a5,a5,a3
    1f96:	2596                	lhu	a3,8(a1)
    1f98:	8fd5                	or	a5,a5,a3
    1f9a:	25b6                	lhu	a3,10(a1)
    1f9c:	8fd5                	or	a5,a5,a3
    1f9e:	a55e                	sh	a5,12(a0)
    1fa0:	295e                	lhu	a5,20(a0)
    1fa2:	07c2                	slli	a5,a5,0x10
    1fa4:	83c1                	srli	a5,a5,0x10
    1fa6:	cff7f793          	andi	a5,a5,-769
    1faa:	8fd9                	or	a5,a5,a4
    1fac:	a95e                	sh	a5,20(a0)
    1fae:	0868                	addi	a0,sp,28
    1fb0:	e0dff0ef          	jal	ra,1dbc <RCC_GetClocksFreq>
    1fb4:	400147b7          	lui	a5,0x40014
    1fb8:	80078793          	addi	a5,a5,-2048 # 40013800 <_eusrstack+0x2000e800>
    1fbc:	45b2                	lw	a1,12(sp)
    1fbe:	02f41e63          	bne	s0,a5,1ffa <USART_Init+0x8c>
    1fc2:	57a2                	lw	a5,40(sp)
    1fc4:	4765                	li	a4,25
    1fc6:	02e787b3          	mul	a5,a5,a4
    1fca:	4198                	lw	a4,0(a1)
    1fcc:	06400693          	li	a3,100
    1fd0:	070a                	slli	a4,a4,0x2
    1fd2:	02e7d7b3          	divu	a5,a5,a4
    1fd6:	02d7d733          	divu	a4,a5,a3
    1fda:	02d7f7b3          	remu	a5,a5,a3
    1fde:	0712                	slli	a4,a4,0x4
    1fe0:	0792                	slli	a5,a5,0x4
    1fe2:	03278793          	addi	a5,a5,50
    1fe6:	02d7d7b3          	divu	a5,a5,a3
    1fea:	8bbd                	andi	a5,a5,15
    1fec:	8fd9                	or	a5,a5,a4
    1fee:	07c2                	slli	a5,a5,0x10
    1ff0:	83c1                	srli	a5,a5,0x10
    1ff2:	a41e                	sh	a5,8(s0)
    1ff4:	6145                	addi	sp,sp,48
    1ff6:	95efe06f          	j	154 <__riscv_restore_0>
    1ffa:	5792                	lw	a5,36(sp)
    1ffc:	b7e1                	j	1fc4 <USART_Init+0x56>

00001ffe <USART_Cmd>:
    1ffe:	c591                	beqz	a1,200a <USART_Cmd+0xc>
    2000:	255e                	lhu	a5,12(a0)
    2002:	6709                	lui	a4,0x2
    2004:	8fd9                	or	a5,a5,a4
    2006:	a55e                	sh	a5,12(a0)
    2008:	8082                	ret
    200a:	255a                	lhu	a4,12(a0)
    200c:	77f9                	lui	a5,0xffffe
    200e:	17fd                	addi	a5,a5,-1
    2010:	8ff9                	and	a5,a5,a4
    2012:	bfd5                	j	2006 <USART_Cmd+0x8>

00002014 <USART_ITConfig>:
    2014:	0ff5f713          	andi	a4,a1,255
    2018:	4785                	li	a5,1
    201a:	8315                	srli	a4,a4,0x5
    201c:	00b795b3          	sll	a1,a5,a1
    2020:	00f71963          	bne	a4,a5,2032 <USART_ITConfig+0x1e>
    2024:	00c50793          	addi	a5,a0,12
    2028:	4398                	lw	a4,0(a5)
    202a:	ce01                	beqz	a2,2042 <USART_ITConfig+0x2e>
    202c:	8dd9                	or	a1,a1,a4
    202e:	c38c                	sw	a1,0(a5)
    2030:	8082                	ret
    2032:	4689                	li	a3,2
    2034:	01450793          	addi	a5,a0,20
    2038:	fed718e3          	bne	a4,a3,2028 <USART_ITConfig+0x14>
    203c:	01050793          	addi	a5,a0,16
    2040:	b7e5                	j	2028 <USART_ITConfig+0x14>
    2042:	fff5c593          	not	a1,a1
    2046:	8df9                	and	a1,a1,a4
    2048:	b7dd                	j	202e <USART_ITConfig+0x1a>

0000204a <USART_SendData>:
    204a:	1ff5f593          	andi	a1,a1,511
    204e:	a14e                	sh	a1,4(a0)
    2050:	8082                	ret

00002052 <USART_ReceiveData>:
    2052:	214a                	lhu	a0,4(a0)
    2054:	1ff57513          	andi	a0,a0,511
    2058:	8082                	ret

0000205a <USART_GetFlagStatus>:
    205a:	210a                	lhu	a0,0(a0)
    205c:	8d6d                	and	a0,a0,a1
    205e:	00a03533          	snez	a0,a0
    2062:	8082                	ret

00002064 <USART_GetITStatus>:
    2064:	0ff5f713          	andi	a4,a1,255
    2068:	4685                	li	a3,1
    206a:	8315                	srli	a4,a4,0x5
    206c:	00b697b3          	sll	a5,a3,a1
    2070:	02d71163          	bne	a4,a3,2092 <USART_GetITStatus+0x2e>
    2074:	255a                	lhu	a4,12(a0)
    2076:	8ff9                	and	a5,a5,a4
    2078:	211a                	lhu	a4,0(a0)
    207a:	4501                	li	a0,0
    207c:	0742                	slli	a4,a4,0x10
    207e:	8341                	srli	a4,a4,0x10
    2080:	cb81                	beqz	a5,2090 <USART_GetITStatus+0x2c>
    2082:	4505                	li	a0,1
    2084:	81a1                	srli	a1,a1,0x8
    2086:	00b515b3          	sll	a1,a0,a1
    208a:	8f6d                	and	a4,a4,a1
    208c:	00e03533          	snez	a0,a4
    2090:	8082                	ret
    2092:	4689                	li	a3,2
    2094:	00d71463          	bne	a4,a3,209c <USART_GetITStatus+0x38>
    2098:	291a                	lhu	a4,16(a0)
    209a:	bff1                	j	2076 <USART_GetITStatus+0x12>
    209c:	295a                	lhu	a4,20(a0)
    209e:	bfe1                	j	2076 <USART_GetITStatus+0x12>

000020a0 <USART_ClearITPendingBit>:
    20a0:	81a1                	srli	a1,a1,0x8
    20a2:	4785                	li	a5,1
    20a4:	00b797b3          	sll	a5,a5,a1
    20a8:	fff7c793          	not	a5,a5
    20ac:	07c2                	slli	a5,a5,0x10
    20ae:	83c1                	srli	a5,a5,0x10
    20b0:	a11e                	sh	a5,0(a0)
    20b2:	8082                	ret

000020b4 <Delay_Init>:
    20b4:	200007b7          	lui	a5,0x20000
    20b8:	0847a783          	lw	a5,132(a5) # 20000084 <SystemCoreClock>
    20bc:	007a1737          	lui	a4,0x7a1
    20c0:	20070713          	addi	a4,a4,512 # 7a1200 <_data_lma+0x79d47c>
    20c4:	02e7d7b3          	divu	a5,a5,a4
    20c8:	0ff7f793          	andi	a5,a5,255
    20cc:	84f18f23          	sb	a5,-1954(gp) # 200000de <p_us>
    20d0:	3e800713          	li	a4,1000
    20d4:	02e787b3          	mul	a5,a5,a4
    20d8:	84f19e23          	sh	a5,-1956(gp) # 200000dc <p_ms>
    20dc:	8082                	ret

000020de <Delay_Ms>:
    20de:	e000f7b7          	lui	a5,0xe000f
    20e2:	43d8                	lw	a4,4(a5)
    20e4:	4681                	li	a3,0
    20e6:	9b79                	andi	a4,a4,-2
    20e8:	c3d8                	sw	a4,4(a5)
    20ea:	85c1d703          	lhu	a4,-1956(gp) # 200000dc <p_ms>
    20ee:	02a70633          	mul	a2,a4,a0
    20f2:	cb90                	sw	a2,16(a5)
    20f4:	cbd4                	sw	a3,20(a5)
    20f6:	4398                	lw	a4,0(a5)
    20f8:	01076713          	ori	a4,a4,16
    20fc:	c398                	sw	a4,0(a5)
    20fe:	4398                	lw	a4,0(a5)
    2100:	02176713          	ori	a4,a4,33
    2104:	c398                	sw	a4,0(a5)
    2106:	43d8                	lw	a4,4(a5)
    2108:	8b05                	andi	a4,a4,1
    210a:	df75                	beqz	a4,2106 <Delay_Ms+0x28>
    210c:	4398                	lw	a4,0(a5)
    210e:	9b79                	andi	a4,a4,-2
    2110:	c398                	sw	a4,0(a5)
    2112:	8082                	ret

00002114 <USART_Printf_Init>:
    2114:	81cfe2ef          	jal	t0,130 <__riscv_save_0>
    2118:	842a                	mv	s0,a0
    211a:	6511                	lui	a0,0x4
    211c:	1101                	addi	sp,sp,-32
    211e:	4585                	li	a1,1
    2120:	0511                	addi	a0,a0,4
    2122:	d59ff0ef          	jal	ra,1e7a <RCC_APB2PeriphClockCmd>
    2126:	20000793          	li	a5,512
    212a:	827c                	sh	a5,4(sp)
    212c:	40011537          	lui	a0,0x40011
    2130:	478d                	li	a5,3
    2132:	c43e                	sw	a5,8(sp)
    2134:	004c                	addi	a1,sp,4
    2136:	47e1                	li	a5,24
    2138:	80050513          	addi	a0,a0,-2048 # 40010800 <_eusrstack+0x2000b800>
    213c:	c63e                	sw	a5,12(sp)
    213e:	ad7ff0ef          	jal	ra,1c14 <GPIO_Init>
    2142:	c822                	sw	s0,16(sp)
    2144:	40014437          	lui	s0,0x40014
    2148:	000807b7          	lui	a5,0x80
    214c:	080c                	addi	a1,sp,16
    214e:	80040513          	addi	a0,s0,-2048 # 40013800 <_eusrstack+0x2000e800>
    2152:	cc3e                	sw	a5,24(sp)
    2154:	ca02                	sw	zero,20(sp)
    2156:	00011e23          	sh	zero,28(sp)
    215a:	e15ff0ef          	jal	ra,1f6e <USART_Init>
    215e:	4585                	li	a1,1
    2160:	80040513          	addi	a0,s0,-2048
    2164:	3d69                	jal	1ffe <USART_Cmd>
    2166:	6105                	addi	sp,sp,32
    2168:	fedfd06f          	j	154 <__riscv_restore_0>

0000216c <_write>:
    216c:	fabfd2ef          	jal	t0,116 <__riscv_save_4>
    2170:	400144b7          	lui	s1,0x40014
    2174:	89ae                	mv	s3,a1
    2176:	8932                	mv	s2,a2
    2178:	4401                	li	s0,0
    217a:	80048493          	addi	s1,s1,-2048 # 40013800 <_eusrstack+0x2000e800>
    217e:	01244563          	blt	s0,s2,2188 <_write+0x1c>
    2182:	854a                	mv	a0,s2
    2184:	fc7fd06f          	j	14a <__riscv_restore_4>
    2188:	04000593          	li	a1,64
    218c:	8526                	mv	a0,s1
    218e:	35f1                	jal	205a <USART_GetFlagStatus>
    2190:	dd65                	beqz	a0,2188 <_write+0x1c>
    2192:	008987b3          	add	a5,s3,s0
    2196:	00078583          	lb	a1,0(a5) # 80000 <_data_lma+0x7c27c>
    219a:	8526                	mv	a0,s1
    219c:	0405                	addi	s0,s0,1
    219e:	05c2                	slli	a1,a1,0x10
    21a0:	81c1                	srli	a1,a1,0x10
    21a2:	3565                	jal	204a <USART_SendData>
    21a4:	bfe9                	j	217e <_write+0x12>

000021a6 <_sbrk>:
    21a6:	81018713          	addi	a4,gp,-2032 # 20000090 <curbrk.4652>
    21aa:	431c                	lw	a5,0(a4)
    21ac:	a9c18693          	addi	a3,gp,-1380 # 2000031c <_ebss>
    21b0:	953e                	add	a0,a0,a5
    21b2:	00d56b63          	bltu	a0,a3,21c8 <_sbrk+0x22>
    21b6:	200056b7          	lui	a3,0x20005
    21ba:	80068693          	addi	a3,a3,-2048 # 20004800 <_heap_end>
    21be:	00a6e563          	bltu	a3,a0,21c8 <_sbrk+0x22>
    21c2:	c308                	sw	a0,0(a4)
    21c4:	853e                	mv	a0,a5
    21c6:	8082                	ret
    21c8:	57fd                	li	a5,-1
    21ca:	bfed                	j	21c4 <_sbrk+0x1e>

000021cc <memcpy>:
    21cc:	00a5c7b3          	xor	a5,a1,a0
    21d0:	8b8d                	andi	a5,a5,3
    21d2:	00c50733          	add	a4,a0,a2
    21d6:	e781                	bnez	a5,21de <memcpy+0x12>
    21d8:	478d                	li	a5,3
    21da:	00c7ed63          	bltu	a5,a2,21f4 <memcpy+0x28>
    21de:	87aa                	mv	a5,a0
    21e0:	08e57e63          	bgeu	a0,a4,227c <memcpy+0xb0>
    21e4:	2194                	lbu	a3,0(a1)
    21e6:	0785                	addi	a5,a5,1
    21e8:	0585                	addi	a1,a1,1
    21ea:	fed78fa3          	sb	a3,-1(a5)
    21ee:	fee7ebe3          	bltu	a5,a4,21e4 <memcpy+0x18>
    21f2:	8082                	ret
    21f4:	00357693          	andi	a3,a0,3
    21f8:	87aa                	mv	a5,a0
    21fa:	ca89                	beqz	a3,220c <memcpy+0x40>
    21fc:	2194                	lbu	a3,0(a1)
    21fe:	0785                	addi	a5,a5,1
    2200:	0585                	addi	a1,a1,1
    2202:	fed78fa3          	sb	a3,-1(a5)
    2206:	0037f693          	andi	a3,a5,3
    220a:	bfc5                	j	21fa <memcpy+0x2e>
    220c:	ffc77693          	andi	a3,a4,-4
    2210:	fe068613          	addi	a2,a3,-32
    2214:	06c7f063          	bgeu	a5,a2,2274 <memcpy+0xa8>
    2218:	0005a383          	lw	t2,0(a1)
    221c:	0045a283          	lw	t0,4(a1)
    2220:	0085af83          	lw	t6,8(a1)
    2224:	00c5af03          	lw	t5,12(a1)
    2228:	0105ae83          	lw	t4,16(a1)
    222c:	0145ae03          	lw	t3,20(a1)
    2230:	0185a303          	lw	t1,24(a1)
    2234:	01c5a883          	lw	a7,28(a1)
    2238:	02458593          	addi	a1,a1,36
    223c:	0077a023          	sw	t2,0(a5)
    2240:	ffc5a803          	lw	a6,-4(a1)
    2244:	0057a223          	sw	t0,4(a5)
    2248:	01f7a423          	sw	t6,8(a5)
    224c:	01e7a623          	sw	t5,12(a5)
    2250:	01d7a823          	sw	t4,16(a5)
    2254:	01c7aa23          	sw	t3,20(a5)
    2258:	0067ac23          	sw	t1,24(a5)
    225c:	0117ae23          	sw	a7,28(a5)
    2260:	02478793          	addi	a5,a5,36
    2264:	ff07ae23          	sw	a6,-4(a5)
    2268:	b775                	j	2214 <memcpy+0x48>
    226a:	4190                	lw	a2,0(a1)
    226c:	0791                	addi	a5,a5,4
    226e:	0591                	addi	a1,a1,4
    2270:	fec7ae23          	sw	a2,-4(a5)
    2274:	fed7ebe3          	bltu	a5,a3,226a <memcpy+0x9e>
    2278:	f6e7e6e3          	bltu	a5,a4,21e4 <memcpy+0x18>
    227c:	8082                	ret

0000227e <iprintf>:
    227e:	7139                	addi	sp,sp,-64
    2280:	da3e                	sw	a5,52(sp)
    2282:	d22e                	sw	a1,36(sp)
    2284:	d432                	sw	a2,40(sp)
    2286:	d636                	sw	a3,44(sp)
    2288:	d83a                	sw	a4,48(sp)
    228a:	dc42                	sw	a6,56(sp)
    228c:	de46                	sw	a7,60(sp)
    228e:	81418793          	addi	a5,gp,-2028 # 20000094 <_impure_ptr>
    2292:	cc22                	sw	s0,24(sp)
    2294:	4380                	lw	s0,0(a5)
    2296:	ca26                	sw	s1,20(sp)
    2298:	ce06                	sw	ra,28(sp)
    229a:	84aa                	mv	s1,a0
    229c:	c409                	beqz	s0,22a6 <iprintf+0x28>
    229e:	4c1c                	lw	a5,24(s0)
    22a0:	e399                	bnez	a5,22a6 <iprintf+0x28>
    22a2:	8522                	mv	a0,s0
    22a4:	29f5                	jal	27a0 <__sinit>
    22a6:	440c                	lw	a1,8(s0)
    22a8:	1054                	addi	a3,sp,36
    22aa:	8626                	mv	a2,s1
    22ac:	8522                	mv	a0,s0
    22ae:	c636                	sw	a3,12(sp)
    22b0:	131000ef          	jal	ra,2be0 <_vfiprintf_r>
    22b4:	40f2                	lw	ra,28(sp)
    22b6:	4462                	lw	s0,24(sp)
    22b8:	44d2                	lw	s1,20(sp)
    22ba:	6121                	addi	sp,sp,64
    22bc:	8082                	ret

000022be <_puts_r>:
    22be:	1101                	addi	sp,sp,-32
    22c0:	ca26                	sw	s1,20(sp)
    22c2:	c84a                	sw	s2,16(sp)
    22c4:	ce06                	sw	ra,28(sp)
    22c6:	cc22                	sw	s0,24(sp)
    22c8:	c64e                	sw	s3,12(sp)
    22ca:	c452                	sw	s4,8(sp)
    22cc:	84aa                	mv	s1,a0
    22ce:	892e                	mv	s2,a1
    22d0:	c501                	beqz	a0,22d8 <_puts_r+0x1a>
    22d2:	4d1c                	lw	a5,24(a0)
    22d4:	e391                	bnez	a5,22d8 <_puts_r+0x1a>
    22d6:	21e9                	jal	27a0 <__sinit>
    22d8:	4c9c                	lw	a5,24(s1)
    22da:	4480                	lw	s0,8(s1)
    22dc:	e399                	bnez	a5,22e2 <_puts_r+0x24>
    22de:	8526                	mv	a0,s1
    22e0:	21c1                	jal	27a0 <__sinit>
    22e2:	00002797          	auipc	a5,0x2
    22e6:	a2678793          	addi	a5,a5,-1498 # 3d08 <__sf_fake_stdin>
    22ea:	02f41b63          	bne	s0,a5,2320 <_puts_r+0x62>
    22ee:	40c0                	lw	s0,4(s1)
    22f0:	245e                	lhu	a5,12(s0)
    22f2:	8ba1                	andi	a5,a5,8
    22f4:	c7b1                	beqz	a5,2340 <_puts_r+0x82>
    22f6:	481c                	lw	a5,16(s0)
    22f8:	c7a1                	beqz	a5,2340 <_puts_r+0x82>
    22fa:	59fd                	li	s3,-1
    22fc:	4a29                	li	s4,10
    22fe:	441c                	lw	a5,8(s0)
    2300:	00094583          	lbu	a1,0(s2)
    2304:	17fd                	addi	a5,a5,-1
    2306:	e9b1                	bnez	a1,235a <_puts_r+0x9c>
    2308:	c41c                	sw	a5,8(s0)
    230a:	0607dd63          	bgez	a5,2384 <_puts_r+0xc6>
    230e:	8622                	mv	a2,s0
    2310:	45a9                	li	a1,10
    2312:	8526                	mv	a0,s1
    2314:	2061                	jal	239c <__swbuf_r>
    2316:	57fd                	li	a5,-1
    2318:	02f50863          	beq	a0,a5,2348 <_puts_r+0x8a>
    231c:	4529                	li	a0,10
    231e:	a035                	j	234a <_puts_r+0x8c>
    2320:	00002797          	auipc	a5,0x2
    2324:	a0878793          	addi	a5,a5,-1528 # 3d28 <__sf_fake_stdout>
    2328:	00f41463          	bne	s0,a5,2330 <_puts_r+0x72>
    232c:	4480                	lw	s0,8(s1)
    232e:	b7c9                	j	22f0 <_puts_r+0x32>
    2330:	00002797          	auipc	a5,0x2
    2334:	9b878793          	addi	a5,a5,-1608 # 3ce8 <__sf_fake_stderr>
    2338:	faf41ce3          	bne	s0,a5,22f0 <_puts_r+0x32>
    233c:	44c0                	lw	s0,12(s1)
    233e:	bf4d                	j	22f0 <_puts_r+0x32>
    2340:	85a2                	mv	a1,s0
    2342:	8526                	mv	a0,s1
    2344:	2a11                	jal	2458 <__swsetup_r>
    2346:	d955                	beqz	a0,22fa <_puts_r+0x3c>
    2348:	557d                	li	a0,-1
    234a:	40f2                	lw	ra,28(sp)
    234c:	4462                	lw	s0,24(sp)
    234e:	44d2                	lw	s1,20(sp)
    2350:	4942                	lw	s2,16(sp)
    2352:	49b2                	lw	s3,12(sp)
    2354:	4a22                	lw	s4,8(sp)
    2356:	6105                	addi	sp,sp,32
    2358:	8082                	ret
    235a:	c41c                	sw	a5,8(s0)
    235c:	0905                	addi	s2,s2,1
    235e:	0007d763          	bgez	a5,236c <_puts_r+0xae>
    2362:	4c18                	lw	a4,24(s0)
    2364:	00e7ca63          	blt	a5,a4,2378 <_puts_r+0xba>
    2368:	01458863          	beq	a1,s4,2378 <_puts_r+0xba>
    236c:	401c                	lw	a5,0(s0)
    236e:	00178713          	addi	a4,a5,1
    2372:	c018                	sw	a4,0(s0)
    2374:	a38c                	sb	a1,0(a5)
    2376:	b761                	j	22fe <_puts_r+0x40>
    2378:	8622                	mv	a2,s0
    237a:	8526                	mv	a0,s1
    237c:	2005                	jal	239c <__swbuf_r>
    237e:	f93510e3          	bne	a0,s3,22fe <_puts_r+0x40>
    2382:	b7d9                	j	2348 <_puts_r+0x8a>
    2384:	401c                	lw	a5,0(s0)
    2386:	00178713          	addi	a4,a5,1
    238a:	c018                	sw	a4,0(s0)
    238c:	4729                	li	a4,10
    238e:	a398                	sb	a4,0(a5)
    2390:	b771                	j	231c <_puts_r+0x5e>

00002392 <puts>:
    2392:	81418793          	addi	a5,gp,-2028 # 20000094 <_impure_ptr>
    2396:	85aa                	mv	a1,a0
    2398:	4388                	lw	a0,0(a5)
    239a:	b715                	j	22be <_puts_r>

0000239c <__swbuf_r>:
    239c:	1101                	addi	sp,sp,-32
    239e:	cc22                	sw	s0,24(sp)
    23a0:	ca26                	sw	s1,20(sp)
    23a2:	c84a                	sw	s2,16(sp)
    23a4:	ce06                	sw	ra,28(sp)
    23a6:	c64e                	sw	s3,12(sp)
    23a8:	84aa                	mv	s1,a0
    23aa:	892e                	mv	s2,a1
    23ac:	8432                	mv	s0,a2
    23ae:	c501                	beqz	a0,23b6 <__swbuf_r+0x1a>
    23b0:	4d1c                	lw	a5,24(a0)
    23b2:	e391                	bnez	a5,23b6 <__swbuf_r+0x1a>
    23b4:	26f5                	jal	27a0 <__sinit>
    23b6:	00002797          	auipc	a5,0x2
    23ba:	95278793          	addi	a5,a5,-1710 # 3d08 <__sf_fake_stdin>
    23be:	06f41763          	bne	s0,a5,242c <__swbuf_r+0x90>
    23c2:	40c0                	lw	s0,4(s1)
    23c4:	4c1c                	lw	a5,24(s0)
    23c6:	c41c                	sw	a5,8(s0)
    23c8:	245e                	lhu	a5,12(s0)
    23ca:	8ba1                	andi	a5,a5,8
    23cc:	c3c1                	beqz	a5,244c <__swbuf_r+0xb0>
    23ce:	481c                	lw	a5,16(s0)
    23d0:	cfb5                	beqz	a5,244c <__swbuf_r+0xb0>
    23d2:	481c                	lw	a5,16(s0)
    23d4:	4008                	lw	a0,0(s0)
    23d6:	0ff97993          	andi	s3,s2,255
    23da:	0ff97913          	andi	s2,s2,255
    23de:	8d1d                	sub	a0,a0,a5
    23e0:	485c                	lw	a5,20(s0)
    23e2:	00f54663          	blt	a0,a5,23ee <__swbuf_r+0x52>
    23e6:	85a2                	mv	a1,s0
    23e8:	8526                	mv	a0,s1
    23ea:	2c69                	jal	2684 <_fflush_r>
    23ec:	e525                	bnez	a0,2454 <__swbuf_r+0xb8>
    23ee:	441c                	lw	a5,8(s0)
    23f0:	0505                	addi	a0,a0,1
    23f2:	17fd                	addi	a5,a5,-1
    23f4:	c41c                	sw	a5,8(s0)
    23f6:	401c                	lw	a5,0(s0)
    23f8:	00178713          	addi	a4,a5,1
    23fc:	c018                	sw	a4,0(s0)
    23fe:	01378023          	sb	s3,0(a5)
    2402:	485c                	lw	a5,20(s0)
    2404:	00a78863          	beq	a5,a0,2414 <__swbuf_r+0x78>
    2408:	245e                	lhu	a5,12(s0)
    240a:	8b85                	andi	a5,a5,1
    240c:	cb81                	beqz	a5,241c <__swbuf_r+0x80>
    240e:	47a9                	li	a5,10
    2410:	00f91663          	bne	s2,a5,241c <__swbuf_r+0x80>
    2414:	85a2                	mv	a1,s0
    2416:	8526                	mv	a0,s1
    2418:	24b5                	jal	2684 <_fflush_r>
    241a:	ed0d                	bnez	a0,2454 <__swbuf_r+0xb8>
    241c:	40f2                	lw	ra,28(sp)
    241e:	4462                	lw	s0,24(sp)
    2420:	854a                	mv	a0,s2
    2422:	44d2                	lw	s1,20(sp)
    2424:	4942                	lw	s2,16(sp)
    2426:	49b2                	lw	s3,12(sp)
    2428:	6105                	addi	sp,sp,32
    242a:	8082                	ret
    242c:	00002797          	auipc	a5,0x2
    2430:	8fc78793          	addi	a5,a5,-1796 # 3d28 <__sf_fake_stdout>
    2434:	00f41463          	bne	s0,a5,243c <__swbuf_r+0xa0>
    2438:	4480                	lw	s0,8(s1)
    243a:	b769                	j	23c4 <__swbuf_r+0x28>
    243c:	00002797          	auipc	a5,0x2
    2440:	8ac78793          	addi	a5,a5,-1876 # 3ce8 <__sf_fake_stderr>
    2444:	f8f410e3          	bne	s0,a5,23c4 <__swbuf_r+0x28>
    2448:	44c0                	lw	s0,12(s1)
    244a:	bfad                	j	23c4 <__swbuf_r+0x28>
    244c:	85a2                	mv	a1,s0
    244e:	8526                	mv	a0,s1
    2450:	2021                	jal	2458 <__swsetup_r>
    2452:	d141                	beqz	a0,23d2 <__swbuf_r+0x36>
    2454:	597d                	li	s2,-1
    2456:	b7d9                	j	241c <__swbuf_r+0x80>

00002458 <__swsetup_r>:
    2458:	1141                	addi	sp,sp,-16
    245a:	81418793          	addi	a5,gp,-2028 # 20000094 <_impure_ptr>
    245e:	c226                	sw	s1,4(sp)
    2460:	4384                	lw	s1,0(a5)
    2462:	c422                	sw	s0,8(sp)
    2464:	c04a                	sw	s2,0(sp)
    2466:	c606                	sw	ra,12(sp)
    2468:	892a                	mv	s2,a0
    246a:	842e                	mv	s0,a1
    246c:	c489                	beqz	s1,2476 <__swsetup_r+0x1e>
    246e:	4c9c                	lw	a5,24(s1)
    2470:	e399                	bnez	a5,2476 <__swsetup_r+0x1e>
    2472:	8526                	mv	a0,s1
    2474:	2635                	jal	27a0 <__sinit>
    2476:	00002797          	auipc	a5,0x2
    247a:	89278793          	addi	a5,a5,-1902 # 3d08 <__sf_fake_stdin>
    247e:	02f41b63          	bne	s0,a5,24b4 <__swsetup_r+0x5c>
    2482:	40c0                	lw	s0,4(s1)
    2484:	00c41703          	lh	a4,12(s0)
    2488:	01071793          	slli	a5,a4,0x10
    248c:	83c1                	srli	a5,a5,0x10
    248e:	0087f693          	andi	a3,a5,8
    2492:	eaad                	bnez	a3,2504 <__swsetup_r+0xac>
    2494:	0107f693          	andi	a3,a5,16
    2498:	ee95                	bnez	a3,24d4 <__swsetup_r+0x7c>
    249a:	47a5                	li	a5,9
    249c:	00f92023          	sw	a5,0(s2)
    24a0:	04076713          	ori	a4,a4,64
    24a4:	a45a                	sh	a4,12(s0)
    24a6:	557d                	li	a0,-1
    24a8:	40b2                	lw	ra,12(sp)
    24aa:	4422                	lw	s0,8(sp)
    24ac:	4492                	lw	s1,4(sp)
    24ae:	4902                	lw	s2,0(sp)
    24b0:	0141                	addi	sp,sp,16
    24b2:	8082                	ret
    24b4:	00002797          	auipc	a5,0x2
    24b8:	87478793          	addi	a5,a5,-1932 # 3d28 <__sf_fake_stdout>
    24bc:	00f41463          	bne	s0,a5,24c4 <__swsetup_r+0x6c>
    24c0:	4480                	lw	s0,8(s1)
    24c2:	b7c9                	j	2484 <__swsetup_r+0x2c>
    24c4:	00002797          	auipc	a5,0x2
    24c8:	82478793          	addi	a5,a5,-2012 # 3ce8 <__sf_fake_stderr>
    24cc:	faf41ce3          	bne	s0,a5,2484 <__swsetup_r+0x2c>
    24d0:	44c0                	lw	s0,12(s1)
    24d2:	bf4d                	j	2484 <__swsetup_r+0x2c>
    24d4:	8b91                	andi	a5,a5,4
    24d6:	c39d                	beqz	a5,24fc <__swsetup_r+0xa4>
    24d8:	584c                	lw	a1,52(s0)
    24da:	c989                	beqz	a1,24ec <__swsetup_r+0x94>
    24dc:	04440793          	addi	a5,s0,68
    24e0:	00f58463          	beq	a1,a5,24e8 <__swsetup_r+0x90>
    24e4:	854a                	mv	a0,s2
    24e6:	2b19                	jal	29fc <_free_r>
    24e8:	02042a23          	sw	zero,52(s0)
    24ec:	245e                	lhu	a5,12(s0)
    24ee:	00042223          	sw	zero,4(s0)
    24f2:	fdb7f793          	andi	a5,a5,-37
    24f6:	a45e                	sh	a5,12(s0)
    24f8:	481c                	lw	a5,16(s0)
    24fa:	c01c                	sw	a5,0(s0)
    24fc:	245e                	lhu	a5,12(s0)
    24fe:	0087e793          	ori	a5,a5,8
    2502:	a45e                	sh	a5,12(s0)
    2504:	481c                	lw	a5,16(s0)
    2506:	eb99                	bnez	a5,251c <__swsetup_r+0xc4>
    2508:	245e                	lhu	a5,12(s0)
    250a:	20000713          	li	a4,512
    250e:	2807f793          	andi	a5,a5,640
    2512:	00e78563          	beq	a5,a4,251c <__swsetup_r+0xc4>
    2516:	85a2                	mv	a1,s0
    2518:	854a                	mv	a0,s2
    251a:	2989                	jal	296c <__smakebuf_r>
    251c:	245e                	lhu	a5,12(s0)
    251e:	0017f713          	andi	a4,a5,1
    2522:	c31d                	beqz	a4,2548 <__swsetup_r+0xf0>
    2524:	485c                	lw	a5,20(s0)
    2526:	00042423          	sw	zero,8(s0)
    252a:	40f007b3          	neg	a5,a5
    252e:	cc1c                	sw	a5,24(s0)
    2530:	481c                	lw	a5,16(s0)
    2532:	4501                	li	a0,0
    2534:	fbb5                	bnez	a5,24a8 <__swsetup_r+0x50>
    2536:	00c41783          	lh	a5,12(s0)
    253a:	0807f713          	andi	a4,a5,128
    253e:	d72d                	beqz	a4,24a8 <__swsetup_r+0x50>
    2540:	0407e793          	ori	a5,a5,64
    2544:	a45e                	sh	a5,12(s0)
    2546:	b785                	j	24a6 <__swsetup_r+0x4e>
    2548:	8b89                	andi	a5,a5,2
    254a:	4701                	li	a4,0
    254c:	e391                	bnez	a5,2550 <__swsetup_r+0xf8>
    254e:	4858                	lw	a4,20(s0)
    2550:	c418                	sw	a4,8(s0)
    2552:	bff9                	j	2530 <__swsetup_r+0xd8>

00002554 <__sflush_r>:
    2554:	25de                	lhu	a5,12(a1)
    2556:	1101                	addi	sp,sp,-32
    2558:	cc22                	sw	s0,24(sp)
    255a:	ca26                	sw	s1,20(sp)
    255c:	ce06                	sw	ra,28(sp)
    255e:	c84a                	sw	s2,16(sp)
    2560:	c64e                	sw	s3,12(sp)
    2562:	0087f713          	andi	a4,a5,8
    2566:	84aa                	mv	s1,a0
    2568:	842e                	mv	s0,a1
    256a:	eb79                	bnez	a4,2640 <__sflush_r+0xec>
    256c:	41d8                	lw	a4,4(a1)
    256e:	00e04d63          	bgtz	a4,2588 <__sflush_r+0x34>
    2572:	41b8                	lw	a4,64(a1)
    2574:	00e04a63          	bgtz	a4,2588 <__sflush_r+0x34>
    2578:	4501                	li	a0,0
    257a:	40f2                	lw	ra,28(sp)
    257c:	4462                	lw	s0,24(sp)
    257e:	44d2                	lw	s1,20(sp)
    2580:	4942                	lw	s2,16(sp)
    2582:	49b2                	lw	s3,12(sp)
    2584:	6105                	addi	sp,sp,32
    2586:	8082                	ret
    2588:	5458                	lw	a4,44(s0)
    258a:	d77d                	beqz	a4,2578 <__sflush_r+0x24>
    258c:	0004a903          	lw	s2,0(s1)
    2590:	01379693          	slli	a3,a5,0x13
    2594:	0004a023          	sw	zero,0(s1)
    2598:	0606db63          	bgez	a3,260e <__sflush_r+0xba>
    259c:	4870                	lw	a2,84(s0)
    259e:	245e                	lhu	a5,12(s0)
    25a0:	8b91                	andi	a5,a5,4
    25a2:	c799                	beqz	a5,25b0 <__sflush_r+0x5c>
    25a4:	405c                	lw	a5,4(s0)
    25a6:	8e1d                	sub	a2,a2,a5
    25a8:	585c                	lw	a5,52(s0)
    25aa:	c399                	beqz	a5,25b0 <__sflush_r+0x5c>
    25ac:	403c                	lw	a5,64(s0)
    25ae:	8e1d                	sub	a2,a2,a5
    25b0:	545c                	lw	a5,44(s0)
    25b2:	500c                	lw	a1,32(s0)
    25b4:	4681                	li	a3,0
    25b6:	8526                	mv	a0,s1
    25b8:	9782                	jalr	a5
    25ba:	57fd                	li	a5,-1
    25bc:	245a                	lhu	a4,12(s0)
    25be:	00f51d63          	bne	a0,a5,25d8 <__sflush_r+0x84>
    25c2:	4094                	lw	a3,0(s1)
    25c4:	47f5                	li	a5,29
    25c6:	06d7e863          	bltu	a5,a3,2636 <__sflush_r+0xe2>
    25ca:	204007b7          	lui	a5,0x20400
    25ce:	0785                	addi	a5,a5,1
    25d0:	00d7d7b3          	srl	a5,a5,a3
    25d4:	8b85                	andi	a5,a5,1
    25d6:	c3a5                	beqz	a5,2636 <__sflush_r+0xe2>
    25d8:	481c                	lw	a5,16(s0)
    25da:	00042223          	sw	zero,4(s0)
    25de:	c01c                	sw	a5,0(s0)
    25e0:	01371793          	slli	a5,a4,0x13
    25e4:	0007d863          	bgez	a5,25f4 <__sflush_r+0xa0>
    25e8:	57fd                	li	a5,-1
    25ea:	00f51463          	bne	a0,a5,25f2 <__sflush_r+0x9e>
    25ee:	409c                	lw	a5,0(s1)
    25f0:	e391                	bnez	a5,25f4 <__sflush_r+0xa0>
    25f2:	c868                	sw	a0,84(s0)
    25f4:	584c                	lw	a1,52(s0)
    25f6:	0124a023          	sw	s2,0(s1)
    25fa:	ddbd                	beqz	a1,2578 <__sflush_r+0x24>
    25fc:	04440793          	addi	a5,s0,68
    2600:	00f58463          	beq	a1,a5,2608 <__sflush_r+0xb4>
    2604:	8526                	mv	a0,s1
    2606:	2edd                	jal	29fc <_free_r>
    2608:	02042a23          	sw	zero,52(s0)
    260c:	b7b5                	j	2578 <__sflush_r+0x24>
    260e:	500c                	lw	a1,32(s0)
    2610:	4601                	li	a2,0
    2612:	4685                	li	a3,1
    2614:	8526                	mv	a0,s1
    2616:	9702                	jalr	a4
    2618:	57fd                	li	a5,-1
    261a:	862a                	mv	a2,a0
    261c:	f8f511e3          	bne	a0,a5,259e <__sflush_r+0x4a>
    2620:	409c                	lw	a5,0(s1)
    2622:	dfb5                	beqz	a5,259e <__sflush_r+0x4a>
    2624:	4775                	li	a4,29
    2626:	00e78563          	beq	a5,a4,2630 <__sflush_r+0xdc>
    262a:	4759                	li	a4,22
    262c:	04e79363          	bne	a5,a4,2672 <__sflush_r+0x11e>
    2630:	0124a023          	sw	s2,0(s1)
    2634:	b791                	j	2578 <__sflush_r+0x24>
    2636:	04076713          	ori	a4,a4,64
    263a:	a45a                	sh	a4,12(s0)
    263c:	557d                	li	a0,-1
    263e:	bf35                	j	257a <__sflush_r+0x26>
    2640:	0105a983          	lw	s3,16(a1)
    2644:	f2098ae3          	beqz	s3,2578 <__sflush_r+0x24>
    2648:	0005a903          	lw	s2,0(a1)
    264c:	8b8d                	andi	a5,a5,3
    264e:	0135a023          	sw	s3,0(a1)
    2652:	41390933          	sub	s2,s2,s3
    2656:	4701                	li	a4,0
    2658:	e391                	bnez	a5,265c <__sflush_r+0x108>
    265a:	49d8                	lw	a4,20(a1)
    265c:	c418                	sw	a4,8(s0)
    265e:	f1205de3          	blez	s2,2578 <__sflush_r+0x24>
    2662:	541c                	lw	a5,40(s0)
    2664:	500c                	lw	a1,32(s0)
    2666:	86ca                	mv	a3,s2
    2668:	864e                	mv	a2,s3
    266a:	8526                	mv	a0,s1
    266c:	9782                	jalr	a5
    266e:	00a04763          	bgtz	a0,267c <__sflush_r+0x128>
    2672:	245e                	lhu	a5,12(s0)
    2674:	0407e793          	ori	a5,a5,64
    2678:	a45e                	sh	a5,12(s0)
    267a:	b7c9                	j	263c <__sflush_r+0xe8>
    267c:	99aa                	add	s3,s3,a0
    267e:	40a90933          	sub	s2,s2,a0
    2682:	bff1                	j	265e <__sflush_r+0x10a>

00002684 <_fflush_r>:
    2684:	499c                	lw	a5,16(a1)
    2686:	c3a5                	beqz	a5,26e6 <_fflush_r+0x62>
    2688:	1101                	addi	sp,sp,-32
    268a:	cc22                	sw	s0,24(sp)
    268c:	ce06                	sw	ra,28(sp)
    268e:	842a                	mv	s0,a0
    2690:	c511                	beqz	a0,269c <_fflush_r+0x18>
    2692:	4d1c                	lw	a5,24(a0)
    2694:	e781                	bnez	a5,269c <_fflush_r+0x18>
    2696:	c62e                	sw	a1,12(sp)
    2698:	2221                	jal	27a0 <__sinit>
    269a:	45b2                	lw	a1,12(sp)
    269c:	00001797          	auipc	a5,0x1
    26a0:	66c78793          	addi	a5,a5,1644 # 3d08 <__sf_fake_stdin>
    26a4:	00f59c63          	bne	a1,a5,26bc <_fflush_r+0x38>
    26a8:	404c                	lw	a1,4(s0)
    26aa:	00c59783          	lh	a5,12(a1)
    26ae:	c79d                	beqz	a5,26dc <_fflush_r+0x58>
    26b0:	8522                	mv	a0,s0
    26b2:	4462                	lw	s0,24(sp)
    26b4:	40f2                	lw	ra,28(sp)
    26b6:	6105                	addi	sp,sp,32
    26b8:	e9dff06f          	j	2554 <__sflush_r>
    26bc:	00001797          	auipc	a5,0x1
    26c0:	66c78793          	addi	a5,a5,1644 # 3d28 <__sf_fake_stdout>
    26c4:	00f59463          	bne	a1,a5,26cc <_fflush_r+0x48>
    26c8:	440c                	lw	a1,8(s0)
    26ca:	b7c5                	j	26aa <_fflush_r+0x26>
    26cc:	00001797          	auipc	a5,0x1
    26d0:	61c78793          	addi	a5,a5,1564 # 3ce8 <__sf_fake_stderr>
    26d4:	fcf59be3          	bne	a1,a5,26aa <_fflush_r+0x26>
    26d8:	444c                	lw	a1,12(s0)
    26da:	bfc1                	j	26aa <_fflush_r+0x26>
    26dc:	40f2                	lw	ra,28(sp)
    26de:	4462                	lw	s0,24(sp)
    26e0:	4501                	li	a0,0
    26e2:	6105                	addi	sp,sp,32
    26e4:	8082                	ret
    26e6:	4501                	li	a0,0
    26e8:	8082                	ret

000026ea <std>:
    26ea:	1141                	addi	sp,sp,-16
    26ec:	c422                	sw	s0,8(sp)
    26ee:	c606                	sw	ra,12(sp)
    26f0:	842a                	mv	s0,a0
    26f2:	a54e                	sh	a1,12(a0)
    26f4:	a572                	sh	a2,14(a0)
    26f6:	00052023          	sw	zero,0(a0)
    26fa:	00052223          	sw	zero,4(a0)
    26fe:	00052423          	sw	zero,8(a0)
    2702:	06052223          	sw	zero,100(a0)
    2706:	00052823          	sw	zero,16(a0)
    270a:	00052a23          	sw	zero,20(a0)
    270e:	00052c23          	sw	zero,24(a0)
    2712:	4621                	li	a2,8
    2714:	4581                	li	a1,0
    2716:	05c50513          	addi	a0,a0,92
    271a:	a47fd0ef          	jal	ra,160 <memset>
    271e:	00001797          	auipc	a5,0x1
    2722:	b2278793          	addi	a5,a5,-1246 # 3240 <__sread>
    2726:	d05c                	sw	a5,36(s0)
    2728:	00001797          	auipc	a5,0x1
    272c:	b4478793          	addi	a5,a5,-1212 # 326c <__swrite>
    2730:	d41c                	sw	a5,40(s0)
    2732:	00001797          	auipc	a5,0x1
    2736:	b8278793          	addi	a5,a5,-1150 # 32b4 <__sseek>
    273a:	d45c                	sw	a5,44(s0)
    273c:	00001797          	auipc	a5,0x1
    2740:	ba878793          	addi	a5,a5,-1112 # 32e4 <__sclose>
    2744:	d000                	sw	s0,32(s0)
    2746:	d81c                	sw	a5,48(s0)
    2748:	40b2                	lw	ra,12(sp)
    274a:	4422                	lw	s0,8(sp)
    274c:	0141                	addi	sp,sp,16
    274e:	8082                	ret

00002750 <_cleanup_r>:
    2750:	00000597          	auipc	a1,0x0
    2754:	f3458593          	addi	a1,a1,-204 # 2684 <_fflush_r>
    2758:	aa89                	j	28aa <_fwalk_reent>

0000275a <__sfmoreglue>:
    275a:	1141                	addi	sp,sp,-16
    275c:	c226                	sw	s1,4(sp)
    275e:	06800613          	li	a2,104
    2762:	fff58493          	addi	s1,a1,-1
    2766:	02c484b3          	mul	s1,s1,a2
    276a:	c04a                	sw	s2,0(sp)
    276c:	892e                	mv	s2,a1
    276e:	c422                	sw	s0,8(sp)
    2770:	c606                	sw	ra,12(sp)
    2772:	07448593          	addi	a1,s1,116
    2776:	263d                	jal	2aa4 <_malloc_r>
    2778:	842a                	mv	s0,a0
    277a:	cd01                	beqz	a0,2792 <__sfmoreglue+0x38>
    277c:	00052023          	sw	zero,0(a0)
    2780:	01252223          	sw	s2,4(a0)
    2784:	0531                	addi	a0,a0,12
    2786:	c408                	sw	a0,8(s0)
    2788:	06848613          	addi	a2,s1,104
    278c:	4581                	li	a1,0
    278e:	9d3fd0ef          	jal	ra,160 <memset>
    2792:	8522                	mv	a0,s0
    2794:	40b2                	lw	ra,12(sp)
    2796:	4422                	lw	s0,8(sp)
    2798:	4492                	lw	s1,4(sp)
    279a:	4902                	lw	s2,0(sp)
    279c:	0141                	addi	sp,sp,16
    279e:	8082                	ret

000027a0 <__sinit>:
    27a0:	4d1c                	lw	a5,24(a0)
    27a2:	e7a5                	bnez	a5,280a <__sinit+0x6a>
    27a4:	1141                	addi	sp,sp,-16
    27a6:	c606                	sw	ra,12(sp)
    27a8:	c422                	sw	s0,8(sp)
    27aa:	00000797          	auipc	a5,0x0
    27ae:	fa678793          	addi	a5,a5,-90 # 2750 <_cleanup_r>
    27b2:	d51c                	sw	a5,40(a0)
    27b4:	82018793          	addi	a5,gp,-2016 # 200000a0 <_global_impure_ptr>
    27b8:	439c                	lw	a5,0(a5)
    27ba:	04052423          	sw	zero,72(a0)
    27be:	04052623          	sw	zero,76(a0)
    27c2:	04052823          	sw	zero,80(a0)
    27c6:	00f51463          	bne	a0,a5,27ce <__sinit+0x2e>
    27ca:	4785                	li	a5,1
    27cc:	cd1c                	sw	a5,24(a0)
    27ce:	842a                	mv	s0,a0
    27d0:	2835                	jal	280c <__sfp>
    27d2:	c048                	sw	a0,4(s0)
    27d4:	8522                	mv	a0,s0
    27d6:	281d                	jal	280c <__sfp>
    27d8:	c408                	sw	a0,8(s0)
    27da:	8522                	mv	a0,s0
    27dc:	2805                	jal	280c <__sfp>
    27de:	c448                	sw	a0,12(s0)
    27e0:	4048                	lw	a0,4(s0)
    27e2:	4601                	li	a2,0
    27e4:	4591                	li	a1,4
    27e6:	f05ff0ef          	jal	ra,26ea <std>
    27ea:	4408                	lw	a0,8(s0)
    27ec:	4605                	li	a2,1
    27ee:	45a5                	li	a1,9
    27f0:	efbff0ef          	jal	ra,26ea <std>
    27f4:	4448                	lw	a0,12(s0)
    27f6:	4609                	li	a2,2
    27f8:	45c9                	li	a1,18
    27fa:	ef1ff0ef          	jal	ra,26ea <std>
    27fe:	4785                	li	a5,1
    2800:	cc1c                	sw	a5,24(s0)
    2802:	40b2                	lw	ra,12(sp)
    2804:	4422                	lw	s0,8(sp)
    2806:	0141                	addi	sp,sp,16
    2808:	8082                	ret
    280a:	8082                	ret

0000280c <__sfp>:
    280c:	1141                	addi	sp,sp,-16
    280e:	82018793          	addi	a5,gp,-2016 # 200000a0 <_global_impure_ptr>
    2812:	c226                	sw	s1,4(sp)
    2814:	4384                	lw	s1,0(a5)
    2816:	c04a                	sw	s2,0(sp)
    2818:	c606                	sw	ra,12(sp)
    281a:	4c9c                	lw	a5,24(s1)
    281c:	c422                	sw	s0,8(sp)
    281e:	892a                	mv	s2,a0
    2820:	e399                	bnez	a5,2826 <__sfp+0x1a>
    2822:	8526                	mv	a0,s1
    2824:	3fb5                	jal	27a0 <__sinit>
    2826:	04848493          	addi	s1,s1,72
    282a:	4480                	lw	s0,8(s1)
    282c:	40dc                	lw	a5,4(s1)
    282e:	17fd                	addi	a5,a5,-1
    2830:	0007d663          	bgez	a5,283c <__sfp+0x30>
    2834:	409c                	lw	a5,0(s1)
    2836:	cfb9                	beqz	a5,2894 <__sfp+0x88>
    2838:	4084                	lw	s1,0(s1)
    283a:	bfc5                	j	282a <__sfp+0x1e>
    283c:	00c41703          	lh	a4,12(s0)
    2840:	e739                	bnez	a4,288e <__sfp+0x82>
    2842:	77c1                	lui	a5,0xffff0
    2844:	0785                	addi	a5,a5,1
    2846:	06042223          	sw	zero,100(s0)
    284a:	00042023          	sw	zero,0(s0)
    284e:	00042223          	sw	zero,4(s0)
    2852:	00042423          	sw	zero,8(s0)
    2856:	c45c                	sw	a5,12(s0)
    2858:	00042823          	sw	zero,16(s0)
    285c:	00042a23          	sw	zero,20(s0)
    2860:	00042c23          	sw	zero,24(s0)
    2864:	4621                	li	a2,8
    2866:	4581                	li	a1,0
    2868:	05c40513          	addi	a0,s0,92
    286c:	8f5fd0ef          	jal	ra,160 <memset>
    2870:	02042a23          	sw	zero,52(s0)
    2874:	02042c23          	sw	zero,56(s0)
    2878:	04042423          	sw	zero,72(s0)
    287c:	04042623          	sw	zero,76(s0)
    2880:	8522                	mv	a0,s0
    2882:	40b2                	lw	ra,12(sp)
    2884:	4422                	lw	s0,8(sp)
    2886:	4492                	lw	s1,4(sp)
    2888:	4902                	lw	s2,0(sp)
    288a:	0141                	addi	sp,sp,16
    288c:	8082                	ret
    288e:	06840413          	addi	s0,s0,104
    2892:	bf71                	j	282e <__sfp+0x22>
    2894:	4591                	li	a1,4
    2896:	854a                	mv	a0,s2
    2898:	ec3ff0ef          	jal	ra,275a <__sfmoreglue>
    289c:	c088                	sw	a0,0(s1)
    289e:	fd49                	bnez	a0,2838 <__sfp+0x2c>
    28a0:	47b1                	li	a5,12
    28a2:	00f92023          	sw	a5,0(s2)
    28a6:	4401                	li	s0,0
    28a8:	bfe1                	j	2880 <__sfp+0x74>

000028aa <_fwalk_reent>:
    28aa:	7179                	addi	sp,sp,-48
    28ac:	d422                	sw	s0,40(sp)
    28ae:	d04a                	sw	s2,32(sp)
    28b0:	cc52                	sw	s4,24(sp)
    28b2:	ca56                	sw	s5,20(sp)
    28b4:	c85a                	sw	s6,16(sp)
    28b6:	c65e                	sw	s7,12(sp)
    28b8:	d606                	sw	ra,44(sp)
    28ba:	d226                	sw	s1,36(sp)
    28bc:	ce4e                	sw	s3,28(sp)
    28be:	8a2a                	mv	s4,a0
    28c0:	8aae                	mv	s5,a1
    28c2:	04850413          	addi	s0,a0,72
    28c6:	4901                	li	s2,0
    28c8:	4b05                	li	s6,1
    28ca:	5bfd                	li	s7,-1
    28cc:	ec09                	bnez	s0,28e6 <_fwalk_reent+0x3c>
    28ce:	50b2                	lw	ra,44(sp)
    28d0:	5422                	lw	s0,40(sp)
    28d2:	854a                	mv	a0,s2
    28d4:	5492                	lw	s1,36(sp)
    28d6:	5902                	lw	s2,32(sp)
    28d8:	49f2                	lw	s3,28(sp)
    28da:	4a62                	lw	s4,24(sp)
    28dc:	4ad2                	lw	s5,20(sp)
    28de:	4b42                	lw	s6,16(sp)
    28e0:	4bb2                	lw	s7,12(sp)
    28e2:	6145                	addi	sp,sp,48
    28e4:	8082                	ret
    28e6:	4404                	lw	s1,8(s0)
    28e8:	00442983          	lw	s3,4(s0)
    28ec:	19fd                	addi	s3,s3,-1
    28ee:	0009d463          	bgez	s3,28f6 <_fwalk_reent+0x4c>
    28f2:	4000                	lw	s0,0(s0)
    28f4:	bfe1                	j	28cc <_fwalk_reent+0x22>
    28f6:	24de                	lhu	a5,12(s1)
    28f8:	00fb7b63          	bgeu	s6,a5,290e <_fwalk_reent+0x64>
    28fc:	00e49783          	lh	a5,14(s1)
    2900:	01778763          	beq	a5,s7,290e <_fwalk_reent+0x64>
    2904:	85a6                	mv	a1,s1
    2906:	8552                	mv	a0,s4
    2908:	9a82                	jalr	s5
    290a:	00a96933          	or	s2,s2,a0
    290e:	06848493          	addi	s1,s1,104
    2912:	bfe9                	j	28ec <_fwalk_reent+0x42>

00002914 <__swhatbuf_r>:
    2914:	7119                	addi	sp,sp,-128
    2916:	daa6                	sw	s1,116(sp)
    2918:	84ae                	mv	s1,a1
    291a:	00e59583          	lh	a1,14(a1)
    291e:	dca2                	sw	s0,120(sp)
    2920:	de86                	sw	ra,124(sp)
    2922:	8432                	mv	s0,a2
    2924:	0005db63          	bgez	a1,293a <__swhatbuf_r+0x26>
    2928:	24de                	lhu	a5,12(s1)
    292a:	0006a023          	sw	zero,0(a3)
    292e:	0807f793          	andi	a5,a5,128
    2932:	e785                	bnez	a5,295a <__swhatbuf_r+0x46>
    2934:	40000793          	li	a5,1024
    2938:	a01d                	j	295e <__swhatbuf_r+0x4a>
    293a:	0830                	addi	a2,sp,24
    293c:	c636                	sw	a3,12(sp)
    293e:	203000ef          	jal	ra,3340 <_fstat_r>
    2942:	46b2                	lw	a3,12(sp)
    2944:	fe0542e3          	bltz	a0,2928 <__swhatbuf_r+0x14>
    2948:	4772                	lw	a4,28(sp)
    294a:	67bd                	lui	a5,0xf
    294c:	8ff9                	and	a5,a5,a4
    294e:	7779                	lui	a4,0xffffe
    2950:	97ba                	add	a5,a5,a4
    2952:	0017b793          	seqz	a5,a5
    2956:	c29c                	sw	a5,0(a3)
    2958:	bff1                	j	2934 <__swhatbuf_r+0x20>
    295a:	04000793          	li	a5,64
    295e:	c01c                	sw	a5,0(s0)
    2960:	50f6                	lw	ra,124(sp)
    2962:	5466                	lw	s0,120(sp)
    2964:	54d6                	lw	s1,116(sp)
    2966:	4501                	li	a0,0
    2968:	6109                	addi	sp,sp,128
    296a:	8082                	ret

0000296c <__smakebuf_r>:
    296c:	25de                	lhu	a5,12(a1)
    296e:	1101                	addi	sp,sp,-32
    2970:	cc22                	sw	s0,24(sp)
    2972:	ce06                	sw	ra,28(sp)
    2974:	ca26                	sw	s1,20(sp)
    2976:	c84a                	sw	s2,16(sp)
    2978:	8b89                	andi	a5,a5,2
    297a:	842e                	mv	s0,a1
    297c:	cf89                	beqz	a5,2996 <__smakebuf_r+0x2a>
    297e:	04740793          	addi	a5,s0,71
    2982:	c01c                	sw	a5,0(s0)
    2984:	c81c                	sw	a5,16(s0)
    2986:	4785                	li	a5,1
    2988:	c85c                	sw	a5,20(s0)
    298a:	40f2                	lw	ra,28(sp)
    298c:	4462                	lw	s0,24(sp)
    298e:	44d2                	lw	s1,20(sp)
    2990:	4942                	lw	s2,16(sp)
    2992:	6105                	addi	sp,sp,32
    2994:	8082                	ret
    2996:	0074                	addi	a3,sp,12
    2998:	0030                	addi	a2,sp,8
    299a:	84aa                	mv	s1,a0
    299c:	3fa5                	jal	2914 <__swhatbuf_r>
    299e:	45a2                	lw	a1,8(sp)
    29a0:	892a                	mv	s2,a0
    29a2:	8526                	mv	a0,s1
    29a4:	2201                	jal	2aa4 <_malloc_r>
    29a6:	e919                	bnez	a0,29bc <__smakebuf_r+0x50>
    29a8:	00c41783          	lh	a5,12(s0)
    29ac:	2007f713          	andi	a4,a5,512
    29b0:	ff69                	bnez	a4,298a <__smakebuf_r+0x1e>
    29b2:	9bf1                	andi	a5,a5,-4
    29b4:	0027e793          	ori	a5,a5,2
    29b8:	a45e                	sh	a5,12(s0)
    29ba:	b7d1                	j	297e <__smakebuf_r+0x12>
    29bc:	00000797          	auipc	a5,0x0
    29c0:	d9478793          	addi	a5,a5,-620 # 2750 <_cleanup_r>
    29c4:	d49c                	sw	a5,40(s1)
    29c6:	245e                	lhu	a5,12(s0)
    29c8:	c008                	sw	a0,0(s0)
    29ca:	c808                	sw	a0,16(s0)
    29cc:	0807e793          	ori	a5,a5,128
    29d0:	a45e                	sh	a5,12(s0)
    29d2:	47a2                	lw	a5,8(sp)
    29d4:	c85c                	sw	a5,20(s0)
    29d6:	47b2                	lw	a5,12(sp)
    29d8:	cf81                	beqz	a5,29f0 <__smakebuf_r+0x84>
    29da:	00e41583          	lh	a1,14(s0)
    29de:	8526                	mv	a0,s1
    29e0:	18b000ef          	jal	ra,336a <_isatty_r>
    29e4:	c511                	beqz	a0,29f0 <__smakebuf_r+0x84>
    29e6:	245e                	lhu	a5,12(s0)
    29e8:	9bf1                	andi	a5,a5,-4
    29ea:	0017e793          	ori	a5,a5,1
    29ee:	a45e                	sh	a5,12(s0)
    29f0:	245e                	lhu	a5,12(s0)
    29f2:	00f96933          	or	s2,s2,a5
    29f6:	01241623          	sh	s2,12(s0)
    29fa:	bf41                	j	298a <__smakebuf_r+0x1e>

000029fc <_free_r>:
    29fc:	c1dd                	beqz	a1,2aa2 <_free_r+0xa6>
    29fe:	ffc5a783          	lw	a5,-4(a1)
    2a02:	1141                	addi	sp,sp,-16
    2a04:	c422                	sw	s0,8(sp)
    2a06:	c606                	sw	ra,12(sp)
    2a08:	c226                	sw	s1,4(sp)
    2a0a:	ffc58413          	addi	s0,a1,-4
    2a0e:	0007d363          	bgez	a5,2a14 <_free_r+0x18>
    2a12:	943e                	add	s0,s0,a5
    2a14:	84aa                	mv	s1,a0
    2a16:	1c1000ef          	jal	ra,33d6 <__malloc_lock>
    2a1a:	86018793          	addi	a5,gp,-1952 # 200000e0 <__malloc_free_list>
    2a1e:	439c                	lw	a5,0(a5)
    2a20:	ef81                	bnez	a5,2a38 <_free_r+0x3c>
    2a22:	00042223          	sw	zero,4(s0)
    2a26:	8681a023          	sw	s0,-1952(gp) # 200000e0 <__malloc_free_list>
    2a2a:	4422                	lw	s0,8(sp)
    2a2c:	40b2                	lw	ra,12(sp)
    2a2e:	8526                	mv	a0,s1
    2a30:	4492                	lw	s1,4(sp)
    2a32:	0141                	addi	sp,sp,16
    2a34:	1a50006f          	j	33d8 <__malloc_unlock>
    2a38:	00f47e63          	bgeu	s0,a5,2a54 <_free_r+0x58>
    2a3c:	4014                	lw	a3,0(s0)
    2a3e:	00d40733          	add	a4,s0,a3
    2a42:	00e79663          	bne	a5,a4,2a4e <_free_r+0x52>
    2a46:	4398                	lw	a4,0(a5)
    2a48:	43dc                	lw	a5,4(a5)
    2a4a:	9736                	add	a4,a4,a3
    2a4c:	c018                	sw	a4,0(s0)
    2a4e:	c05c                	sw	a5,4(s0)
    2a50:	bfd9                	j	2a26 <_free_r+0x2a>
    2a52:	87ba                	mv	a5,a4
    2a54:	43d8                	lw	a4,4(a5)
    2a56:	c319                	beqz	a4,2a5c <_free_r+0x60>
    2a58:	fee47de3          	bgeu	s0,a4,2a52 <_free_r+0x56>
    2a5c:	4394                	lw	a3,0(a5)
    2a5e:	00d78633          	add	a2,a5,a3
    2a62:	00861f63          	bne	a2,s0,2a80 <_free_r+0x84>
    2a66:	4010                	lw	a2,0(s0)
    2a68:	96b2                	add	a3,a3,a2
    2a6a:	c394                	sw	a3,0(a5)
    2a6c:	00d78633          	add	a2,a5,a3
    2a70:	fac71de3          	bne	a4,a2,2a2a <_free_r+0x2e>
    2a74:	4310                	lw	a2,0(a4)
    2a76:	4358                	lw	a4,4(a4)
    2a78:	96b2                	add	a3,a3,a2
    2a7a:	c394                	sw	a3,0(a5)
    2a7c:	c3d8                	sw	a4,4(a5)
    2a7e:	b775                	j	2a2a <_free_r+0x2e>
    2a80:	00c47563          	bgeu	s0,a2,2a8a <_free_r+0x8e>
    2a84:	47b1                	li	a5,12
    2a86:	c09c                	sw	a5,0(s1)
    2a88:	b74d                	j	2a2a <_free_r+0x2e>
    2a8a:	4010                	lw	a2,0(s0)
    2a8c:	00c406b3          	add	a3,s0,a2
    2a90:	00d71663          	bne	a4,a3,2a9c <_free_r+0xa0>
    2a94:	4314                	lw	a3,0(a4)
    2a96:	4358                	lw	a4,4(a4)
    2a98:	96b2                	add	a3,a3,a2
    2a9a:	c014                	sw	a3,0(s0)
    2a9c:	c058                	sw	a4,4(s0)
    2a9e:	c3c0                	sw	s0,4(a5)
    2aa0:	b769                	j	2a2a <_free_r+0x2e>
    2aa2:	8082                	ret

00002aa4 <_malloc_r>:
    2aa4:	1101                	addi	sp,sp,-32
    2aa6:	ca26                	sw	s1,20(sp)
    2aa8:	00358493          	addi	s1,a1,3
    2aac:	98f1                	andi	s1,s1,-4
    2aae:	ce06                	sw	ra,28(sp)
    2ab0:	cc22                	sw	s0,24(sp)
    2ab2:	c84a                	sw	s2,16(sp)
    2ab4:	c64e                	sw	s3,12(sp)
    2ab6:	04a1                	addi	s1,s1,8
    2ab8:	47b1                	li	a5,12
    2aba:	04f4f363          	bgeu	s1,a5,2b00 <_malloc_r+0x5c>
    2abe:	44b1                	li	s1,12
    2ac0:	04b4e263          	bltu	s1,a1,2b04 <_malloc_r+0x60>
    2ac4:	892a                	mv	s2,a0
    2ac6:	111000ef          	jal	ra,33d6 <__malloc_lock>
    2aca:	86018793          	addi	a5,gp,-1952 # 200000e0 <__malloc_free_list>
    2ace:	4398                	lw	a4,0(a5)
    2ad0:	843a                	mv	s0,a4
    2ad2:	e039                	bnez	s0,2b18 <_malloc_r+0x74>
    2ad4:	86418793          	addi	a5,gp,-1948 # 200000e4 <__malloc_sbrk_start>
    2ad8:	439c                	lw	a5,0(a5)
    2ada:	e791                	bnez	a5,2ae6 <_malloc_r+0x42>
    2adc:	4581                	li	a1,0
    2ade:	854a                	mv	a0,s2
    2ae0:	2f1d                	jal	3216 <_sbrk_r>
    2ae2:	86a1a223          	sw	a0,-1948(gp) # 200000e4 <__malloc_sbrk_start>
    2ae6:	85a6                	mv	a1,s1
    2ae8:	854a                	mv	a0,s2
    2aea:	2735                	jal	3216 <_sbrk_r>
    2aec:	59fd                	li	s3,-1
    2aee:	07351963          	bne	a0,s3,2b60 <_malloc_r+0xbc>
    2af2:	47b1                	li	a5,12
    2af4:	00f92023          	sw	a5,0(s2)
    2af8:	854a                	mv	a0,s2
    2afa:	0df000ef          	jal	ra,33d8 <__malloc_unlock>
    2afe:	a029                	j	2b08 <_malloc_r+0x64>
    2b00:	fc04d0e3          	bgez	s1,2ac0 <_malloc_r+0x1c>
    2b04:	47b1                	li	a5,12
    2b06:	c11c                	sw	a5,0(a0)
    2b08:	4501                	li	a0,0
    2b0a:	40f2                	lw	ra,28(sp)
    2b0c:	4462                	lw	s0,24(sp)
    2b0e:	44d2                	lw	s1,20(sp)
    2b10:	4942                	lw	s2,16(sp)
    2b12:	49b2                	lw	s3,12(sp)
    2b14:	6105                	addi	sp,sp,32
    2b16:	8082                	ret
    2b18:	401c                	lw	a5,0(s0)
    2b1a:	8f85                	sub	a5,a5,s1
    2b1c:	0207cf63          	bltz	a5,2b5a <_malloc_r+0xb6>
    2b20:	46ad                	li	a3,11
    2b22:	00f6f663          	bgeu	a3,a5,2b2e <_malloc_r+0x8a>
    2b26:	c01c                	sw	a5,0(s0)
    2b28:	943e                	add	s0,s0,a5
    2b2a:	c004                	sw	s1,0(s0)
    2b2c:	a031                	j	2b38 <_malloc_r+0x94>
    2b2e:	405c                	lw	a5,4(s0)
    2b30:	02871363          	bne	a4,s0,2b56 <_malloc_r+0xb2>
    2b34:	86f1a023          	sw	a5,-1952(gp) # 200000e0 <__malloc_free_list>
    2b38:	854a                	mv	a0,s2
    2b3a:	09f000ef          	jal	ra,33d8 <__malloc_unlock>
    2b3e:	00b40513          	addi	a0,s0,11
    2b42:	00440793          	addi	a5,s0,4
    2b46:	9961                	andi	a0,a0,-8
    2b48:	40f50733          	sub	a4,a0,a5
    2b4c:	df5d                	beqz	a4,2b0a <_malloc_r+0x66>
    2b4e:	943a                	add	s0,s0,a4
    2b50:	8f89                	sub	a5,a5,a0
    2b52:	c01c                	sw	a5,0(s0)
    2b54:	bf5d                	j	2b0a <_malloc_r+0x66>
    2b56:	c35c                	sw	a5,4(a4)
    2b58:	b7c5                	j	2b38 <_malloc_r+0x94>
    2b5a:	8722                	mv	a4,s0
    2b5c:	4040                	lw	s0,4(s0)
    2b5e:	bf95                	j	2ad2 <_malloc_r+0x2e>
    2b60:	00350413          	addi	s0,a0,3
    2b64:	9871                	andi	s0,s0,-4
    2b66:	fc8502e3          	beq	a0,s0,2b2a <_malloc_r+0x86>
    2b6a:	40a405b3          	sub	a1,s0,a0
    2b6e:	854a                	mv	a0,s2
    2b70:	255d                	jal	3216 <_sbrk_r>
    2b72:	fb351ce3          	bne	a0,s3,2b2a <_malloc_r+0x86>
    2b76:	bfb5                	j	2af2 <_malloc_r+0x4e>

00002b78 <__sfputc_r>:
    2b78:	461c                	lw	a5,8(a2)
    2b7a:	17fd                	addi	a5,a5,-1
    2b7c:	c61c                	sw	a5,8(a2)
    2b7e:	0007da63          	bgez	a5,2b92 <__sfputc_r+0x1a>
    2b82:	4e18                	lw	a4,24(a2)
    2b84:	00e7c563          	blt	a5,a4,2b8e <__sfputc_r+0x16>
    2b88:	47a9                	li	a5,10
    2b8a:	00f59463          	bne	a1,a5,2b92 <__sfputc_r+0x1a>
    2b8e:	80fff06f          	j	239c <__swbuf_r>
    2b92:	421c                	lw	a5,0(a2)
    2b94:	852e                	mv	a0,a1
    2b96:	00178713          	addi	a4,a5,1
    2b9a:	c218                	sw	a4,0(a2)
    2b9c:	a38c                	sb	a1,0(a5)
    2b9e:	8082                	ret

00002ba0 <__sfputs_r>:
    2ba0:	1101                	addi	sp,sp,-32
    2ba2:	cc22                	sw	s0,24(sp)
    2ba4:	ca26                	sw	s1,20(sp)
    2ba6:	c84a                	sw	s2,16(sp)
    2ba8:	c64e                	sw	s3,12(sp)
    2baa:	c452                	sw	s4,8(sp)
    2bac:	ce06                	sw	ra,28(sp)
    2bae:	892a                	mv	s2,a0
    2bb0:	89ae                	mv	s3,a1
    2bb2:	8432                	mv	s0,a2
    2bb4:	00d604b3          	add	s1,a2,a3
    2bb8:	5a7d                	li	s4,-1
    2bba:	00941463          	bne	s0,s1,2bc2 <__sfputs_r+0x22>
    2bbe:	4501                	li	a0,0
    2bc0:	a801                	j	2bd0 <__sfputs_r+0x30>
    2bc2:	200c                	lbu	a1,0(s0)
    2bc4:	864e                	mv	a2,s3
    2bc6:	854a                	mv	a0,s2
    2bc8:	3f45                	jal	2b78 <__sfputc_r>
    2bca:	0405                	addi	s0,s0,1
    2bcc:	ff4517e3          	bne	a0,s4,2bba <__sfputs_r+0x1a>
    2bd0:	40f2                	lw	ra,28(sp)
    2bd2:	4462                	lw	s0,24(sp)
    2bd4:	44d2                	lw	s1,20(sp)
    2bd6:	4942                	lw	s2,16(sp)
    2bd8:	49b2                	lw	s3,12(sp)
    2bda:	4a22                	lw	s4,8(sp)
    2bdc:	6105                	addi	sp,sp,32
    2bde:	8082                	ret

00002be0 <_vfiprintf_r>:
    2be0:	7135                	addi	sp,sp,-160
    2be2:	cd22                	sw	s0,152(sp)
    2be4:	cb26                	sw	s1,148(sp)
    2be6:	c94a                	sw	s2,144(sp)
    2be8:	c74e                	sw	s3,140(sp)
    2bea:	cf06                	sw	ra,156(sp)
    2bec:	c552                	sw	s4,136(sp)
    2bee:	c356                	sw	s5,132(sp)
    2bf0:	c15a                	sw	s6,128(sp)
    2bf2:	dede                	sw	s7,124(sp)
    2bf4:	dce2                	sw	s8,120(sp)
    2bf6:	dae6                	sw	s9,116(sp)
    2bf8:	89aa                	mv	s3,a0
    2bfa:	84ae                	mv	s1,a1
    2bfc:	8932                	mv	s2,a2
    2bfe:	8436                	mv	s0,a3
    2c00:	c509                	beqz	a0,2c0a <_vfiprintf_r+0x2a>
    2c02:	4d1c                	lw	a5,24(a0)
    2c04:	e399                	bnez	a5,2c0a <_vfiprintf_r+0x2a>
    2c06:	b9bff0ef          	jal	ra,27a0 <__sinit>
    2c0a:	00001797          	auipc	a5,0x1
    2c0e:	0fe78793          	addi	a5,a5,254 # 3d08 <__sf_fake_stdin>
    2c12:	0cf49863          	bne	s1,a5,2ce2 <_vfiprintf_r+0x102>
    2c16:	0049a483          	lw	s1,4(s3)
    2c1a:	24de                	lhu	a5,12(s1)
    2c1c:	8ba1                	andi	a5,a5,8
    2c1e:	c7e5                	beqz	a5,2d06 <_vfiprintf_r+0x126>
    2c20:	489c                	lw	a5,16(s1)
    2c22:	c3f5                	beqz	a5,2d06 <_vfiprintf_r+0x126>
    2c24:	02000793          	li	a5,32
    2c28:	02f104a3          	sb	a5,41(sp)
    2c2c:	03000793          	li	a5,48
    2c30:	d202                	sw	zero,36(sp)
    2c32:	02f10523          	sb	a5,42(sp)
    2c36:	c622                	sw	s0,12(sp)
    2c38:	02500b93          	li	s7,37
    2c3c:	00001a97          	auipc	s5,0x1
    2c40:	10ca8a93          	addi	s5,s5,268 # 3d48 <__sf_fake_stdout+0x20>
    2c44:	4c05                	li	s8,1
    2c46:	4b29                	li	s6,10
    2c48:	844a                	mv	s0,s2
    2c4a:	201c                	lbu	a5,0(s0)
    2c4c:	c399                	beqz	a5,2c52 <_vfiprintf_r+0x72>
    2c4e:	0d779f63          	bne	a5,s7,2d2c <_vfiprintf_r+0x14c>
    2c52:	41240cb3          	sub	s9,s0,s2
    2c56:	000c8e63          	beqz	s9,2c72 <_vfiprintf_r+0x92>
    2c5a:	86e6                	mv	a3,s9
    2c5c:	864a                	mv	a2,s2
    2c5e:	85a6                	mv	a1,s1
    2c60:	854e                	mv	a0,s3
    2c62:	f3fff0ef          	jal	ra,2ba0 <__sfputs_r>
    2c66:	57fd                	li	a5,-1
    2c68:	1cf50f63          	beq	a0,a5,2e46 <_vfiprintf_r+0x266>
    2c6c:	5692                	lw	a3,36(sp)
    2c6e:	96e6                	add	a3,a3,s9
    2c70:	d236                	sw	a3,36(sp)
    2c72:	201c                	lbu	a5,0(s0)
    2c74:	1c078963          	beqz	a5,2e46 <_vfiprintf_r+0x266>
    2c78:	57fd                	li	a5,-1
    2c7a:	00140913          	addi	s2,s0,1
    2c7e:	c802                	sw	zero,16(sp)
    2c80:	ce02                	sw	zero,28(sp)
    2c82:	ca3e                	sw	a5,20(sp)
    2c84:	cc02                	sw	zero,24(sp)
    2c86:	040109a3          	sb	zero,83(sp)
    2c8a:	d482                	sw	zero,104(sp)
    2c8c:	00094583          	lbu	a1,0(s2)
    2c90:	4615                	li	a2,5
    2c92:	8556                	mv	a0,s5
    2c94:	272d                	jal	33be <memchr>
    2c96:	00190413          	addi	s0,s2,1
    2c9a:	47c2                	lw	a5,16(sp)
    2c9c:	e951                	bnez	a0,2d30 <_vfiprintf_r+0x150>
    2c9e:	0107f713          	andi	a4,a5,16
    2ca2:	c709                	beqz	a4,2cac <_vfiprintf_r+0xcc>
    2ca4:	02000713          	li	a4,32
    2ca8:	04e109a3          	sb	a4,83(sp)
    2cac:	0087f713          	andi	a4,a5,8
    2cb0:	c709                	beqz	a4,2cba <_vfiprintf_r+0xda>
    2cb2:	02b00713          	li	a4,43
    2cb6:	04e109a3          	sb	a4,83(sp)
    2cba:	00094683          	lbu	a3,0(s2)
    2cbe:	02a00713          	li	a4,42
    2cc2:	06e68f63          	beq	a3,a4,2d40 <_vfiprintf_r+0x160>
    2cc6:	47f2                	lw	a5,28(sp)
    2cc8:	844a                	mv	s0,s2
    2cca:	4681                	li	a3,0
    2ccc:	4625                	li	a2,9
    2cce:	2018                	lbu	a4,0(s0)
    2cd0:	00140593          	addi	a1,s0,1
    2cd4:	fd070713          	addi	a4,a4,-48 # ffffdfd0 <_eusrstack+0xdfff8fd0>
    2cd8:	0ae67763          	bgeu	a2,a4,2d86 <_vfiprintf_r+0x1a6>
    2cdc:	cab5                	beqz	a3,2d50 <_vfiprintf_r+0x170>
    2cde:	ce3e                	sw	a5,28(sp)
    2ce0:	a885                	j	2d50 <_vfiprintf_r+0x170>
    2ce2:	00001797          	auipc	a5,0x1
    2ce6:	04678793          	addi	a5,a5,70 # 3d28 <__sf_fake_stdout>
    2cea:	00f49563          	bne	s1,a5,2cf4 <_vfiprintf_r+0x114>
    2cee:	0089a483          	lw	s1,8(s3)
    2cf2:	b725                	j	2c1a <_vfiprintf_r+0x3a>
    2cf4:	00001797          	auipc	a5,0x1
    2cf8:	ff478793          	addi	a5,a5,-12 # 3ce8 <__sf_fake_stderr>
    2cfc:	f0f49fe3          	bne	s1,a5,2c1a <_vfiprintf_r+0x3a>
    2d00:	00c9a483          	lw	s1,12(s3)
    2d04:	bf19                	j	2c1a <_vfiprintf_r+0x3a>
    2d06:	85a6                	mv	a1,s1
    2d08:	854e                	mv	a0,s3
    2d0a:	f4eff0ef          	jal	ra,2458 <__swsetup_r>
    2d0e:	d919                	beqz	a0,2c24 <_vfiprintf_r+0x44>
    2d10:	557d                	li	a0,-1
    2d12:	40fa                	lw	ra,156(sp)
    2d14:	446a                	lw	s0,152(sp)
    2d16:	44da                	lw	s1,148(sp)
    2d18:	494a                	lw	s2,144(sp)
    2d1a:	49ba                	lw	s3,140(sp)
    2d1c:	4a2a                	lw	s4,136(sp)
    2d1e:	4a9a                	lw	s5,132(sp)
    2d20:	4b0a                	lw	s6,128(sp)
    2d22:	5bf6                	lw	s7,124(sp)
    2d24:	5c66                	lw	s8,120(sp)
    2d26:	5cd6                	lw	s9,116(sp)
    2d28:	610d                	addi	sp,sp,160
    2d2a:	8082                	ret
    2d2c:	0405                	addi	s0,s0,1
    2d2e:	bf31                	j	2c4a <_vfiprintf_r+0x6a>
    2d30:	41550533          	sub	a0,a0,s5
    2d34:	00ac1533          	sll	a0,s8,a0
    2d38:	8fc9                	or	a5,a5,a0
    2d3a:	c83e                	sw	a5,16(sp)
    2d3c:	8922                	mv	s2,s0
    2d3e:	b7b9                	j	2c8c <_vfiprintf_r+0xac>
    2d40:	4732                	lw	a4,12(sp)
    2d42:	00470693          	addi	a3,a4,4
    2d46:	4318                	lw	a4,0(a4)
    2d48:	c636                	sw	a3,12(sp)
    2d4a:	02074763          	bltz	a4,2d78 <_vfiprintf_r+0x198>
    2d4e:	ce3a                	sw	a4,28(sp)
    2d50:	2018                	lbu	a4,0(s0)
    2d52:	02e00793          	li	a5,46
    2d56:	04f71d63          	bne	a4,a5,2db0 <_vfiprintf_r+0x1d0>
    2d5a:	3018                	lbu	a4,1(s0)
    2d5c:	02a00793          	li	a5,42
    2d60:	02f71b63          	bne	a4,a5,2d96 <_vfiprintf_r+0x1b6>
    2d64:	47b2                	lw	a5,12(sp)
    2d66:	0409                	addi	s0,s0,2
    2d68:	00478713          	addi	a4,a5,4
    2d6c:	439c                	lw	a5,0(a5)
    2d6e:	c63a                	sw	a4,12(sp)
    2d70:	0207c163          	bltz	a5,2d92 <_vfiprintf_r+0x1b2>
    2d74:	ca3e                	sw	a5,20(sp)
    2d76:	a82d                	j	2db0 <_vfiprintf_r+0x1d0>
    2d78:	40e00733          	neg	a4,a4
    2d7c:	0027e793          	ori	a5,a5,2
    2d80:	ce3a                	sw	a4,28(sp)
    2d82:	c83e                	sw	a5,16(sp)
    2d84:	b7f1                	j	2d50 <_vfiprintf_r+0x170>
    2d86:	036787b3          	mul	a5,a5,s6
    2d8a:	4685                	li	a3,1
    2d8c:	842e                	mv	s0,a1
    2d8e:	97ba                	add	a5,a5,a4
    2d90:	bf3d                	j	2cce <_vfiprintf_r+0xee>
    2d92:	57fd                	li	a5,-1
    2d94:	b7c5                	j	2d74 <_vfiprintf_r+0x194>
    2d96:	0405                	addi	s0,s0,1
    2d98:	ca02                	sw	zero,20(sp)
    2d9a:	4681                	li	a3,0
    2d9c:	4781                	li	a5,0
    2d9e:	4625                	li	a2,9
    2da0:	2018                	lbu	a4,0(s0)
    2da2:	00140593          	addi	a1,s0,1
    2da6:	fd070713          	addi	a4,a4,-48
    2daa:	06e67463          	bgeu	a2,a4,2e12 <_vfiprintf_r+0x232>
    2dae:	f2f9                	bnez	a3,2d74 <_vfiprintf_r+0x194>
    2db0:	200c                	lbu	a1,0(s0)
    2db2:	460d                	li	a2,3
    2db4:	00001517          	auipc	a0,0x1
    2db8:	f9c50513          	addi	a0,a0,-100 # 3d50 <__sf_fake_stdout+0x28>
    2dbc:	2509                	jal	33be <memchr>
    2dbe:	cd11                	beqz	a0,2dda <_vfiprintf_r+0x1fa>
    2dc0:	00001797          	auipc	a5,0x1
    2dc4:	f9078793          	addi	a5,a5,-112 # 3d50 <__sf_fake_stdout+0x28>
    2dc8:	8d1d                	sub	a0,a0,a5
    2dca:	04000793          	li	a5,64
    2dce:	00a797b3          	sll	a5,a5,a0
    2dd2:	4542                	lw	a0,16(sp)
    2dd4:	0405                	addi	s0,s0,1
    2dd6:	8d5d                	or	a0,a0,a5
    2dd8:	c82a                	sw	a0,16(sp)
    2dda:	200c                	lbu	a1,0(s0)
    2ddc:	4619                	li	a2,6
    2dde:	00001517          	auipc	a0,0x1
    2de2:	f7650513          	addi	a0,a0,-138 # 3d54 <__sf_fake_stdout+0x2c>
    2de6:	00140913          	addi	s2,s0,1
    2dea:	02b10423          	sb	a1,40(sp)
    2dee:	2bc1                	jal	33be <memchr>
    2df0:	c135                	beqz	a0,2e54 <_vfiprintf_r+0x274>
    2df2:	ffffd797          	auipc	a5,0xffffd
    2df6:	20e78793          	addi	a5,a5,526 # 0 <_sinit>
    2dfa:	e795                	bnez	a5,2e26 <_vfiprintf_r+0x246>
    2dfc:	4742                	lw	a4,16(sp)
    2dfe:	47b2                	lw	a5,12(sp)
    2e00:	10077713          	andi	a4,a4,256
    2e04:	cf09                	beqz	a4,2e1e <_vfiprintf_r+0x23e>
    2e06:	0791                	addi	a5,a5,4
    2e08:	c63e                	sw	a5,12(sp)
    2e0a:	5792                	lw	a5,36(sp)
    2e0c:	97d2                	add	a5,a5,s4
    2e0e:	d23e                	sw	a5,36(sp)
    2e10:	bd25                	j	2c48 <_vfiprintf_r+0x68>
    2e12:	036787b3          	mul	a5,a5,s6
    2e16:	4685                	li	a3,1
    2e18:	842e                	mv	s0,a1
    2e1a:	97ba                	add	a5,a5,a4
    2e1c:	b751                	j	2da0 <_vfiprintf_r+0x1c0>
    2e1e:	079d                	addi	a5,a5,7
    2e20:	9be1                	andi	a5,a5,-8
    2e22:	07a1                	addi	a5,a5,8
    2e24:	b7d5                	j	2e08 <_vfiprintf_r+0x228>
    2e26:	0078                	addi	a4,sp,12
    2e28:	00000697          	auipc	a3,0x0
    2e2c:	d7868693          	addi	a3,a3,-648 # 2ba0 <__sfputs_r>
    2e30:	8626                	mv	a2,s1
    2e32:	080c                	addi	a1,sp,16
    2e34:	854e                	mv	a0,s3
    2e36:	00000097          	auipc	ra,0x0
    2e3a:	000000e7          	jalr	zero # 0 <_sinit>
    2e3e:	57fd                	li	a5,-1
    2e40:	8a2a                	mv	s4,a0
    2e42:	fcf514e3          	bne	a0,a5,2e0a <_vfiprintf_r+0x22a>
    2e46:	24de                	lhu	a5,12(s1)
    2e48:	0407f793          	andi	a5,a5,64
    2e4c:	ec0792e3          	bnez	a5,2d10 <_vfiprintf_r+0x130>
    2e50:	5512                	lw	a0,36(sp)
    2e52:	b5c1                	j	2d12 <_vfiprintf_r+0x132>
    2e54:	0078                	addi	a4,sp,12
    2e56:	00000697          	auipc	a3,0x0
    2e5a:	d4a68693          	addi	a3,a3,-694 # 2ba0 <__sfputs_r>
    2e5e:	8626                	mv	a2,s1
    2e60:	080c                	addi	a1,sp,16
    2e62:	854e                	mv	a0,s3
    2e64:	2a01                	jal	2f74 <_printf_i>
    2e66:	bfe1                	j	2e3e <_vfiprintf_r+0x25e>

00002e68 <_printf_common>:
    2e68:	7179                	addi	sp,sp,-48
    2e6a:	ca56                	sw	s5,20(sp)
    2e6c:	499c                	lw	a5,16(a1)
    2e6e:	8aba                	mv	s5,a4
    2e70:	4598                	lw	a4,8(a1)
    2e72:	d422                	sw	s0,40(sp)
    2e74:	d226                	sw	s1,36(sp)
    2e76:	ce4e                	sw	s3,28(sp)
    2e78:	cc52                	sw	s4,24(sp)
    2e7a:	d606                	sw	ra,44(sp)
    2e7c:	d04a                	sw	s2,32(sp)
    2e7e:	c85a                	sw	s6,16(sp)
    2e80:	c65e                	sw	s7,12(sp)
    2e82:	89aa                	mv	s3,a0
    2e84:	842e                	mv	s0,a1
    2e86:	84b2                	mv	s1,a2
    2e88:	8a36                	mv	s4,a3
    2e8a:	00e7d363          	bge	a5,a4,2e90 <_printf_common+0x28>
    2e8e:	87ba                	mv	a5,a4
    2e90:	c09c                	sw	a5,0(s1)
    2e92:	04344703          	lbu	a4,67(s0)
    2e96:	c319                	beqz	a4,2e9c <_printf_common+0x34>
    2e98:	0785                	addi	a5,a5,1
    2e9a:	c09c                	sw	a5,0(s1)
    2e9c:	401c                	lw	a5,0(s0)
    2e9e:	0207f793          	andi	a5,a5,32
    2ea2:	c781                	beqz	a5,2eaa <_printf_common+0x42>
    2ea4:	409c                	lw	a5,0(s1)
    2ea6:	0789                	addi	a5,a5,2
    2ea8:	c09c                	sw	a5,0(s1)
    2eaa:	00042903          	lw	s2,0(s0)
    2eae:	00697913          	andi	s2,s2,6
    2eb2:	00091a63          	bnez	s2,2ec6 <_printf_common+0x5e>
    2eb6:	01940b13          	addi	s6,s0,25
    2eba:	5bfd                	li	s7,-1
    2ebc:	445c                	lw	a5,12(s0)
    2ebe:	4098                	lw	a4,0(s1)
    2ec0:	8f99                	sub	a5,a5,a4
    2ec2:	04f94c63          	blt	s2,a5,2f1a <_printf_common+0xb2>
    2ec6:	401c                	lw	a5,0(s0)
    2ec8:	04344683          	lbu	a3,67(s0)
    2ecc:	0207f793          	andi	a5,a5,32
    2ed0:	00d036b3          	snez	a3,a3
    2ed4:	eba5                	bnez	a5,2f44 <_printf_common+0xdc>
    2ed6:	04340613          	addi	a2,s0,67
    2eda:	85d2                	mv	a1,s4
    2edc:	854e                	mv	a0,s3
    2ede:	9a82                	jalr	s5
    2ee0:	57fd                	li	a5,-1
    2ee2:	04f50363          	beq	a0,a5,2f28 <_printf_common+0xc0>
    2ee6:	401c                	lw	a5,0(s0)
    2ee8:	4611                	li	a2,4
    2eea:	4098                	lw	a4,0(s1)
    2eec:	8b99                	andi	a5,a5,6
    2eee:	4454                	lw	a3,12(s0)
    2ef0:	4481                	li	s1,0
    2ef2:	00c79763          	bne	a5,a2,2f00 <_printf_common+0x98>
    2ef6:	40e684b3          	sub	s1,a3,a4
    2efa:	0004d363          	bgez	s1,2f00 <_printf_common+0x98>
    2efe:	4481                	li	s1,0
    2f00:	441c                	lw	a5,8(s0)
    2f02:	4818                	lw	a4,16(s0)
    2f04:	00f75463          	bge	a4,a5,2f0c <_printf_common+0xa4>
    2f08:	8f99                	sub	a5,a5,a4
    2f0a:	94be                	add	s1,s1,a5
    2f0c:	4901                	li	s2,0
    2f0e:	0469                	addi	s0,s0,26
    2f10:	5b7d                	li	s6,-1
    2f12:	05249863          	bne	s1,s2,2f62 <_printf_common+0xfa>
    2f16:	4501                	li	a0,0
    2f18:	a809                	j	2f2a <_printf_common+0xc2>
    2f1a:	4685                	li	a3,1
    2f1c:	865a                	mv	a2,s6
    2f1e:	85d2                	mv	a1,s4
    2f20:	854e                	mv	a0,s3
    2f22:	9a82                	jalr	s5
    2f24:	01751e63          	bne	a0,s7,2f40 <_printf_common+0xd8>
    2f28:	557d                	li	a0,-1
    2f2a:	50b2                	lw	ra,44(sp)
    2f2c:	5422                	lw	s0,40(sp)
    2f2e:	5492                	lw	s1,36(sp)
    2f30:	5902                	lw	s2,32(sp)
    2f32:	49f2                	lw	s3,28(sp)
    2f34:	4a62                	lw	s4,24(sp)
    2f36:	4ad2                	lw	s5,20(sp)
    2f38:	4b42                	lw	s6,16(sp)
    2f3a:	4bb2                	lw	s7,12(sp)
    2f3c:	6145                	addi	sp,sp,48
    2f3e:	8082                	ret
    2f40:	0905                	addi	s2,s2,1
    2f42:	bfad                	j	2ebc <_printf_common+0x54>
    2f44:	00d40733          	add	a4,s0,a3
    2f48:	03000613          	li	a2,48
    2f4c:	04c701a3          	sb	a2,67(a4)
    2f50:	04544703          	lbu	a4,69(s0)
    2f54:	00168793          	addi	a5,a3,1
    2f58:	97a2                	add	a5,a5,s0
    2f5a:	0689                	addi	a3,a3,2
    2f5c:	04e781a3          	sb	a4,67(a5)
    2f60:	bf9d                	j	2ed6 <_printf_common+0x6e>
    2f62:	4685                	li	a3,1
    2f64:	8622                	mv	a2,s0
    2f66:	85d2                	mv	a1,s4
    2f68:	854e                	mv	a0,s3
    2f6a:	9a82                	jalr	s5
    2f6c:	fb650ee3          	beq	a0,s6,2f28 <_printf_common+0xc0>
    2f70:	0905                	addi	s2,s2,1
    2f72:	b745                	j	2f12 <_printf_common+0xaa>

00002f74 <_printf_i>:
    2f74:	7179                	addi	sp,sp,-48
    2f76:	d422                	sw	s0,40(sp)
    2f78:	d226                	sw	s1,36(sp)
    2f7a:	d04a                	sw	s2,32(sp)
    2f7c:	ce4e                	sw	s3,28(sp)
    2f7e:	d606                	sw	ra,44(sp)
    2f80:	cc52                	sw	s4,24(sp)
    2f82:	ca56                	sw	s5,20(sp)
    2f84:	c85a                	sw	s6,16(sp)
    2f86:	89b6                	mv	s3,a3
    2f88:	2d94                	lbu	a3,24(a1)
    2f8a:	06900793          	li	a5,105
    2f8e:	8932                	mv	s2,a2
    2f90:	84aa                	mv	s1,a0
    2f92:	842e                	mv	s0,a1
    2f94:	04358613          	addi	a2,a1,67
    2f98:	02f68d63          	beq	a3,a5,2fd2 <_printf_i+0x5e>
    2f9c:	06d7e263          	bltu	a5,a3,3000 <_printf_i+0x8c>
    2fa0:	05800793          	li	a5,88
    2fa4:	18f68663          	beq	a3,a5,3130 <_printf_i+0x1bc>
    2fa8:	00d7ed63          	bltu	a5,a3,2fc2 <_printf_i+0x4e>
    2fac:	20068e63          	beqz	a3,31c8 <_printf_i+0x254>
    2fb0:	04300793          	li	a5,67
    2fb4:	0af68e63          	beq	a3,a5,3070 <_printf_i+0xfc>
    2fb8:	04240a93          	addi	s5,s0,66
    2fbc:	04d40123          	sb	a3,66(s0)
    2fc0:	a0c9                	j	3082 <_printf_i+0x10e>
    2fc2:	06300793          	li	a5,99
    2fc6:	0af68563          	beq	a3,a5,3070 <_printf_i+0xfc>
    2fca:	06400793          	li	a5,100
    2fce:	fef695e3          	bne	a3,a5,2fb8 <_printf_i+0x44>
    2fd2:	401c                	lw	a5,0(s0)
    2fd4:	4308                	lw	a0,0(a4)
    2fd6:	0807f693          	andi	a3,a5,128
    2fda:	00450593          	addi	a1,a0,4
    2fde:	c6c5                	beqz	a3,3086 <_printf_i+0x112>
    2fe0:	411c                	lw	a5,0(a0)
    2fe2:	c30c                	sw	a1,0(a4)
    2fe4:	0007d863          	bgez	a5,2ff4 <_printf_i+0x80>
    2fe8:	02d00713          	li	a4,45
    2fec:	40f007b3          	neg	a5,a5
    2ff0:	04e401a3          	sb	a4,67(s0)
    2ff4:	00001697          	auipc	a3,0x1
    2ff8:	d6868693          	addi	a3,a3,-664 # 3d5c <__sf_fake_stdout+0x34>
    2ffc:	4729                	li	a4,10
    2ffe:	a865                	j	30b6 <_printf_i+0x142>
    3000:	07000793          	li	a5,112
    3004:	16f68263          	beq	a3,a5,3168 <_printf_i+0x1f4>
    3008:	02d7e563          	bltu	a5,a3,3032 <_printf_i+0xbe>
    300c:	06e00793          	li	a5,110
    3010:	18f68963          	beq	a3,a5,31a2 <_printf_i+0x22e>
    3014:	06f00793          	li	a5,111
    3018:	faf690e3          	bne	a3,a5,2fb8 <_printf_i+0x44>
    301c:	400c                	lw	a1,0(s0)
    301e:	431c                	lw	a5,0(a4)
    3020:	0805f813          	andi	a6,a1,128
    3024:	00478513          	addi	a0,a5,4
    3028:	06080763          	beqz	a6,3096 <_printf_i+0x122>
    302c:	c308                	sw	a0,0(a4)
    302e:	439c                	lw	a5,0(a5)
    3030:	a885                	j	30a0 <_printf_i+0x12c>
    3032:	07500793          	li	a5,117
    3036:	fef683e3          	beq	a3,a5,301c <_printf_i+0xa8>
    303a:	07800793          	li	a5,120
    303e:	12f68963          	beq	a3,a5,3170 <_printf_i+0x1fc>
    3042:	07300793          	li	a5,115
    3046:	f6f699e3          	bne	a3,a5,2fb8 <_printf_i+0x44>
    304a:	431c                	lw	a5,0(a4)
    304c:	41d0                	lw	a2,4(a1)
    304e:	4581                	li	a1,0
    3050:	00478693          	addi	a3,a5,4
    3054:	c314                	sw	a3,0(a4)
    3056:	0007aa83          	lw	s5,0(a5)
    305a:	8556                	mv	a0,s5
    305c:	268d                	jal	33be <memchr>
    305e:	c501                	beqz	a0,3066 <_printf_i+0xf2>
    3060:	41550533          	sub	a0,a0,s5
    3064:	c048                	sw	a0,4(s0)
    3066:	405c                	lw	a5,4(s0)
    3068:	c81c                	sw	a5,16(s0)
    306a:	040401a3          	sb	zero,67(s0)
    306e:	a861                	j	3106 <_printf_i+0x192>
    3070:	431c                	lw	a5,0(a4)
    3072:	04240a93          	addi	s5,s0,66
    3076:	00478693          	addi	a3,a5,4
    307a:	439c                	lw	a5,0(a5)
    307c:	c314                	sw	a3,0(a4)
    307e:	04f40123          	sb	a5,66(s0)
    3082:	4785                	li	a5,1
    3084:	b7d5                	j	3068 <_printf_i+0xf4>
    3086:	0407f693          	andi	a3,a5,64
    308a:	411c                	lw	a5,0(a0)
    308c:	c30c                	sw	a1,0(a4)
    308e:	dab9                	beqz	a3,2fe4 <_printf_i+0x70>
    3090:	07c2                	slli	a5,a5,0x10
    3092:	87c1                	srai	a5,a5,0x10
    3094:	bf81                	j	2fe4 <_printf_i+0x70>
    3096:	0405f593          	andi	a1,a1,64
    309a:	c308                	sw	a0,0(a4)
    309c:	d9c9                	beqz	a1,302e <_printf_i+0xba>
    309e:	239e                	lhu	a5,0(a5)
    30a0:	06f00713          	li	a4,111
    30a4:	0ee68763          	beq	a3,a4,3192 <_printf_i+0x21e>
    30a8:	00001697          	auipc	a3,0x1
    30ac:	cb468693          	addi	a3,a3,-844 # 3d5c <__sf_fake_stdout+0x34>
    30b0:	4729                	li	a4,10
    30b2:	040401a3          	sb	zero,67(s0)
    30b6:	404c                	lw	a1,4(s0)
    30b8:	c40c                	sw	a1,8(s0)
    30ba:	0005c563          	bltz	a1,30c4 <_printf_i+0x150>
    30be:	4008                	lw	a0,0(s0)
    30c0:	996d                	andi	a0,a0,-5
    30c2:	c008                	sw	a0,0(s0)
    30c4:	e399                	bnez	a5,30ca <_printf_i+0x156>
    30c6:	8ab2                	mv	s5,a2
    30c8:	cd89                	beqz	a1,30e2 <_printf_i+0x16e>
    30ca:	8ab2                	mv	s5,a2
    30cc:	02e7f5b3          	remu	a1,a5,a4
    30d0:	1afd                	addi	s5,s5,-1
    30d2:	95b6                	add	a1,a1,a3
    30d4:	218c                	lbu	a1,0(a1)
    30d6:	00ba8023          	sb	a1,0(s5)
    30da:	02e7d5b3          	divu	a1,a5,a4
    30de:	0ce7f063          	bgeu	a5,a4,319e <_printf_i+0x22a>
    30e2:	47a1                	li	a5,8
    30e4:	00f71e63          	bne	a4,a5,3100 <_printf_i+0x18c>
    30e8:	401c                	lw	a5,0(s0)
    30ea:	8b85                	andi	a5,a5,1
    30ec:	cb91                	beqz	a5,3100 <_printf_i+0x18c>
    30ee:	4058                	lw	a4,4(s0)
    30f0:	481c                	lw	a5,16(s0)
    30f2:	00e7c763          	blt	a5,a4,3100 <_printf_i+0x18c>
    30f6:	03000793          	li	a5,48
    30fa:	fefa8fa3          	sb	a5,-1(s5)
    30fe:	1afd                	addi	s5,s5,-1
    3100:	41560633          	sub	a2,a2,s5
    3104:	c810                	sw	a2,16(s0)
    3106:	874e                	mv	a4,s3
    3108:	86ca                	mv	a3,s2
    310a:	0070                	addi	a2,sp,12
    310c:	85a2                	mv	a1,s0
    310e:	8526                	mv	a0,s1
    3110:	d59ff0ef          	jal	ra,2e68 <_printf_common>
    3114:	5a7d                	li	s4,-1
    3116:	0b451d63          	bne	a0,s4,31d0 <_printf_i+0x25c>
    311a:	557d                	li	a0,-1
    311c:	50b2                	lw	ra,44(sp)
    311e:	5422                	lw	s0,40(sp)
    3120:	5492                	lw	s1,36(sp)
    3122:	5902                	lw	s2,32(sp)
    3124:	49f2                	lw	s3,28(sp)
    3126:	4a62                	lw	s4,24(sp)
    3128:	4ad2                	lw	s5,20(sp)
    312a:	4b42                	lw	s6,16(sp)
    312c:	6145                	addi	sp,sp,48
    312e:	8082                	ret
    3130:	04d582a3          	sb	a3,69(a1)
    3134:	00001697          	auipc	a3,0x1
    3138:	c2868693          	addi	a3,a3,-984 # 3d5c <__sf_fake_stdout+0x34>
    313c:	400c                	lw	a1,0(s0)
    313e:	4308                	lw	a0,0(a4)
    3140:	0805f813          	andi	a6,a1,128
    3144:	411c                	lw	a5,0(a0)
    3146:	0511                	addi	a0,a0,4
    3148:	02080d63          	beqz	a6,3182 <_printf_i+0x20e>
    314c:	c308                	sw	a0,0(a4)
    314e:	0015f713          	andi	a4,a1,1
    3152:	c701                	beqz	a4,315a <_printf_i+0x1e6>
    3154:	0205e593          	ori	a1,a1,32
    3158:	c00c                	sw	a1,0(s0)
    315a:	4741                	li	a4,16
    315c:	fbb9                	bnez	a5,30b2 <_printf_i+0x13e>
    315e:	400c                	lw	a1,0(s0)
    3160:	fdf5f593          	andi	a1,a1,-33
    3164:	c00c                	sw	a1,0(s0)
    3166:	b7b1                	j	30b2 <_printf_i+0x13e>
    3168:	419c                	lw	a5,0(a1)
    316a:	0207e793          	ori	a5,a5,32
    316e:	c19c                	sw	a5,0(a1)
    3170:	07800793          	li	a5,120
    3174:	04f402a3          	sb	a5,69(s0)
    3178:	00001697          	auipc	a3,0x1
    317c:	bf868693          	addi	a3,a3,-1032 # 3d70 <__sf_fake_stdout+0x48>
    3180:	bf75                	j	313c <_printf_i+0x1c8>
    3182:	0405f813          	andi	a6,a1,64
    3186:	c308                	sw	a0,0(a4)
    3188:	fc0803e3          	beqz	a6,314e <_printf_i+0x1da>
    318c:	07c2                	slli	a5,a5,0x10
    318e:	83c1                	srli	a5,a5,0x10
    3190:	bf7d                	j	314e <_printf_i+0x1da>
    3192:	00001697          	auipc	a3,0x1
    3196:	bca68693          	addi	a3,a3,-1078 # 3d5c <__sf_fake_stdout+0x34>
    319a:	4721                	li	a4,8
    319c:	bf19                	j	30b2 <_printf_i+0x13e>
    319e:	87ae                	mv	a5,a1
    31a0:	b735                	j	30cc <_printf_i+0x158>
    31a2:	4194                	lw	a3,0(a1)
    31a4:	431c                	lw	a5,0(a4)
    31a6:	49cc                	lw	a1,20(a1)
    31a8:	0806f813          	andi	a6,a3,128
    31ac:	00478513          	addi	a0,a5,4
    31b0:	00080663          	beqz	a6,31bc <_printf_i+0x248>
    31b4:	c308                	sw	a0,0(a4)
    31b6:	439c                	lw	a5,0(a5)
    31b8:	c38c                	sw	a1,0(a5)
    31ba:	a039                	j	31c8 <_printf_i+0x254>
    31bc:	c308                	sw	a0,0(a4)
    31be:	0406f693          	andi	a3,a3,64
    31c2:	439c                	lw	a5,0(a5)
    31c4:	daf5                	beqz	a3,31b8 <_printf_i+0x244>
    31c6:	a38e                	sh	a1,0(a5)
    31c8:	00042823          	sw	zero,16(s0)
    31cc:	8ab2                	mv	s5,a2
    31ce:	bf25                	j	3106 <_printf_i+0x192>
    31d0:	4814                	lw	a3,16(s0)
    31d2:	8656                	mv	a2,s5
    31d4:	85ca                	mv	a1,s2
    31d6:	8526                	mv	a0,s1
    31d8:	9982                	jalr	s3
    31da:	f54500e3          	beq	a0,s4,311a <_printf_i+0x1a6>
    31de:	401c                	lw	a5,0(s0)
    31e0:	8b89                	andi	a5,a5,2
    31e2:	e78d                	bnez	a5,320c <_printf_i+0x298>
    31e4:	47b2                	lw	a5,12(sp)
    31e6:	4448                	lw	a0,12(s0)
    31e8:	f2f55ae3          	bge	a0,a5,311c <_printf_i+0x1a8>
    31ec:	853e                	mv	a0,a5
    31ee:	b73d                	j	311c <_printf_i+0x1a8>
    31f0:	4685                	li	a3,1
    31f2:	8656                	mv	a2,s5
    31f4:	85ca                	mv	a1,s2
    31f6:	8526                	mv	a0,s1
    31f8:	9982                	jalr	s3
    31fa:	f36500e3          	beq	a0,s6,311a <_printf_i+0x1a6>
    31fe:	0a05                	addi	s4,s4,1
    3200:	445c                	lw	a5,12(s0)
    3202:	4732                	lw	a4,12(sp)
    3204:	8f99                	sub	a5,a5,a4
    3206:	fefa45e3          	blt	s4,a5,31f0 <_printf_i+0x27c>
    320a:	bfe9                	j	31e4 <_printf_i+0x270>
    320c:	4a01                	li	s4,0
    320e:	01940a93          	addi	s5,s0,25
    3212:	5b7d                	li	s6,-1
    3214:	b7f5                	j	3200 <_printf_i+0x28c>

00003216 <_sbrk_r>:
    3216:	1141                	addi	sp,sp,-16
    3218:	c422                	sw	s0,8(sp)
    321a:	842a                	mv	s0,a0
    321c:	852e                	mv	a0,a1
    321e:	a801ac23          	sw	zero,-1384(gp) # 20000318 <errno>
    3222:	c606                	sw	ra,12(sp)
    3224:	f83fe0ef          	jal	ra,21a6 <_sbrk>
    3228:	57fd                	li	a5,-1
    322a:	00f51763          	bne	a0,a5,3238 <_sbrk_r+0x22>
    322e:	a9818793          	addi	a5,gp,-1384 # 20000318 <errno>
    3232:	439c                	lw	a5,0(a5)
    3234:	c391                	beqz	a5,3238 <_sbrk_r+0x22>
    3236:	c01c                	sw	a5,0(s0)
    3238:	40b2                	lw	ra,12(sp)
    323a:	4422                	lw	s0,8(sp)
    323c:	0141                	addi	sp,sp,16
    323e:	8082                	ret

00003240 <__sread>:
    3240:	1141                	addi	sp,sp,-16
    3242:	c422                	sw	s0,8(sp)
    3244:	842e                	mv	s0,a1
    3246:	00e59583          	lh	a1,14(a1)
    324a:	c606                	sw	ra,12(sp)
    324c:	2279                	jal	33da <_read_r>
    324e:	00054963          	bltz	a0,3260 <__sread+0x20>
    3252:	487c                	lw	a5,84(s0)
    3254:	97aa                	add	a5,a5,a0
    3256:	c87c                	sw	a5,84(s0)
    3258:	40b2                	lw	ra,12(sp)
    325a:	4422                	lw	s0,8(sp)
    325c:	0141                	addi	sp,sp,16
    325e:	8082                	ret
    3260:	245e                	lhu	a5,12(s0)
    3262:	777d                	lui	a4,0xfffff
    3264:	177d                	addi	a4,a4,-1
    3266:	8ff9                	and	a5,a5,a4
    3268:	a45e                	sh	a5,12(s0)
    326a:	b7fd                	j	3258 <__sread+0x18>

0000326c <__swrite>:
    326c:	25de                	lhu	a5,12(a1)
    326e:	1101                	addi	sp,sp,-32
    3270:	cc22                	sw	s0,24(sp)
    3272:	ca26                	sw	s1,20(sp)
    3274:	c84a                	sw	s2,16(sp)
    3276:	c64e                	sw	s3,12(sp)
    3278:	ce06                	sw	ra,28(sp)
    327a:	1007f793          	andi	a5,a5,256
    327e:	84aa                	mv	s1,a0
    3280:	842e                	mv	s0,a1
    3282:	8932                	mv	s2,a2
    3284:	89b6                	mv	s3,a3
    3286:	c791                	beqz	a5,3292 <__swrite+0x26>
    3288:	00e59583          	lh	a1,14(a1)
    328c:	4689                	li	a3,2
    328e:	4601                	li	a2,0
    3290:	2209                	jal	3392 <_lseek_r>
    3292:	245e                	lhu	a5,12(s0)
    3294:	777d                	lui	a4,0xfffff
    3296:	177d                	addi	a4,a4,-1
    3298:	8ff9                	and	a5,a5,a4
    329a:	a45e                	sh	a5,12(s0)
    329c:	00e41583          	lh	a1,14(s0)
    32a0:	4462                	lw	s0,24(sp)
    32a2:	40f2                	lw	ra,28(sp)
    32a4:	86ce                	mv	a3,s3
    32a6:	864a                	mv	a2,s2
    32a8:	49b2                	lw	s3,12(sp)
    32aa:	4942                	lw	s2,16(sp)
    32ac:	8526                	mv	a0,s1
    32ae:	44d2                	lw	s1,20(sp)
    32b0:	6105                	addi	sp,sp,32
    32b2:	a825                	j	32ea <_write_r>

000032b4 <__sseek>:
    32b4:	1141                	addi	sp,sp,-16
    32b6:	c422                	sw	s0,8(sp)
    32b8:	842e                	mv	s0,a1
    32ba:	00e59583          	lh	a1,14(a1)
    32be:	c606                	sw	ra,12(sp)
    32c0:	28c9                	jal	3392 <_lseek_r>
    32c2:	57fd                	li	a5,-1
    32c4:	245a                	lhu	a4,12(s0)
    32c6:	00f51a63          	bne	a0,a5,32da <__sseek+0x26>
    32ca:	77fd                	lui	a5,0xfffff
    32cc:	17fd                	addi	a5,a5,-1
    32ce:	8ff9                	and	a5,a5,a4
    32d0:	a45e                	sh	a5,12(s0)
    32d2:	40b2                	lw	ra,12(sp)
    32d4:	4422                	lw	s0,8(sp)
    32d6:	0141                	addi	sp,sp,16
    32d8:	8082                	ret
    32da:	6785                	lui	a5,0x1
    32dc:	8fd9                	or	a5,a5,a4
    32de:	a45e                	sh	a5,12(s0)
    32e0:	c868                	sw	a0,84(s0)
    32e2:	bfc5                	j	32d2 <__sseek+0x1e>

000032e4 <__sclose>:
    32e4:	00e59583          	lh	a1,14(a1)
    32e8:	a805                	j	3318 <_close_r>

000032ea <_write_r>:
    32ea:	1141                	addi	sp,sp,-16
    32ec:	c422                	sw	s0,8(sp)
    32ee:	842a                	mv	s0,a0
    32f0:	852e                	mv	a0,a1
    32f2:	85b2                	mv	a1,a2
    32f4:	8636                	mv	a2,a3
    32f6:	a801ac23          	sw	zero,-1384(gp) # 20000318 <errno>
    32fa:	c606                	sw	ra,12(sp)
    32fc:	e71fe0ef          	jal	ra,216c <_write>
    3300:	57fd                	li	a5,-1
    3302:	00f51763          	bne	a0,a5,3310 <_write_r+0x26>
    3306:	a9818793          	addi	a5,gp,-1384 # 20000318 <errno>
    330a:	439c                	lw	a5,0(a5)
    330c:	c391                	beqz	a5,3310 <_write_r+0x26>
    330e:	c01c                	sw	a5,0(s0)
    3310:	40b2                	lw	ra,12(sp)
    3312:	4422                	lw	s0,8(sp)
    3314:	0141                	addi	sp,sp,16
    3316:	8082                	ret

00003318 <_close_r>:
    3318:	1141                	addi	sp,sp,-16
    331a:	c422                	sw	s0,8(sp)
    331c:	842a                	mv	s0,a0
    331e:	852e                	mv	a0,a1
    3320:	a801ac23          	sw	zero,-1384(gp) # 20000318 <errno>
    3324:	c606                	sw	ra,12(sp)
    3326:	20c5                	jal	3406 <_close>
    3328:	57fd                	li	a5,-1
    332a:	00f51763          	bne	a0,a5,3338 <_close_r+0x20>
    332e:	a9818793          	addi	a5,gp,-1384 # 20000318 <errno>
    3332:	439c                	lw	a5,0(a5)
    3334:	c391                	beqz	a5,3338 <_close_r+0x20>
    3336:	c01c                	sw	a5,0(s0)
    3338:	40b2                	lw	ra,12(sp)
    333a:	4422                	lw	s0,8(sp)
    333c:	0141                	addi	sp,sp,16
    333e:	8082                	ret

00003340 <_fstat_r>:
    3340:	1141                	addi	sp,sp,-16
    3342:	c422                	sw	s0,8(sp)
    3344:	842a                	mv	s0,a0
    3346:	852e                	mv	a0,a1
    3348:	85b2                	mv	a1,a2
    334a:	a801ac23          	sw	zero,-1384(gp) # 20000318 <errno>
    334e:	c606                	sw	ra,12(sp)
    3350:	20c9                	jal	3412 <_fstat>
    3352:	57fd                	li	a5,-1
    3354:	00f51763          	bne	a0,a5,3362 <_fstat_r+0x22>
    3358:	a9818793          	addi	a5,gp,-1384 # 20000318 <errno>
    335c:	439c                	lw	a5,0(a5)
    335e:	c391                	beqz	a5,3362 <_fstat_r+0x22>
    3360:	c01c                	sw	a5,0(s0)
    3362:	40b2                	lw	ra,12(sp)
    3364:	4422                	lw	s0,8(sp)
    3366:	0141                	addi	sp,sp,16
    3368:	8082                	ret

0000336a <_isatty_r>:
    336a:	1141                	addi	sp,sp,-16
    336c:	c422                	sw	s0,8(sp)
    336e:	842a                	mv	s0,a0
    3370:	852e                	mv	a0,a1
    3372:	a801ac23          	sw	zero,-1384(gp) # 20000318 <errno>
    3376:	c606                	sw	ra,12(sp)
    3378:	205d                	jal	341e <_isatty>
    337a:	57fd                	li	a5,-1
    337c:	00f51763          	bne	a0,a5,338a <_isatty_r+0x20>
    3380:	a9818793          	addi	a5,gp,-1384 # 20000318 <errno>
    3384:	439c                	lw	a5,0(a5)
    3386:	c391                	beqz	a5,338a <_isatty_r+0x20>
    3388:	c01c                	sw	a5,0(s0)
    338a:	40b2                	lw	ra,12(sp)
    338c:	4422                	lw	s0,8(sp)
    338e:	0141                	addi	sp,sp,16
    3390:	8082                	ret

00003392 <_lseek_r>:
    3392:	1141                	addi	sp,sp,-16
    3394:	c422                	sw	s0,8(sp)
    3396:	842a                	mv	s0,a0
    3398:	852e                	mv	a0,a1
    339a:	85b2                	mv	a1,a2
    339c:	8636                	mv	a2,a3
    339e:	a801ac23          	sw	zero,-1384(gp) # 20000318 <errno>
    33a2:	c606                	sw	ra,12(sp)
    33a4:	2059                	jal	342a <_lseek>
    33a6:	57fd                	li	a5,-1
    33a8:	00f51763          	bne	a0,a5,33b6 <_lseek_r+0x24>
    33ac:	a9818793          	addi	a5,gp,-1384 # 20000318 <errno>
    33b0:	439c                	lw	a5,0(a5)
    33b2:	c391                	beqz	a5,33b6 <_lseek_r+0x24>
    33b4:	c01c                	sw	a5,0(s0)
    33b6:	40b2                	lw	ra,12(sp)
    33b8:	4422                	lw	s0,8(sp)
    33ba:	0141                	addi	sp,sp,16
    33bc:	8082                	ret

000033be <memchr>:
    33be:	0ff5f593          	andi	a1,a1,255
    33c2:	962a                	add	a2,a2,a0
    33c4:	00c51463          	bne	a0,a2,33cc <memchr+0xe>
    33c8:	4501                	li	a0,0
    33ca:	8082                	ret
    33cc:	211c                	lbu	a5,0(a0)
    33ce:	feb78ee3          	beq	a5,a1,33ca <memchr+0xc>
    33d2:	0505                	addi	a0,a0,1
    33d4:	bfc5                	j	33c4 <memchr+0x6>

000033d6 <__malloc_lock>:
    33d6:	8082                	ret

000033d8 <__malloc_unlock>:
    33d8:	8082                	ret

000033da <_read_r>:
    33da:	1141                	addi	sp,sp,-16
    33dc:	c422                	sw	s0,8(sp)
    33de:	842a                	mv	s0,a0
    33e0:	852e                	mv	a0,a1
    33e2:	85b2                	mv	a1,a2
    33e4:	8636                	mv	a2,a3
    33e6:	a801ac23          	sw	zero,-1384(gp) # 20000318 <errno>
    33ea:	c606                	sw	ra,12(sp)
    33ec:	20a9                	jal	3436 <_read>
    33ee:	57fd                	li	a5,-1
    33f0:	00f51763          	bne	a0,a5,33fe <_read_r+0x24>
    33f4:	a9818793          	addi	a5,gp,-1384 # 20000318 <errno>
    33f8:	439c                	lw	a5,0(a5)
    33fa:	c391                	beqz	a5,33fe <_read_r+0x24>
    33fc:	c01c                	sw	a5,0(s0)
    33fe:	40b2                	lw	ra,12(sp)
    3400:	4422                	lw	s0,8(sp)
    3402:	0141                	addi	sp,sp,16
    3404:	8082                	ret

00003406 <_close>:
    3406:	05800793          	li	a5,88
    340a:	a8f1ac23          	sw	a5,-1384(gp) # 20000318 <errno>
    340e:	557d                	li	a0,-1
    3410:	8082                	ret

00003412 <_fstat>:
    3412:	05800793          	li	a5,88
    3416:	a8f1ac23          	sw	a5,-1384(gp) # 20000318 <errno>
    341a:	557d                	li	a0,-1
    341c:	8082                	ret

0000341e <_isatty>:
    341e:	05800793          	li	a5,88
    3422:	a8f1ac23          	sw	a5,-1384(gp) # 20000318 <errno>
    3426:	4501                	li	a0,0
    3428:	8082                	ret

0000342a <_lseek>:
    342a:	05800793          	li	a5,88
    342e:	a8f1ac23          	sw	a5,-1384(gp) # 20000318 <errno>
    3432:	557d                	li	a0,-1
    3434:	8082                	ret

00003436 <_read>:
    3436:	05800793          	li	a5,88
    343a:	a8f1ac23          	sw	a5,-1384(gp) # 20000318 <errno>
    343e:	557d                	li	a0,-1
    3440:	8082                	ret
    3442:	0000                	unimp
    3444:	3159454b          	fnmsub.s	fa0,fs2,fs5,ft6,rmm
    3448:	7020                	flw	fs0,96(s0)
    344a:	6572                	flw	fa0,28(sp)
    344c:	64657373          	csrrci	t1,0x646,10
    3450:	2d20                	lbu	s0,26(a0)
    3452:	4520                	lw	s0,72(a0)
    3454:	6578                	flw	fa4,76(a0)
    3456:	69747563          	bgeu	s0,s7,3ae0 <_read+0x6aa>
    345a:	676e                	flw	fa4,216(sp)
    345c:	7020                	flw	fs0,96(s0)
    345e:	7261                	lui	tp,0xffff8
    3460:	6d61                	lui	s10,0x18
    3462:	7465                	lui	s0,0xffff9
    3464:	7265                	lui	tp,0xffff9
    3466:	7420                	flw	fs0,104(s0)
    3468:	7365                	lui	t1,0xffff9
    346a:	0d74                	addi	a3,sp,668
    346c:	0000                	unimp
    346e:	0000                	unimp
    3470:	3259454b          	fnmsub.d	fa0,fs2,ft5,ft6,rmm
    3474:	7020                	flw	fs0,96(s0)
    3476:	6572                	flw	fa0,28(sp)
    3478:	64657373          	csrrci	t1,0x646,10
    347c:	2d20                	lbu	s0,26(a0)
    347e:	5420                	lw	s0,104(s0)
    3480:	6c67676f          	jal	a4,79b46 <_data_lma+0x75dc2>
    3484:	6e69                	lui	t3,0x1a
    3486:	454c2067          	0x454c2067
    348a:	0d44                	addi	s1,sp,660
    348c:	0000                	unimp
    348e:	0000                	unimp
    3490:	74737953          	0x74737953
    3494:	6d65                	lui	s10,0x19
    3496:	3a6b6c43          	fmadd.d	fs8,fs6,ft6,ft7,unknown
    349a:	6425                	lui	s0,0x9
    349c:	0a0d                	addi	s4,s4,3
    349e:	0000                	unimp
    34a0:	70696843          	fmadd.s	fa6,fs2,ft6,fa4,unknown
    34a4:	4449                	li	s0,18
    34a6:	253a                	lhu	a4,10(a0)
    34a8:	3830                	lbu	a2,19(s0)
    34aa:	0d78                	addi	a4,sp,668
    34ac:	000a                	c.slli	zero,0x2
    34ae:	0000                	unimp
    34b0:	bccaf5b3          	0xbccaf5b3
    34b4:	a285afbb          	0xa285afbb
    34b8:	b594                	sb	a3,9(a1)
    34ba:	e6b4                	fsw	fa3,72(a3)
    34bc:	a3c4a683          	lw	a3,-1476(s1)
    34c0:	4b89                	li	s7,2
    34c2:	2e2e                	lhu	a1,26(a2)
    34c4:	0d2e                	slli	s10,s10,0xb
    34c6:	0000                	unimp
    34c8:	a285                	j	3628 <_read+0x1f2>
    34ca:	b594                	sb	a3,9(a1)
    34cc:	e6b4                	fsw	fa3,72(a3)
    34ce:	a3c4a683          	lw	a3,-1476(s1)
    34d2:	4b89                	li	s7,2
    34d4:	bccaf5b3          	0xbccaf5b3
    34d8:	a7caafbb          	0xa7caafbb
    34dc:	a194                	sb	a3,0(a1)
    34de:	000da1a3          	sw	zero,3(s11)
    34e2:	0000                	unimp
    34e4:	a285                	j	3644 <_read+0x20e>
    34e6:	b594                	sb	a3,9(a1)
    34e8:	e6b4                	fsw	fa3,72(a3)
    34ea:	a3c4a683          	lw	a3,-1476(s1)
    34ee:	4b89                	li	s7,2
    34f0:	bccaf5b3          	0xbccaf5b3
    34f4:	c9b3afbb          	0xc9b3afbb
    34f8:	a6b9                	j	3846 <_read+0x410>
    34fa:	000da1a3          	sw	zero,3(s11)
    34fe:	0000                	unimp
    3500:	79bdb5cf          	fnmadd.s	fa1,fs11,fs11,fa5,rup
    3504:	bccaf5b3          	0xbccaf5b3
    3508:	eacdafbb          	0xeacdafbb
    350c:	aca3c9b3          	0xaca3c9b3
    3510:	4ddf ebc8 add1      	0xadd1ebc84ddf
    3516:	68ad                	lui	a7,0xb
    3518:	000d                	c.nop	3
    351a:	0000                	unimp
    351c:	c0d17bcb          	fnmsub.s	fs7,ft2,fa3,fs8
    3520:	4155                	li	sp,21
    3522:	5452                	lw	s0,52(sp)
    3524:	6685                	lui	a3,0x1
    3526:	d1d268d7          	0xd1d268d7
    352a:	a286                	sh	s1,0(a3)
    352c:	000dc3d3          	fadd.s	ft7,fs11,ft0,rmm
    3530:	a285                	j	3690 <_read+0x25a>
    3532:	b594                	sb	a3,9(a1)
    3534:	e6b4a683          	lw	a3,-405(s1)
    3538:	bccaf5b3          	0xbccaf5b3
    353c:	2e2eafbb          	0x2e2eafbb
    3540:	0d2e                	slli	s10,s10,0xb
    3542:	0000                	unimp
    3544:	d1d2                	sw	s4,224(sp)
    3546:	a285c48f          	0xa285c48f
    354a:	b594                	sb	a3,9(a1)
    354c:	5e85                	li	t4,-31
    354e:	4b89                	li	s7,2
    3550:	dd41                	beqz	a0,34e8 <_read+0xb2>
    3552:	c864                	sw	s1,84(s0)
    3554:	94a285eb          	0x94a285eb
    3558:	0db5                	addi	s11,s11,13
    355a:	0000                	unimp
    355c:	d1d2                	sw	s4,224(sp)
    355e:	a285c48f          	0xa285c48f
    3562:	b594                	sb	a3,9(a1)
    3564:	5e85                	li	t4,-31
    3566:	4b89                	li	s7,2
    3568:	dd42                	sw	a6,184(sp)
    356a:	c864                	sw	s1,84(s0)
    356c:	94a285eb          	0x94a285eb
    3570:	0db5                	addi	s11,s11,13
    3572:	0000                	unimp
    3574:	6f9f a8b7 78d7      	0x78d7a8b76f9f
    357a:	a1c8                	sb	a0,4(a1)
    357c:	a285                	j	36dc <_read+0x2a6>
    357e:	b594                	sb	a3,9(a1)
    3580:	64ddaca3          	sw	a3,1625(s11)
    3584:	ebc8                	fsw	fa0,20(a5)
    3586:	41ee                	lw	gp,216(sp)
    3588:	4fd4                	lw	a3,28(a5)
    358a:	b5d6                	sh	a3,44(a1)
    358c:	000d                	c.nop	3
    358e:	0000                	unimp
    3590:	a285                	j	36f0 <_read+0x2ba>
    3592:	b594                	sb	a3,9(a1)
    3594:	bccaf5b3          	0xbccaf5b3
    3598:	a7caafbb          	0xa7caafbb
    359c:	a194                	sb	a3,0(a1)
    359e:	000d                	c.nop	3
    35a0:	0000                	unimp
    35a2:	3f80                	lbu	s0,25(a5)
    35a4:	5fe9                	li	t6,-6
    35a6:	bcca                	sh	a0,60(s1)
    35a8:	a285                	j	3708 <_read+0x2d2>
    35aa:	b594                	sb	a3,9(a1)
    35ac:	e6b4a683          	lw	a3,-405(s1)
    35b0:	a3c4                	sb	s1,4(a5)
    35b2:	4b89                	li	s7,2
    35b4:	799c                	flw	fa5,48(a1)
    35b6:	87d4                	sb	a3,15(sp)
    35b8:	2e2e                	lhu	a1,26(a2)
    35ba:	0d2e                	slli	s10,s10,0xb
    35bc:	0000                	unimp
    35be:	0000                	unimp
    35c0:	a285                	j	3720 <_read+0x2ea>
    35c2:	b594                	sb	a3,9(a1)
    35c4:	e6b4a683          	lw	a3,-405(s1)
    35c8:	a3c4                	sb	s1,4(a5)
    35ca:	4b89                	li	s7,2
    35cc:	bccaf5b3          	0xbccaf5b3
    35d0:	a7caafbb          	0xa7caafbb
    35d4:	a194                	sb	a3,0(a1)
    35d6:	000da1a3          	sw	zero,3(s11)
    35da:	0000                	unimp
    35dc:	0a0d                	addi	s4,s4,3
    35de:	799c                	flw	fa5,48(a1)
    35e0:	87d4                	sb	a3,15(sp)
    35e2:	beb1f9bb          	0xbeb1f9bb
    35e6:	79bdb5cf          	fnmadd.s	fa1,fs11,fs11,fa5,rup
    35ea:	a285                	j	374a <_read+0x314>
    35ec:	b594                	sb	a3,9(a1)
    35ee:	2e2e                	lhu	a1,26(a2)
    35f0:	0d2e                	slli	s10,s10,0xb
    35f2:	0000                	unimp
    35f4:	a1c878d7          	0xa1c878d7
    35f8:	beb1f9bb          	0xbeb1f9bb
    35fc:	79bdb5cf          	fnmadd.s	fa1,fs11,fs11,fa5,rup
    3600:	a285                	j	3760 <_read+0x32a>
    3602:	b594                	sb	a3,9(a1)
    3604:	a7ca                	sh	a0,12(a5)
    3606:	a194                	sb	a3,0(a1)
    3608:	000da1a3          	sw	zero,3(s11)
    360c:	94ae                	add	s1,s1,a1
    360e:	f9bbb0c7          	fmsub.s	ft1,fs7,fs11,ft11,rup
    3612:	beb1                	j	316e <_printf_i+0x1fa>
    3614:	a285                	j	3774 <_read+0x33e>
    3616:	b594                	sb	a3,9(a1)
    3618:	000dbaa3          	0xdbaa3
    361c:	d8b38aeb          	0xd8b38aeb
    3620:	93e9                	srli	a5,a5,0x3a
    3622:	b5d6                	sh	a3,44(a1)
    3624:	203a                	lhu	a4,2(s0)
    3626:	cdb5                	beqz	a1,36a2 <_read+0x26c>
    3628:	253d                	jal	3c56 <_read+0x820>
    362a:	2e64                	lbu	s1,30(a2)
    362c:	3025                	jal	2e54 <_vfiprintf_r+0x274>
    362e:	6432                	flw	fs0,12(sp)
    3630:	2c56                	lhu	a3,28(s0)
    3632:	ba20                	sb	s0,19(a2)
    3634:	b1c4                	sb	s1,5(a1)
    3636:	3d4d                	jal	34e8 <_read+0xb2>
    3638:	6425                	lui	s0,0x9
    363a:	252e                	lhu	a1,10(a0)
    363c:	3230                	lbu	a2,3(a2)
    363e:	5664                	lw	s1,108(a2)
    3640:	0a0d                	addi	s4,s4,3
    3642:	0000                	unimp
    3644:	cdd0                	sw	a2,28(a1)
    3646:	96cc                	0x96cc
    3648:	203a                	lhu	a4,2(s0)
    364a:	6425                	lui	s0,0x9
    364c:	202c                	lbu	a1,2(s0)
    364e:	67ed                	lui	a5,0x1b
    3650:	e6b077f3          	csrrci	a5,0xe6b,0
    3654:	beb1                	j	31b0 <_printf_i+0x23c>
    3656:	203a                	lhu	a4,2(s0)
    3658:	6425                	lui	s0,0x9
    365a:	252e                	lhu	a1,10(a0)
    365c:	0d64                	addi	s1,sp,668
    365e:	000a                	c.slli	zero,0x2
    3660:	799c                	flw	fa5,48(a1)
    3662:	87d4                	sb	a3,15(sp)
    3664:	ceb4                	sw	a3,88(a3)
    3666:	b594                	sb	a3,9(a1)
    3668:	203a                	lhu	a4,2(s0)
    366a:	6425                	lui	s0,0x9
    366c:	202c                	lbu	a1,2(s0)
    366e:	41ee                	lw	gp,216(sp)
    3670:	4fd4                	lw	a3,28(a5)
    3672:	c2ca                	sw	s2,68(sp)
    3674:	febc                	fsw	fa5,120(a3)
    3676:	203a                	lhu	a4,2(s0)
    3678:	6425                	lui	s0,0x9
    367a:	0a0d                	addi	s4,s4,3
    367c:	0000                	unimp
    367e:	0000                	unimp
    3680:	ded0                	sw	a2,60(a3)
    3682:	c4b8                	sw	a4,72(s1)
    3684:	a285                	j	37e4 <_read+0x3ae>
    3686:	b594                	sb	a3,9(a1)
    3688:	c2cabaa3          	0xc2cabaa3
    368c:	febc                	fsw	fa5,120(a3)
    368e:	253d                	jal	3cbc <_read+0x886>
    3690:	2c64                	lbu	s1,30(s0)
    3692:	9c20                	0x9c20
    3694:	d479                	beqz	s0,3662 <_read+0x22c>
    3696:	94ceb487          	fld	fs1,-1716(t4)
    369a:	3db5                	jal	3516 <_read+0xe0>
    369c:	6425                	lui	s0,0x9
    369e:	0a0d                	addi	s4,s4,3
    36a0:	0000                	unimp
    36a2:	0000                	unimp
    36a4:	fcb8                	fsw	fa4,120(s1)
    36a6:	c2d0                	sw	a2,4(a3)
    36a8:	beb1f9bb          	0xbeb1f9bb
    36ac:	79bdb5cf          	fnmadd.s	fa1,fs11,fs11,fa5,rup
    36b0:	a285                	j	3810 <_read+0x3da>
    36b2:	b594                	sb	a3,9(a1)
    36b4:	a7ca                	sh	a0,12(a5)
    36b6:	a194                	sb	a3,0(a1)
    36b8:	000da1a3          	sw	zero,3(s11)
    36bc:	a285                	j	381c <_read+0x3e6>
    36be:	b594                	sb	a3,9(a1)
    36c0:	fcb8                	fsw	fa4,120(s1)
    36c2:	c2d0                	sw	a2,4(a3)
    36c4:	9ef2                	add	t4,t4,t3
    36c6:	a7ca43d7          	0xa7ca43d7
    36ca:	a194                	sb	a3,0(a1)
    36cc:	000da1a3          	sw	zero,3(s11)
    36d0:	a285                	j	3830 <_read+0x3fa>
    36d2:	b594                	sb	a3,9(a1)
    36d4:	fcb8                	fsw	fa4,120(s1)
    36d6:	c2d0                	sw	a2,4(a3)
    36d8:	9ef2                	add	t4,t4,t3
    36da:	c9b343d7          	0xc9b343d7
    36de:	a6b9                	j	3a2c <_read+0x5f6>
    36e0:	000da1a3          	sw	zero,3(s11)
    36e4:	0a0d                	addi	s4,s4,3
    36e6:	799c                	flw	fa5,48(a1)
    36e8:	87d4                	sb	a3,15(sp)
    36ea:	77f3b2d3          	0x77f3b2d3
    36ee:	a3d0                	sb	a2,4(a5)
    36f0:	ca9c                	sw	a5,16(a3)
    36f2:	a285                	j	3852 <_read+0x41c>
    36f4:	b594                	sb	a3,9(a1)
    36f6:	2e2e                	lhu	a1,26(a2)
    36f8:	0d2e                	slli	s10,s10,0xb
    36fa:	0000                	unimp
    36fc:	a1c878d7          	0xa1c878d7
    3700:	77f3b2d3          	0x77f3b2d3
    3704:	a3d0                	sb	a2,4(a5)
    3706:	ca9c                	sw	a5,16(a3)
    3708:	a285                	j	3868 <_read+0x432>
    370a:	b594                	sb	a3,9(a1)
    370c:	a7ca                	sh	a0,12(a5)
    370e:	a194                	sb	a3,0(a1)
    3710:	000da1a3          	sw	zero,3(s11)
    3714:	94ae                	add	s1,s1,a1
    3716:	a3d0b0c7          	fmsub.d	ft1,ft1,ft9,fs4,rup
    371a:	ca9c                	sw	a5,16(a3)
    371c:	a285                	j	387c <_read+0x446>
    371e:	b594                	sb	a3,9(a1)
    3720:	000dbaa3          	0xdbaa3
    3724:	5645                	li	a2,-15
    3726:	545f d333 b07c      	0xb07cd333545f
    372c:	3a6c                	lbu	a1,23(a2)
    372e:	2520                	lbu	s0,10(a0)
    3730:	6d64                	flw	fs1,92(a0)
    3732:	2c56                	lhu	a3,28(s0)
    3734:	b920                	sb	s0,19(a0)
    3736:	d7a4                	sw	s1,104(a5)
    3738:	898aebf7          	0x898aebf7
    373c:	3aba                	lhu	a4,50(a3)
    373e:	2520                	lbu	s0,10(a0)
    3740:	2c64                	lbu	s1,30(s0)
    3742:	5420                	lw	s0,104(s0)
    3744:	898aeb33          	0x898aeb33
    3748:	3aba                	lhu	a4,50(a3)
    374a:	2520                	lbu	s0,10(a0)
    374c:	0d64                	addi	s1,sp,668
    374e:	000a                	c.slli	zero,0x2
    3750:	d89c                	sw	a5,48(s1)
    3752:	c8b6                	sw	a3,80(sp)
    3754:	abc6                	sh	s1,20(a5)
    3756:	c6d2                	sw	s4,76(sp)
    3758:	203a                	lhu	a4,2(s0)
    375a:	6425                	lui	s0,0x9
    375c:	252e                	lhu	a1,10(a0)
    375e:	3130                	lbu	a2,3(a0)
    3760:	a164                	sb	s1,6(a0)
    3762:	202c43e3          	blt	s8,sp,4168 <_data_lma+0x3e4>
    3766:	d8b38aeb          	0xd8b38aeb
    376a:	abc6                	sh	s1,20(a5)
    376c:	c6d2                	sw	s4,76(sp)
    376e:	203a                	lhu	a4,2(s0)
    3770:	6425                	lui	s0,0x9
    3772:	566d                	li	a2,-5
    3774:	0a0d                	addi	s4,s4,3
    3776:	0000                	unimp
    3778:	ded0                	sw	a2,60(a3)
    377a:	c4b8                	sw	a4,72(s1)
    377c:	a285                	j	38dc <_read+0x4a6>
    377e:	b594                	sb	a3,9(a1)
    3780:	d89cbaa3          	0xd89cbaa3
    3784:	c8b6                	sw	a3,80(sp)
    3786:	abc6                	sh	s1,20(a5)
    3788:	c6d2                	sw	s4,76(sp)
    378a:	253d                	jal	3db8 <_data_lma+0x34>
    378c:	2e64                	lbu	s1,30(a2)
    378e:	3025                	jal	2fb6 <_printf_i+0x42>
    3790:	6431                	lui	s0,0xc
    3792:	e3a1                	bnez	a5,37d2 <_read+0x39c>
    3794:	eb202c43          	fmadd.d	fs8,ft0,fs2,ft9,rdn
    3798:	b38a                	sh	a0,32(a5)
    379a:	c6d8                	sw	a4,12(a3)
    379c:	3dc6d2ab          	0x3dc6d2ab
    37a0:	6425                	lui	s0,0x9
    37a2:	566d                	li	a2,-5
    37a4:	0a0d                	addi	s4,s4,3
    37a6:	0000                	unimp
    37a8:	fcb8                	fsw	fa4,120(s1)
    37aa:	c2d0                	sw	a2,4(a3)
    37ac:	77f3b2d3          	0x77f3b2d3
    37b0:	a3d0                	sb	a2,4(a5)
    37b2:	ca9c                	sw	a5,16(a3)
    37b4:	a285                	j	3914 <_read+0x4de>
    37b6:	b594                	sb	a3,9(a1)
    37b8:	a7ca                	sh	a0,12(a5)
    37ba:	a194                	sb	a3,0(a1)
    37bc:	000da1a3          	sw	zero,3(s11)
    37c0:	0a0d                	addi	s4,s4,3
    37c2:	799c                	flw	fa5,48(a1)
    37c4:	87d4                	sb	a3,15(sp)
    37c6:	87d4                	sb	a3,15(sp)
    37c8:	acc6                	sh	s1,28(s1)
    37ca:	a285                	j	392a <_read+0x4f4>
    37cc:	b594                	sb	a3,9(a1)
    37ce:	2e2e                	lhu	a1,26(a2)
    37d0:	0d2e                	slli	s10,s10,0xb
    37d2:	0000                	unimp
    37d4:	a1c878d7          	0xa1c878d7
    37d8:	aad1                	j	39ac <_read+0x576>
    37da:	c7cc                	sw	a1,12(a5)
    37dc:	a285                	j	393c <_read+0x506>
    37de:	b594                	sb	a3,9(a1)
    37e0:	a7ca                	sh	a0,12(a5)
    37e2:	a194                	sb	a3,0(a1)
    37e4:	000da1a3          	sw	zero,3(s11)
    37e8:	94ae                	add	s1,s1,a1
    37ea:	aad1b0c7          	fmsub.d	ft1,ft3,fa3,fs5,rup
    37ee:	c7cc                	sw	a1,12(a5)
    37f0:	87d4                	sb	a3,15(sp)
    37f2:	acc6                	sh	s1,28(s1)
    37f4:	a285                	j	3954 <_read+0x51e>
    37f6:	b594                	sb	a3,9(a1)
    37f8:	000dbaa3          	0xdbaa3
    37fc:	7a99                	lui	s5,0xfffe6
    37fe:	799c                	flw	fa5,48(a1)
    3800:	93e9                	srli	a5,a5,0x3a
    3802:	b5d6                	sh	a3,44(a1)
    3804:	203a                	lhu	a4,2(s0)
    3806:	c2d0                	sw	a2,4(a3)
    3808:	87d4                	sb	a3,15(sp)
    380a:	acc6                	sh	s1,28(s1)
    380c:	253d                	jal	3e3a <_data_lma+0xb6>
    380e:	2c64                	lbu	s1,30(s0)
    3810:	d220                	sw	s0,96(a2)
    3812:	d3d1                	beqz	a5,3796 <_read+0x360>
    3814:	64253dc3          	0x64253dc3
    3818:	202c                	lbu	a1,2(s0)
    381a:	aad1                	j	39ee <_read+0x5b8>
    381c:	bad2                	sh	a2,52(a3)
    381e:	253d                	jal	3e4c <_data_lma+0xc8>
    3820:	0d64                	addi	s1,sp,668
    3822:	000a                	c.slli	zero,0x2
    3824:	799c                	flw	fa5,48(a1)
    3826:	bfc1                	j	37f6 <_read+0x3c0>
    3828:	a0b9                	j	3876 <_read+0x440>
    382a:	203afa87          	0x203afa87
    382e:	6425                	lui	s0,0x9
    3830:	252d                	jal	3e5a <_data_lma+0xd6>
    3832:	6d64                	flw	fs1,92(a0)
    3834:	4c642f67          	0x4c642f67
    3838:	0a0d                	addi	s4,s4,3
    383a:	0000                	unimp
    383c:	799c                	flw	fa5,48(a1)
    383e:	87d4                	sb	a3,15(sp)
    3840:	7295                	lui	t0,0xfffe5
    3842:	f2d0                	fsw	fa2,36(a3)
    3844:	3a31                	jal	3160 <_printf_i+0x1ec>
    3846:	5420                	lw	s0,104(s0)
    3848:	4c50                	lw	a2,28(s0)
    384a:	253d                	jal	3e78 <_data_lma+0xf4>
    384c:	6d64                	flw	fs1,92(a0)
    384e:	54202c73          	csrr	s8,0x542
    3852:	4452                	lw	s0,20(sp)
    3854:	253d                	jal	3e82 <_data_lma+0xfe>
    3856:	6d64                	flw	fs1,92(a0)
    3858:	45202c73          	csrr	s8,0x452
    385c:	3d56                	lhu	a3,60(a0)
    385e:	6425                	lui	s0,0x9
    3860:	736d                	lui	t1,0xffffb
    3862:	0a0d                	addi	s4,s4,3
    3864:	0000                	unimp
    3866:	0000                	unimp
    3868:	ded0                	sw	a2,60(a3)
    386a:	c4b8                	sw	a4,72(s1)
    386c:	a285                	j	39cc <_read+0x596>
    386e:	b594                	sb	a3,9(a1)
    3870:	c2d0baa3          	0xc2d0baa3
    3874:	87d4                	sb	a3,15(sp)
    3876:	acc6                	sh	s1,28(s1)
    3878:	93e9                	srli	a5,a5,0x3a
    387a:	b5d6                	sh	a3,44(a1)
    387c:	253d                	jal	3eaa <_data_lma+0x126>
    387e:	2c64                	lbu	s1,30(s0)
    3880:	5420                	lw	s0,104(s0)
    3882:	4c50                	lw	a2,28(s0)
    3884:	3d31                	jal	36a0 <_read+0x26a>
    3886:	6425                	lui	s0,0x9
    3888:	736d                	lui	t1,0xffffb
    388a:	0a0d                	addi	s4,s4,3
    388c:	0000                	unimp
    388e:	0000                	unimp
    3890:	fcb8                	fsw	fa4,120(s1)
    3892:	c2d0                	sw	a2,4(a3)
    3894:	aad1                	j	3a68 <_read+0x632>
    3896:	c7cc                	sw	a1,12(a5)
    3898:	a285                	j	39f8 <_read+0x5c2>
    389a:	b594                	sb	a3,9(a1)
    389c:	a7ca                	sh	a0,12(a5)
    389e:	a194                	sb	a3,0(a1)
    38a0:	000da1a3          	sw	zero,3(s11)
    38a4:	0a0d                	addi	s4,s4,3
    38a6:	799c                	flw	fa5,48(a1)
    38a8:	87d4                	sb	a3,15(sp)
    38aa:	d5c8                	sw	a0,44(a1)
    38ac:	dac6                	sw	a7,116(sp)
    38ae:	7295                	lui	t0,0xfffe5
    38b0:	67e9                	lui	a5,0x1a
    38b2:	a285                	j	3a12 <_read+0x5dc>
    38b4:	b594                	sb	a3,9(a1)
    38b6:	2e2e                	lhu	a1,26(a2)
    38b8:	0d2e                	slli	s10,s10,0xb
    38ba:	0000                	unimp
    38bc:	a1c878d7          	0xa1c878d7
    38c0:	d5c8                	sw	a0,44(a1)
    38c2:	dac6                	sw	a7,116(sp)
    38c4:	7295                	lui	t0,0xfffe5
    38c6:	67e9                	lui	a5,0x1a
    38c8:	a7ca                	sh	a0,12(a5)
    38ca:	a194                	sb	a3,0(a1)
    38cc:	000da1a3          	sw	zero,3(s11)
    38d0:	94ae                	add	s1,s1,a1
    38d2:	d5c8b0c7          	0xd5c8b0c7
    38d6:	dac6                	sw	a7,116(sp)
    38d8:	7295                	lui	t0,0xfffe5
    38da:	67e9                	lui	a5,0x1a
    38dc:	3032baa3          	0x3032baa3
    38e0:	3025                	jal	3108 <_printf_i+0x194>
    38e2:	6432                	flw	fs0,12(sp)
    38e4:	252d                	jal	3f0e <_data_lma+0x18a>
    38e6:	3230                	lbu	a2,3(a2)
    38e8:	2d64                	lbu	s1,30(a0)
    38ea:	3025                	jal	3112 <_printf_i+0x19e>
    38ec:	6432                	flw	fs0,12(sp)
    38ee:	2520                	lbu	s0,10(a0)
    38f0:	3230                	lbu	a2,3(a2)
    38f2:	3a64                	lbu	s1,23(a2)
    38f4:	3025                	jal	311c <_printf_i+0x1a8>
    38f6:	6432                	flw	fs0,12(sp)
    38f8:	253a                	lhu	a4,10(a0)
    38fa:	3230                	lbu	a2,3(a2)
    38fc:	0d64                	addi	s1,sp,668
    38fe:	000a                	c.slli	zero,0x2
    3900:	ded0                	sw	a2,60(a3)
    3902:	c4b8                	sw	a4,72(s1)
    3904:	7295                	lui	t0,0xfffe5
    3906:	67e9                	lui	a5,0x1a
    3908:	e99e                	fsw	ft7,208(sp)
    390a:	3032baa3          	0x3032baa3
    390e:	3025                	jal	3136 <_printf_i+0x1c2>
    3910:	6432                	flw	fs0,12(sp)
    3912:	252d                	jal	3f3c <_data_lma+0x1b8>
    3914:	3230                	lbu	a2,3(a2)
    3916:	2d64                	lbu	s1,30(a0)
    3918:	3025                	jal	3140 <_printf_i+0x1cc>
    391a:	6432                	flw	fs0,12(sp)
    391c:	2520                	lbu	s0,10(a0)
    391e:	3230                	lbu	a2,3(a2)
    3920:	3a64                	lbu	s1,23(a2)
    3922:	3025                	jal	314a <_printf_i+0x1d6>
    3924:	6432                	flw	fs0,12(sp)
    3926:	253a                	lhu	a4,10(a0)
    3928:	3230                	lbu	a2,3(a2)
    392a:	0d64                	addi	s1,sp,668
    392c:	000a                	c.slli	zero,0x2
    392e:	0000                	unimp
    3930:	fcb8                	fsw	fa4,120(s1)
    3932:	c2d0                	sw	a2,4(a3)
    3934:	d5c8                	sw	a0,44(a1)
    3936:	dac6                	sw	a7,116(sp)
    3938:	7295                	lui	t0,0xfffe5
    393a:	67e9                	lui	a5,0x1a
    393c:	a7ca                	sh	a0,12(a5)
    393e:	a194                	sb	a3,0(a1)
    3940:	000da1a3          	sw	zero,3(s11)
    3944:	7295                	lui	t0,0xfffe5
    3946:	67e9                	lui	a5,0x1a
    3948:	fcb8                	fsw	fa4,120(s1)
    394a:	c2d0                	sw	a2,4(a3)
    394c:	9ef2                	add	t4,t4,t3
    394e:	a7ca43d7          	0xa7ca43d7
    3952:	a194                	sb	a3,0(a1)
    3954:	000da1a3          	sw	zero,3(s11)
    3958:	7295                	lui	t0,0xfffe5
    395a:	67e9                	lui	a5,0x1a
    395c:	fcb8                	fsw	fa4,120(s1)
    395e:	c2d0                	sw	a2,4(a3)
    3960:	9ef2                	add	t4,t4,t3
    3962:	c9b343d7          	0xc9b343d7
    3966:	a6b9                	j	3cb4 <_read+0x87e>
    3968:	c2d0a1a3          	sw	a3,-989(ra) # 2a59 <_free_r+0x5d>
    396c:	7295                	lui	t0,0xfffe5
    396e:	67e9                	lui	a5,0x1a
    3970:	3025baa3          	0x3025baa3
    3974:	6432                	flw	fs0,12(sp)
    3976:	253a                	lhu	a4,10(a0)
    3978:	3230                	lbu	a2,3(a2)
    397a:	3a64                	lbu	s1,23(a2)
    397c:	3025                	jal	31a4 <_printf_i+0x230>
    397e:	6432                	flw	fs0,12(sp)
    3980:	0a0d                	addi	s4,s4,3
    3982:	0000                	unimp
    3984:	0a0d                	addi	s4,s4,3
    3986:	799c                	flw	fa5,48(a1)
    3988:	87d4                	sb	a3,15(sp)
    398a:	e482                	fsw	ft0,72(sp)
    398c:	5e85ddb7          	lui	s11,0x5e85d
    3990:	a6b9                	j	3cde <_read+0x8a8>
    3992:	dcc4                	sw	s1,60(s1)
    3994:	2e2e                	lhu	a1,26(a2)
    3996:	0d2e                	slli	s10,s10,0xb
    3998:	0000                	unimp
    399a:	0000                	unimp
    399c:	94ae                	add	s1,s1,a1
    399e:	eebbb0c7          	fmsub.q	ft1,fs7,fa1,ft9,rup
    39a2:	d384                	sw	s1,32(a5)
    39a4:	5e85                	li	t4,-31
    39a6:	4b89                	li	s7,2
    39a8:	d8b5                	beqz	s1,391c <_read+0x4e6>
    39aa:	b7d6                	sh	a3,44(a5)
    39ac:	203a                	lhu	a4,2(s0)
    39ae:	7830                	flw	fa2,112(s0)
    39b0:	3025                	jal	31d8 <_printf_i+0x264>
    39b2:	5838                	lw	a4,112(s0)
    39b4:	0a0d                	addi	s4,s4,3
    39b6:	0000                	unimp
    39b8:	d384eebb          	0xd384eebb
    39bc:	5e85                	li	t4,-31
    39be:	4b89                	li	s7,2
    39c0:	b4ce                	sh	a1,44(s1)
    39c2:	5193d0c7          	fmsub.s	ft1,ft7,fs9,fa0,unknown
    39c6:	000da1a3          	sw	zero,3(s11) # 5e85d003 <_eusrstack+0x3e858003>
    39ca:	0000                	unimp
    39cc:	d384eebb          	0xd384eebb
    39d0:	5e85                	li	t4,-31
    39d2:	4b89                	li	s7,2
    39d4:	d1d2                	sw	s4,224(sp)
    39d6:	5193d0c7          	fmsub.s	ft1,ft7,fs9,fa0,unknown
    39da:	7830baa3          	0x7830baa3
    39de:	3025                	jal	3206 <_printf_i+0x292>
    39e0:	5838                	lw	a4,112(s0)
    39e2:	2d20                	lbu	s0,26(a0)
    39e4:	203e                	lhu	a5,2(s0)
    39e6:	7830                	flw	fa2,112(s0)
    39e8:	3025                	jal	3210 <_printf_i+0x29c>
    39ea:	5838                	lw	a4,112(s0)
    39ec:	0a0d                	addi	s4,s4,3
    39ee:	0000                	unimp
    39f0:	e482                	fsw	ft0,72(sp)
    39f2:	5e85ddb7          	lui	s11,0x5e85d
    39f6:	a285                	j	3b56 <_read+0x720>
    39f8:	b594                	sb	a3,9(a1)
    39fa:	9ef2                	add	t4,t4,t3
    39fc:	a7ca43d7          	0xa7ca43d7
    3a00:	a194                	sb	a3,0(a1)
    3a02:	000da1a3          	sw	zero,3(s11) # 5e85d003 <_eusrstack+0x3e858003>
    3a06:	0000                	unimp
    3a08:	e482                	fsw	ft0,72(sp)
    3a0a:	5e85ddb7          	lui	s11,0x5e85d
    3a0e:	a285                	j	3b6e <_read+0x738>
    3a10:	b594                	sb	a3,9(a1)
    3a12:	9ef2                	add	t4,t4,t3
    3a14:	c9b343d7          	0xc9b343d7
    3a18:	a6b9                	j	3d66 <__sf_fake_stdout+0x3e>
    3a1a:	000da1a3          	sw	zero,3(s11) # 5e85d003 <_eusrstack+0x3e858003>
    3a1e:	0000                	unimp
    3a20:	0a0d                	addi	s4,s4,3
    3a22:	799c                	flw	fa5,48(a1)
    3a24:	87d4                	sb	a3,15(sp)
    3a26:	a285                	j	3b86 <_read+0x750>
    3a28:	b594                	sb	a3,9(a1)
    3a2a:	a1c840ab          	0xa1c840ab
    3a2e:	afba                	sh	a4,26(a5)
    3a30:	b594                	sb	a3,9(a1)
    3a32:	2e2e                	lhu	a1,26(a2)
    3a34:	0d2e                	slli	s10,s10,0xb
    3a36:	0000                	unimp
    3a38:	a1c840ab          	0xa1c840ab
    3a3c:	aad1                	j	3c10 <_read+0x7da>
    3a3e:	c7cc                	sw	a1,12(a5)
    3a40:	87d4                	sb	a3,15(sp)
    3a42:	acc6                	sh	s1,28(s1)
    3a44:	a285                	j	3ba4 <_read+0x76e>
    3a46:	b594                	sb	a3,9(a1)
    3a48:	a7ca                	sh	a0,12(a5)
    3a4a:	a194                	sb	a3,0(a1)
    3a4c:	000da1a3          	sw	zero,3(s11)
    3a50:	aad1                	j	3c24 <_read+0x7ee>
    3a52:	c7cc                	sw	a1,12(a5)
    3a54:	87d4                	sb	a3,15(sp)
    3a56:	acc6                	sh	s1,28(s1)
    3a58:	ba898aeb          	0xba898aeb
    3a5c:	a285                	j	3bbc <_read+0x786>
    3a5e:	b594                	sb	a3,9(a1)
    3a60:	c2d0baa3          	0xc2d0baa3
    3a64:	87d4                	sb	a3,15(sp)
    3a66:	acc6                	sh	s1,28(s1)
    3a68:	253d                	jal	4096 <_data_lma+0x312>
    3a6a:	2c64                	lbu	s1,30(s0)
    3a6c:	d220                	sw	s0,96(a2)
    3a6e:	d3d1                	beqz	a5,39f2 <_read+0x5bc>
    3a70:	64253dc3          	0x64253dc3
    3a74:	202c                	lbu	a1,2(s0)
    3a76:	aad1                	j	3c4a <_read+0x814>
    3a78:	bad2                	sh	a2,52(a3)
    3a7a:	253d                	jal	40a8 <_data_lma+0x324>
    3a7c:	0d64                	addi	s1,sp,668
    3a7e:	000a                	c.slli	zero,0x2
    3a80:	a1c840ab          	0xa1c840ab
    3a84:	aad1                	j	3c58 <_read+0x822>
    3a86:	c7cc                	sw	a1,12(a5)
    3a88:	799c                	flw	fa5,48(a1)
    3a8a:	bfc1                	j	3a5a <_read+0x624>
    3a8c:	a0b9                	j	3ada <_read+0x6a4>
    3a8e:	a7cafa87          	0xa7cafa87
    3a92:	a194                	sb	a3,0(a1)
    3a94:	000da1a3          	sw	zero,3(s11)
    3a98:	aad1                	j	3c6c <_read+0x836>
    3a9a:	c7cc                	sw	a1,12(a5)
    3a9c:	799c                	flw	fa5,48(a1)
    3a9e:	bfc1                	j	3a6e <_read+0x638>
    3aa0:	a0b9                	j	3aee <_read+0x6b8>
    3aa2:	baa3fa87          	0xbaa3fa87
    3aa6:	6425                	lui	s0,0x9
    3aa8:	252d                	jal	40d2 <_data_lma+0x34e>
    3aaa:	6d64                	flw	fs1,92(a0)
    3aac:	4c642f67          	0x4c642f67
    3ab0:	0a0d                	addi	s4,s4,3
    3ab2:	0000                	unimp
    3ab4:	a1c840ab          	0xa1c840ab
    3ab8:	aad1                	j	3c8c <_read+0x856>
    3aba:	c7cc                	sw	a1,12(a5)
    3abc:	7295                	lui	t0,0xfffe5
    3abe:	f2d0                	fsw	fa2,36(a3)
    3ac0:	a285                	j	3c20 <_read+0x7ea>
    3ac2:	b594                	sb	a3,9(a1)
    3ac4:	a7ca                	sh	a0,12(a5)
    3ac6:	a194                	sb	a3,0(a1)
    3ac8:	000da1a3          	sw	zero,3(s11)
    3acc:	aad1                	j	3ca0 <_read+0x86a>
    3ace:	c7cc                	sw	a1,12(a5)
    3ad0:	7295                	lui	t0,0xfffe5
    3ad2:	f2d0                	fsw	fa2,36(a3)
    3ad4:	a285                	j	3c34 <_read+0x7fe>
    3ad6:	b594                	sb	a3,9(a1)
    3ad8:	bd28                	sb	a0,27(a0)
    3ada:	314d                	jal	377c <_read+0x346>
    3adc:	a329                	j	3fe6 <_data_lma+0x262>
    3ade:	54ba                	lw	s1,172(sp)
    3ae0:	4c50                	lw	a2,28(s0)
    3ae2:	253d                	jal	4110 <_data_lma+0x38c>
    3ae4:	6d64                	flw	fs1,92(a0)
    3ae6:	54202c73          	csrr	s8,0x542
    3aea:	4452                	lw	s0,20(sp)
    3aec:	253d                	jal	411a <_data_lma+0x396>
    3aee:	6d64                	flw	fs1,92(a0)
    3af0:	45202c73          	csrr	s8,0x452
    3af4:	3d56                	lhu	a3,60(a0)
    3af6:	6425                	lui	s0,0x9
    3af8:	736d                	lui	t1,0xffffb
    3afa:	0a0d                	addi	s4,s4,3
    3afc:	0000                	unimp
    3afe:	0000                	unimp
    3b00:	f6d4                	fsw	fa3,44(a3)
    3b02:	d3bc                	sw	a5,96(a5)
    3b04:	799c                	flw	fa5,48(a1)
    3b06:	87d4                	sb	a3,15(sp)
    3b08:	b5948bd3          	0xb5948bd3
    3b0c:	a7ca                	sh	a0,12(a5)
    3b0e:	a194                	sb	a3,0(a1)
    3b10:	000da1a3          	sw	zero,3(s11)
    3b14:	799c                	flw	fa5,48(a1)
    3b16:	87d4                	sb	a3,15(sp)
    3b18:	b5948bd3          	0xb5948bd3
    3b1c:	6425baa3          	0x6425baa3
    3b20:	2d20                	lbu	s0,26(a0)
    3b22:	203e                	lhu	a5,2(s0)
    3b24:	6425                	lui	s0,0x9
    3b26:	0a0d                	addi	s4,s4,3
    3b28:	0000                	unimp
    3b2a:	0000                	unimp
    3b2c:	a285                	j	3c8c <_read+0x856>
    3b2e:	b594                	sb	a3,9(a1)
    3b30:	e6b4a683          	lw	a3,-405(s1)
    3b34:	a3c4                	sb	s1,4(a5)
    3b36:	4b89                	li	s7,2
    3b38:	799c                	flw	fa5,48(a1)
    3b3a:	87d4                	sb	a3,15(sp)
    3b3c:	eacd                	bnez	a3,3bee <_read+0x7b8>
    3b3e:	a1a3c9b3          	0xa1a3c9b3
    3b42:	000d                	c.nop	3
    3b44:	1670                	addi	a2,sp,812
    3b46:	0000                	unimp
    3b48:	1676                	slli	a2,a2,0x3d
    3b4a:	0000                	unimp
    3b4c:	167a                	slli	a2,a2,0x3e
    3b4e:	0000                	unimp
    3b50:	167e                	slli	a2,a2,0x3f
    3b52:	0000                	unimp
    3b54:	1682                	slli	a3,a3,0x20
    3b56:	0000                	unimp
    3b58:	1686                	slli	a3,a3,0x21
    3b5a:	0000                	unimp
    3b5c:	4155                	li	sp,21
    3b5e:	5452                	lw	s0,52(sp)
    3b60:	5020                	lw	s0,96(s0)
    3b62:	6f72                	flw	ft10,28(sp)
    3b64:	6f74                	flw	fa3,92(a4)
    3b66:	206c6f63          	bltu	s8,t1,3d84 <_data_lma>
    3b6a:	6e69                	lui	t3,0x1a
    3b6c:	7469                	lui	s0,0xffffa
    3b6e:	6169                	addi	sp,sp,208
    3b70:	696c                	flw	fa1,84(a0)
    3b72:	657a                	flw	fa0,156(sp)
    3b74:	0d64                	addi	s1,sp,668
    3b76:	0000                	unimp
    3b78:	6552                	flw	fa0,20(sp)
    3b7a:	76696563          	bltu	s2,t1,42e4 <_data_lma+0x560>
    3b7e:	6465                	lui	s0,0x19
    3b80:	6320                	flw	fs0,64(a4)
    3b82:	616d6d6f          	jal	s10,da198 <_data_lma+0xd6414>
    3b86:	646e                	flw	fs0,216(sp)
    3b88:	203a                	lhu	a4,2(s0)
    3b8a:	3025                	jal	33b2 <_lseek_r+0x20>
    3b8c:	5832                	lw	a6,44(sp)
    3b8e:	202c                	lbu	a1,2(s0)
    3b90:	656c                	flw	fa1,76(a0)
    3b92:	676e                	flw	fa4,216(sp)
    3b94:	6874                	flw	fa3,84(s0)
    3b96:	253d                	jal	41c4 <_data_lma+0x440>
    3b98:	0d64                	addi	s1,sp,668
    3b9a:	000a                	c.slli	zero,0x2
    3b9c:	7245                	lui	tp,0xffff1
    3b9e:	6f72                	flw	ft10,28(sp)
    3ba0:	2072                	lhu	a2,6(s0)
    3ba2:	6572                	flw	fa0,28(sp)
    3ba4:	6e6f7073          	csrci	0x6e6,30
    3ba8:	203a6573          	csrrsi	a0,hideleg,20
    3bac:	3d646d63          	bltu	s0,s6,3f86 <_data_lma+0x202>
    3bb0:	3025                	jal	33d8 <__malloc_unlock>
    3bb2:	5832                	lw	a6,44(sp)
    3bb4:	202c                	lbu	a1,2(s0)
    3bb6:	7265                	lui	tp,0xffff9
    3bb8:	6f72                	flw	ft10,28(sp)
    3bba:	3d72                	lhu	a2,62(a0)
    3bbc:	3025                	jal	33e4 <_read_r+0xa>
    3bbe:	5832                	lw	a6,44(sp)
    3bc0:	0a0d                	addi	s4,s4,3
    3bc2:	0000                	unimp
    3bc4:	6c42                	flw	fs8,16(sp)
    3bc6:	20646f6f          	jal	t5,49dcc <_data_lma+0x46048>
    3bca:	706d6173          	csrrsi	sp,0x706,26
    3bce:	656c                	flw	fa1,76(a0)
    3bd0:	6320                	flw	fs0,64(a4)
    3bd2:	6568                	flw	fa0,76(a0)
    3bd4:	202c6b63          	bltu	s8,sp,3dea <_data_lma+0x66>
    3bd8:	6e756f63          	bltu	a0,t2,42d6 <_data_lma+0x552>
    3bdc:	6474                	flw	fa3,76(s0)
    3bde:	3a6e776f          	jal	a4,eaf84 <_data_lma+0xe7200>
    3be2:	2520                	lbu	s0,10(a0)
    3be4:	2064                	lbu	s1,6(s0)
    3be6:	6f636573          	csrrsi	a0,0x6f6,6
    3bea:	646e                	flw	fs0,216(sp)
    3bec:	000a0d73          	0xa0d73
    3bf0:	6152                	flw	ft2,20(sp)
    3bf2:	61642077          	0x61642077
    3bf6:	6174                	flw	fa3,68(a0)
    3bf8:	7220                	flw	fs0,96(a2)
    3bfa:	7165                	addi	sp,sp,-400
    3bfc:	6575                	lui	a0,0x1d
    3bfe:	64657473          	csrrci	s0,0x646,10
    3c02:	202c                	lbu	a1,2(s0)
    3c04:	656c                	flw	fa1,76(a0)
    3c06:	676e                	flw	fa4,216(sp)
    3c08:	6874                	flw	fa3,84(s0)
    3c0a:	253d                	jal	4238 <_data_lma+0x4b4>
    3c0c:	0d64                	addi	s1,sp,668
    3c0e:	000a                	c.slli	zero,0x2
    3c10:	654d                	lui	a0,0x13
    3c12:	7361                	lui	t1,0xffff8
    3c14:	7275                	lui	tp,0xffffd
    3c16:	6d65                	lui	s10,0x19
    3c18:	6e65                	lui	t3,0x19
    3c1a:	2074                	lbu	a3,6(s0)
    3c1c:	6572                	flw	fa0,28(sp)
    3c1e:	746c7573          	csrrci	a0,0x746,24
    3c22:	203a                	lhu	a4,2(s0)
    3c24:	6156                	flw	ft2,84(sp)
    3c26:	756c                	flw	fa1,108(a0)
    3c28:	3d65                	jal	3ae0 <_read+0x6aa>
    3c2a:	6425                	lui	s0,0x9
    3c2c:	202c                	lbu	a1,2(s0)
    3c2e:	7954                	flw	fa3,52(a0)
    3c30:	6570                	flw	fa2,76(a0)
    3c32:	253d                	jal	4260 <_data_lma+0x4dc>
    3c34:	3430                	lbu	a2,11(s0)
    3c36:	2c58                	lbu	a4,28(s0)
    3c38:	4520                	lw	s0,72(a0)
    3c3a:	6576                	flw	fa0,92(sp)
    3c3c:	746e                	flw	fs0,248(sp)
    3c3e:	253d                	jal	426c <_data_lma+0x4e8>
    3c40:	3430                	lbu	a2,11(s0)
    3c42:	0d58                	addi	a4,sp,660
    3c44:	000a                	c.slli	zero,0x2
	...
    3c4e:	4039                	c.li	zero,14
    3c50:	74617453          	0x74617453
    3c54:	7375                	lui	t1,0xffffd
    3c56:	7220                	flw	fs0,96(a2)
    3c58:	7165                	addi	sp,sp,-400
    3c5a:	6575                	lui	a0,0x1d
    3c5c:	64657473          	csrrci	s0,0x646,10
    3c60:	2d20                	lbu	s0,26(a0)
    3c62:	5420                	lw	s0,104(s0)
    3c64:	7079                	c.lui	zero,0xffffe
    3c66:	3a65                	jal	361e <_read+0x1e8>
    3c68:	2520                	lbu	s0,10(a0)
    3c6a:	3430                	lbu	a2,11(s0)
    3c6c:	2c58                	lbu	a4,28(s0)
    3c6e:	5320                	lw	s0,96(a4)
    3c70:	7274                	flw	fa3,100(a2)
    3c72:	7069                	c.lui	zero,0xffffa
    3c74:	203a                	lhu	a4,2(s0)
    3c76:	3025                	jal	349e <_read+0x68>
    3c78:	5834                	lw	a3,112(s0)
    3c7a:	202c                	lbu	a1,2(s0)
    3c7c:	6142                	flw	ft2,16(sp)
    3c7e:	7474                	flw	fa3,108(s0)
    3c80:	7265                	lui	tp,0xffff9
    3c82:	3a79                	jal	3620 <_read+0x1ea>
    3c84:	2520                	lbu	s0,10(a0)
    3c86:	6d64                	flw	fs1,92(a0)
    3c88:	2c56                	lhu	a3,28(s0)
    3c8a:	5420                	lw	s0,104(s0)
    3c8c:	6d65                	lui	s10,0x19
    3c8e:	3a70                	lbu	a2,23(a2)
    3c90:	2520                	lbu	s0,10(a0)
    3c92:	312e                	lhu	a1,34(a0)
    3c94:	a166                	sh	s1,6(a0)
    3c96:	0a0d43e3          	bltz	s10,453c <_data_lma+0x7b8>
    3c9a:	0000                	unimp
    3c9c:	20746553          	0x20746553
    3ca0:	45444f43          	0x45444f43
    3ca4:	253d                	jal	42d2 <_data_lma+0x54e>
    3ca6:	2c64                	lbu	s1,30(s0)
    3ca8:	4520                	lw	s0,72(a0)
    3caa:	4556                	lw	a0,84(sp)
    3cac:	544e                	lw	s0,240(sp)
    3cae:	253d                	jal	42dc <_data_lma+0x558>
    3cb0:	3430                	lbu	a2,11(s0)
    3cb2:	0d58                	addi	a4,sp,660
    3cb4:	000a                	c.slli	zero,0x2
    3cb6:	0000                	unimp
    3cb8:	6954                	flw	fa3,20(a0)
    3cba:	656d                	lui	a0,0x1b
    3cbc:	7320                	flw	fs0,96(a4)
    3cbe:	6e79                	lui	t3,0x1e
    3cc0:	3a646563          	bltu	s0,t1,406a <_data_lma+0x2e6>
    3cc4:	2520                	lbu	s0,10(a0)
    3cc6:	3430                	lbu	a2,11(s0)
    3cc8:	2d64                	lbu	s1,30(a0)
    3cca:	3025                	jal	34f2 <_read+0xbc>
    3ccc:	6432                	flw	fs0,12(sp)
    3cce:	252d                	jal	42f8 <_data_lma+0x574>
    3cd0:	3230                	lbu	a2,3(a2)
    3cd2:	2064                	lbu	s1,6(s0)
    3cd4:	3025                	jal	34fc <_read+0xc6>
    3cd6:	6432                	flw	fs0,12(sp)
    3cd8:	253a                	lhu	a4,10(a0)
    3cda:	3230                	lbu	a2,3(a2)
    3cdc:	3a64                	lbu	s1,23(a2)
    3cde:	3025                	jal	3506 <_read+0xd0>
    3ce0:	6432                	flw	fs0,12(sp)
    3ce2:	0a0d                	addi	s4,s4,3
    3ce4:	0000                	unimp
	...

00003ce8 <__sf_fake_stderr>:
	...

00003d08 <__sf_fake_stdin>:
	...

00003d28 <__sf_fake_stdout>:
	...
    3d48:	2d23 2b30 0020 0000 6c68 004c 6665 4567     #-0+ ...hlL.efgE
    3d58:	4746 0000 3130 3332 3534 3736 3938 4241     FG..0123456789AB
    3d68:	4443 4645 0000 0000 3130 3332 3534 3736     CDEF....01234567
    3d78:	3938 6261 6463 6665 0000 0000               89abcdef....
