
CH32V203G8R6.elf:     file format elf32-littleriscv
CH32V203G8R6.elf
architecture: riscv:rv32, flags 0x00000112:
EXEC_P, HAS_SYMS, D_PAGED
start address 0x00000000

Program Header:
    LOAD off    0x00001000 vaddr 0x00000000 paddr 0x00000000 align 2**12
         filesz 0x00004ab4 memsz 0x00004ab4 flags r-x
    LOAD off    0x00006000 vaddr 0x20000000 paddr 0x00004ab4 align 2**12
         filesz 0x000000a0 memsz 0x0000095c flags rw-
    LOAD off    0x00006800 vaddr 0x20004800 paddr 0x20004800 align 2**12
         filesz 0x00000000 memsz 0x00000800 flags rw-

Sections:
Idx Name          Size      VMA       LMA       File off  Algn
  0 .init         00000004  00000000  00000000  00001000  2**1
                  CONTENTS, ALLOC, LOAD, READONLY, CODE
  1 .vector       000000fc  00000004  00000004  00001004  2**1
                  CONTENTS, ALLOC, LOAD, READONLY, CODE
  2 .text         000049b4  00000100  00000100  00001100  2**2
                  CONTENTS, ALLOC, LOAD, READONLY, CODE
  3 .fini         00000000  00004ab4  00004ab4  000060a0  2**0
                  CONTENTS, ALLOC, LOAD, CODE
  4 .dalign       00000000  20000000  20000000  000060a0  2**0
                  CONTENTS
  5 .dlalign      00000000  00004ab4  00004ab4  000060a0  2**0
                  CONTENTS
  6 .data         000000a0  20000000  00004ab4  00006000  2**2
                  CONTENTS, ALLOC, LOAD, DATA
  7 .bss          000008bc  200000a0  00004b54  000060a0  2**2
                  ALLOC
  8 .stack        00000800  20004800  20004800  00006800  2**0
                  ALLOC
  9 .debug_info   0001ae3c  00000000  00000000  000060a0  2**0
                  CONTENTS, READONLY, DEBUGGING
 10 .debug_abbrev 0000499e  00000000  00000000  00020edc  2**0
                  CONTENTS, READONLY, DEBUGGING
 11 .debug_aranges 00000e48  00000000  00000000  00025880  2**3
                  CONTENTS, READONLY, DEBUGGING
 12 .debug_ranges 00001100  00000000  00000000  000266c8  2**3
                  CONTENTS, READONLY, DEBUGGING
 13 .debug_line   00015a88  00000000  00000000  000277c8  2**0
                  CONTENTS, READONLY, DEBUGGING
 14 .debug_str    00004715  00000000  00000000  0003d250  2**0
                  CONTENTS, READONLY, DEBUGGING
 15 .comment      00000032  00000000  00000000  00041965  2**0
                  CONTENTS, READONLY
 16 .debug_frame  00002ac4  00000000  00000000  00041998  2**2
                  CONTENTS, READONLY, DEBUGGING
 17 .debug_loc    00007c02  00000000  00000000  0004445c  2**0
                  CONTENTS, READONLY, DEBUGGING
 18 .stab         00000084  00000000  00000000  0004c060  2**2
                  CONTENTS, READONLY, DEBUGGING
 19 .stabstr      00000117  00000000  00000000  0004c0e4  2**0
                  CONTENTS, READONLY, DEBUGGING
SYMBOL TABLE:
00000000 l    d  .init	00000000 .init
00000004 l    d  .vector	00000000 .vector
00000100 l    d  .text	00000000 .text
00004ab4 l    d  .fini	00000000 .fini
20000000 l    d  .dalign	00000000 .dalign
00004ab4 l    d  .dlalign	00000000 .dlalign
20000000 l    d  .data	00000000 .data
200000a0 l    d  .bss	00000000 .bss
20004800 l    d  .stack	00000000 .stack
00000000 l    d  .debug_info	00000000 .debug_info
00000000 l    d  .debug_abbrev	00000000 .debug_abbrev
00000000 l    d  .debug_aranges	00000000 .debug_aranges
00000000 l    d  .debug_ranges	00000000 .debug_ranges
00000000 l    d  .debug_line	00000000 .debug_line
00000000 l    d  .debug_str	00000000 .debug_str
00000000 l    d  .comment	00000000 .comment
00000000 l    d  .debug_frame	00000000 .debug_frame
00000000 l    d  .debug_loc	00000000 .debug_loc
00000000 l    d  .stab	00000000 .stab
00000000 l    d  .stabstr	00000000 .stabstr
00000000 l    df *ABS*	00000000 ./Startup/startup_ch32v20x_D6.o
00000004 l       .vector	00000000 _vector_base
00000000 l    df *ABS*	00000000 ch32v20x_it.c
00000000 l    df *ABS*	00000000 main.c
200000a0 l     O .bss	00000004 lastCheckTime.5189
200000a4 l     O .bss	00000004 lastPrintTime.5199
00000000 l    df *ABS*	00000000 param_table.c
200005d8 l     O .bss	000002a6 param_table
0000442c l     O .text	0000000a CSWTCH.10
00004438 l     O .text	0000000a CSWTCH.11
00004444 l     O .text	0000000a CSWTCH.12
00004450 l     O .text	00000014 CSWTCH.4
00004464 l     O .text	0000000c CSWTCH.5
00000000 l    df *ABS*	00000000 rtc.c
00000000 l    df *ABS*	00000000 strip_detect.c
00000f12 l     F .text	00000062 STRIP_DETECT_DetermineStripType
00000f74 l     F .text	00000060 STRIP_DETECT_UpdateWPWMDuty
00000fd4 l     F .text	0000003a STRIP_DETECT_ReadADC.constprop.0
20000000 l     O .data	00000018 stripInfo
00000000 l    df *ABS*	00000000 system_ch32v20x.c
00000000 l    df *ABS*	00000000 system_state.c
200000a8 l     O .bss	00000004 currentSystemState
00000000 l    df *ABS*	00000000 uart_protocol.c
000013d0 l     F .text	0000008a UART_SendPacket.part.1
20000880 l     O .bss	0000003c current_raw_data
200008bc l     O .bss	0000001a current_test_result
200008d8 l     O .bss	00000040 rx_buffer
20000918 l     O .bss	00000040 tx_buffer
200000ac l     O .bss	00000001 blood_detected
200000ad l     O .bss	00000001 dataCnt.5259
200000ae l     O .bss	00000001 dataLen.5258
200000b2 l     O .bss	00000001 packet_received
200000b4 l     O .bss	00000002 rx_index
200000b6 l     O .bss	00000001 state.5257
200000b7 l     O .bss	00000001 test_in_progress
2000008c l     O .data	00000001 blood_countdown
00000000 l    df *ABS*	00000000 uart_protocol_stubs.c
200000b8 l     O .bss	00000001 counter.5045
00000000 l    df *ABS*	00000000 ch32v20x_adc.c
00000000 l    df *ABS*	00000000 ch32v20x_bkp.c
00000000 l    df *ABS*	00000000 ch32v20x_dma.c
00000000 l    df *ABS*	00000000 ch32v20x_flash.c
00000000 l    df *ABS*	00000000 ch32v20x_gpio.c
00000000 l    df *ABS*	00000000 ch32v20x_misc.c
00000000 l    df *ABS*	00000000 ch32v20x_opa.c
00000000 l    df *ABS*	00000000 ch32v20x_pwr.c
00000000 l    df *ABS*	00000000 ch32v20x_rcc.c
20000018 l     O .data	00000010 APBAHBPrescTable
20000090 l     O .data	00000004 ADCPrescTable
00000000 l    df *ABS*	00000000 ch32v20x_rtc.c
00000000 l    df *ABS*	00000000 ch32v20x_tim.c
00000000 l    df *ABS*	00000000 ch32v20x_usart.c
00000000 l    df *ABS*	00000000 debug.c
200000c0 l     O .bss	00000002 p_ms
200000c2 l     O .bss	00000001 p_us
20000094 l     O .data	00000004 curbrk.4652
00000000 l    df *ABS*	00000000 memcpy.c
00000000 l    df *ABS*	00000000 printf.c
00000000 l    df *ABS*	00000000 puts.c
00000000 l    df *ABS*	00000000 wbuf.c
00000000 l    df *ABS*	00000000 wsetup.c
00000000 l    df *ABS*	00000000 fflush.c
00000000 l    df *ABS*	00000000 findfp.c
000034ce l     F .text	00000066 std
00000000 l    df *ABS*	00000000 fwalk.c
00000000 l    df *ABS*	00000000 makebuf.c
00000000 l    df *ABS*	00000000 nano-mallocr.c
00000000 l    df *ABS*	00000000 nano-mallocr.c
00000000 l    df *ABS*	00000000 nano-vfprintf.c
00003960 l     F .text	00000028 __sfputc_r
00000000 l    df *ABS*	00000000 nano-vfprintf_i.c
00000000 l    df *ABS*	00000000 sbrkr.c
00000000 l    df *ABS*	00000000 stdio.c
00000000 l    df *ABS*	00000000 writer.c
00000000 l    df *ABS*	00000000 closer.c
00000000 l    df *ABS*	00000000 fstatr.c
00000000 l    df *ABS*	00000000 isattyr.c
00000000 l    df *ABS*	00000000 lseekr.c
00000000 l    df *ABS*	00000000 memchr.c
00000000 l    df *ABS*	00000000 mlock.c
00000000 l    df *ABS*	00000000 readr.c
00000000 l    df *ABS*	00000000 close.c
00000000 l    df *ABS*	00000000 fstat.c
00000000 l    df *ABS*	00000000 isatty.c
00000000 l    df *ABS*	00000000 lseek.c
00000000 l    df *ABS*	00000000 read.c
00000000 l    df *ABS*	00000000 impure.c
20000028 l     O .data	00000060 impure_data
00000000 l    df *ABS*	00000000 reent.c
00001d92  w      .text	00000000 EXTI2_IRQHandler
00001c84 g     F .text	00000004 Perform_Test
00004154 g     F .text	00000028 _isatty_r
00002114 g     F .text	0000001a FLASH_Unlock
000030a0 g     F .text	000000d4 _puts_r
0000417c g     F .text	0000002c _lseek_r
000020e2 g     F .text	00000014 DMA_Cmd
000018bc g     F .text	00000050 UART_ProcessCheckBlood
00003060 g     F .text	00000040 printf
20000888 g       .data	00000000 __global_pointer$
00000108 g     F .text	00000028 .hidden __riscv_save_8
00001d92  w      .text	00000000 TIM1_CC_IRQHandler
0000409e g     F .text	00000030 __sseek
00003584 g     F .text	0000006c __sinit
00003180 g     F .text	000000bc __swbuf_r
0000020a g     F .text	00000010 HardFault_Handler
000025c4 g     F .text	00000012 RTC_EnterConfigMode
0000353e g     F .text	00000046 __sfmoreglue
000041c2 g     F .text	00000002 __malloc_unlock
00001bcc g     F .text	00000044 UART_Protocol_Process
00000154 g     F .text	0000000c .hidden __riscv_restore_3
0000190c g     F .text	00000076 UART_ProcessGetResult
00001d92  w      .text	00000000 SysTick_Handler
00001ed2 g     F .text	0000000a ADC_StartCalibration
00002308 g     F .text	00000054 NVIC_Init
00001d92  w      .text	00000000 PVD_IRQHandler
00000140 g     F .text	00000020 .hidden __riscv_restore_10
00000208 g     F .text	00000002 NMI_Handler
00001d92  w      .text	00000000 EXTI3_IRQHandler
00000108 g     F .text	00000028 .hidden __riscv_save_11
000015dc g     F .text	00000146 UART_SendRawDataAck
00001c64 g     F .text	00000020 Check_Blood_Status
000021b0 g     F .text	00000038 FLASH_ProgramHalfWord
000025ee g     F .text	0000005a RTC_GetCounter
0000294c g     F .text	0000000a USART_GetFlagStatus
0000412a g     F .text	0000002a _fstat_r
20000958 g     O .bss	00000004 errno
200000a0 g       .bss	00000000 _sbss
00000800 g       *ABS*	00000000 __stack_size
00001fbc g     F .text	0000000a ADC_GetFlagStatus
000029f2 g     F .text	0000005a USART_Printf_Init
000020aa g     F .text	00000038 DMA_Init
00002174 g     F .text	0000003c FLASH_ErasePage
00000884 g     F .text	00000016 PARAM_GetByte
00001d92  w      .text	00000000 USBFS_IRQHandler
00001982 g     F .text	00000044 UART_ProcessGetRawData
00000154 g     F .text	0000000c .hidden __riscv_restore_2
0000255c g     F .text	00000020 RCC_BackupResetCmd
0000280c g     F .text	00000016 TIM_CtrlPWMOutputs
00002fae g     F .text	000000b2 memcpy
00001eb0 g     F .text	00000010 ADC_Cmd
00001fd6 g     F .text	0000001c BKP_WriteBackupRegister
00003534 g     F .text	0000000a _cleanup_r
00001d92  w      .text	00000000 EXTI0_IRQHandler
00001d92  w      .text	00000000 I2C2_EV_IRQHandler
200000cc g     O .bss	00000101 USART_DMA_CTRL
000027f4 g     F .text	00000018 TIM_Cmd
00003174 g     F .text	0000000c puts
20000088 g     O .data	00000004 SystemCoreClock
0000098a g     F .text	00000026 PARAM_LoadFromFlash
00002944 g     F .text	00000008 USART_ReceiveData
00001c4c g     F .text	0000000e Get_Battery_Voltage
0000100e g     F .text	000000dc STRIP_DETECT_Init
000041fc g     F .text	0000000c _fstat
200000b0 g     O .bss	00000002 g_batteryVoltage
00000004 g       .init	00000000 _einit
00000450 g     F .text	000000de TIM1_PWM_Init
00001b36 g     F .text	00000096 UART_ProcessPacket
00002108 g     F .text	00000004 DMA_SetCurrDataCounter
00002502 g     F .text	0000001e RCC_APB2PeriphClockCmd
00000100 g     F .text	00000030 .hidden __riscv_save_12
00001d92  w      .text	00000000 ADC1_2_IRQHandler
000021e8 g     F .text	000000f2 GPIO_Init
000023d4 g     F .text	00000012 RCC_ADCCLKConfig
00001d92  w      .text	00000000 Break_Point_Handler
0000136a g     F .text	00000044 UART_Protocol_Init
00000140 g     F .text	00000020 .hidden __riscv_restore_11
200000bc g     O .bss	00000004 NVIC_Priority_Group
00000b60 g     F .text	0000006a PARAM_SetDateTime
00001d92  w      .text	00000000 SPI1_IRQHandler
00001ec0 g     F .text	0000000a ADC_ResetCalibration
000028de g     F .text	00000016 USART_Cmd
00004000 g     F .text	0000002a _sbrk_r
00001d92  w      .text	00000000 TAMPER_IRQHandler
00000130 g     F .text	0000000c .hidden __riscv_save_1
00000154 g     F .text	0000000c .hidden __riscv_restore_0
00000c24 g     F .text	000000ca RTC_SetTime
00002740 g     F .text	00000094 TIM_OC3Init
000041c4 g     F .text	0000002c _read_r
00000116 g     F .text	0000001a .hidden __riscv_save_7
00001722 g     F .text	0000001c UART_SendErrorAck
00002406 g     F .text	00000020 RCC_RTCCLKCmd
0000210c g     F .text	00000008 DMA_ClearITPendingBit
0000129a g     F .text	0000000a STRIP_DETECT_GetStripType
00002e94 g     F .text	000000ac .hidden __extendsfdf2
00002392 g     F .text	0000002c OPA_Cmd
00002520 g     F .text	0000001e RCC_APB1PeriphClockCmd
0000052e g     F .text	000000f0 State_Process
00001d92  w      .text	00000000 Ecall_M_Mode_Handler
20004800 g       .stack	00000000 _heap_end
000003ee g     F .text	00000062 OPA2_Init
00004208 g     F .text	0000000c _isatty
2000009c g     O .data	00000004 _global_impure_ptr
0000014a g     F .text	00000016 .hidden __riscv_restore_5
000009b0 g     F .text	00000100 PARAM_SetDefault
000019c6 g     F .text	000000ee UART2_Receive_Byte_ISR
000024e4 g     F .text	0000001e RCC_AHBPeriphClockCmd
00001d92  w      .text	00000000 DMA1_Channel4_IRQHandler
00001efc g     F .text	000000b8 ADC_RegularChannelConfig
000008ac g     F .text	0000001c PARAM_GetWord
0000149c g     F .text	00000018 UART_SendSyncTimeAck
00002a8a g     F .text	00000026 _sbrk
00001fb4 g     F .text	00000008 ADC_GetConversionValue
00000afe g     F .text	00000020 Unit_GetSymbol
00002674 g     F .text	0000002e RTC_SetPrescaler
0000212e g     F .text	0000000e FLASH_Lock
0000145a g     F .text	0000002c UART_VerifyChecksum
0000014a g     F .text	00000016 .hidden __riscv_restore_6
00001d92  w      .text	00000000 USART3_IRQHandler
00000dde g     F .text	0000005e RTC_Init
000023be g     F .text	00000016 PWR_BackupAccessCmd
00001d92  w      .text	00000000 RTC_IRQHandler
00001edc g     F .text	00000008 ADC_GetCalibrationStatus
2000095c g       .bss	00000000 _ebss
00002956 g     F .text	0000003c USART_GetITStatus
00001d92  w      .text	00000000 DMA1_Channel7_IRQHandler
00001ee4 g     F .text	00000018 ADC_SoftwareStartConvCmd
0000283c g     F .text	0000000e TIM_OC3PreloadConfig
00001eca g     F .text	00000008 ADC_GetResetCalibrationStatus
00001d92  w      .text	00000000 CAN1_RX1_IRQHandler
00000b1e g     F .text	00000042 PARAM_GetDateTime
00002992 g     F .text	0000002a Delay_Init
000026b2 g     F .text	00000024 RTC_WaitForSynchro
0000257c g     F .text	0000002e RCC_GetFlagStatus
00001fc6 g     F .text	00000010 BKP_DeInit
00000ab0 g     F .text	0000002e PARAM_Init
00002ab0 g     F .text	00000086 .hidden __gtsf2
000022da g     F .text	00000014 GPIO_SetBits
00001d92  w      .text	00000000 TIM4_IRQHandler
000008c8 g     F .text	00000016 PARAM_SetWord
00002822 g     F .text	0000001a TIM_ARRPreloadConfig
00000108 g     F .text	00000028 .hidden __riscv_save_9
00002648 g     F .text	0000002c RTC_SetCounter
00000d94 g     F .text	0000004a RTC_SyncWithParam
00004a18 g     O .text	00000020 __sf_fake_stderr
00000116 g     F .text	0000001a .hidden __riscv_save_4
00000cee g     F .text	000000a6 RTC_GetTime
00001d92  w      .text	00000000 I2C1_EV_IRQHandler
00002426 g     F .text	000000be RCC_GetClocksFreq
000007f6 g     F .text	0000008e DMA1_Channel6_IRQHandler
00002f40 g     F .text	0000006e .hidden __clzsi2
00003988 g     F .text	00000042 __sfputs_r
000008de g     F .text	00000034 PARAM_VerifyChecksum
00001d92  w      .text	00000000 UART4_IRQHandler
000041a8 g     F .text	00000018 memchr
0000284e g     F .text	00000090 USART_Init
000037e4 g     F .text	000000a8 _free_r
00001d92  w      .text	00000000 TIM3_IRQHandler
00001d92  w      .text	00000000 RCC_IRQHandler
00000130 g     F .text	0000000c .hidden __riscv_save_3
00001d92  w      .text	00000000 TIM1_TRG_COM_IRQHandler
000002be g     F .text	00000096 DMA_INIT
00001d92  w      .text	00000000 DMA1_Channel1_IRQHandler
00000000 g       .init	00000000 _start
00004214 g     F .text	0000000c _lseek
00002154 g     F .text	00000020 FLASH_WaitForLastOperation
000023fa g     F .text	0000000c RCC_RTCCLKConfig
000011fe g     F .text	0000009c STRIP_DETECT_HandleInsertedEvent
000010ea g     F .text	00000114 STRIP_DETECT_Process
00001d92  w      .text	00000000 EXTI15_10_IRQHandler
000028f4 g     F .text	00000036 USART_ITConfig
00001d92  w      .text	00000000 DMA1_Channel8_IRQHandler
00001870 g     F .text	0000004c UART_ProcessSetParam
0000089a g     F .text	00000012 PARAM_SetByte
000022ee g     F .text	00000014 GPIO_ResetBits
00004102 g     F .text	00000028 _close_r
20000000 g       .dalign	00000000 _data_vma
0000021a g     F .text	000000a4 USARTx_CFG
0000284a g     F .text	00000004 TIM_SetCompare3
200000b9 g     O .bss	00000001 MCU_Version
00001c88 g     F .text	0000007a Get_Test_Data
0000323c g     F .text	000000fc __swsetup_r
00001d92  w      .text	00000000 EXTI9_5_IRQHandler
0000173e g     F .text	000000fe UART_ProcessSyncTime
00001c60 g     F .text	00000004 Check_Strip_Status
000035f0 g     F .text	000000a0 __sfp
0000235c g     F .text	00000036 OPA_Init
00000108 g     F .text	00000028 .hidden __riscv_save_10
0000402a g     F .text	0000002c __sread
000041c0 g     F .text	00000002 __malloc_lock
0000152a g     F .text	000000b2 UART_SendResultAck
0000014a g     F .text	00000016 .hidden __riscv_restore_4
00000140 g     F .text	00000020 .hidden __riscv_restore_8
00003468 g     F .text	00000066 _fflush_r
00000116 g     F .text	0000001a .hidden __riscv_save_6
00001d92  w      .text	00000000 SPI2_IRQHandler
00004a38 g     O .text	00000020 __sf_fake_stdin
00000160 g     F .text	000000a8 memset
00001340 g     F .text	00000024 System_SetState
00000140 g     F .text	00000020 .hidden __riscv_restore_9
0000014a g     F .text	00000016 .hidden __riscv_restore_7
0000061e g     F .text	0000010a main
00000354 g     F .text	0000009a ring_buffer_push_huge
000040ce g     F .text	00000006 __sclose
0000388c g     F .text	000000d4 _malloc_r
00000912 g     F .text	0000003e PARAM_UpdateChecksum
00001d92  w      .text	00000000 DMA1_Channel5_IRQHandler
00000bca g     F .text	0000005a PARAM_GetStripParameters
00001d92  w      .text	00000000 EXTI4_IRQHandler
000029bc g     F .text	00000036 Delay_Ms
00001d92  w      .text	00000000 USB_LP_CAN1_RX0_IRQHandler
00002b36 g     F .text	00000290 .hidden __mulsf3
00000ade g     F .text	00000020 StripType_GetName
000012b2 g     F .text	0000008e SystemInit
00003060 g     F .text	00000040 iprintf
0000183c g     F .text	00000034 UART_ProcessGetStatus
00001d92  w      .text	00000000 USB_HP_CAN1_TX_IRQHandler
00004918 g     O .text	00000100 .hidden __clz_tab
00000000 g       .init	00000000 _sinit
00002ab0 g     F .text	00000086 .hidden __gesf2
000040d4 g     F .text	0000002e _write_r
00001d92  w      .text	00000000 DMA1_Channel3_IRQHandler
00001512 g     F .text	00000018 UART_SendBloodNotify
00001486 g     F .text	00000016 UART_SendPacket
00000e3c g     F .text	00000060 RTC_UpdateParam
00003c52 g     F .text	0000010c _printf_common
20000098 g     O .data	00000004 _impure_ptr
00001d92  w      .text	00000000 TIM1_UP_IRQHandler
00000950 g     F .text	0000003a PARAM_SaveToFlash
00003338 g     F .text	00000130 __sflush_r
00001d92  w      .text	00000000 WWDG_IRQHandler
000013ae g     F .text	00000022 UART_CalculateChecksum
00001ff2 g     F .text	0000001c BKP_ReadBackupRegister
00001d92  w      .text	00000000 Ecall_U_Mode_Handler
00001ab4 g     F .text	00000082 UART_ProcessStripInsertedCmd
000020f6 g     F .text	00000012 DMA_ITConfig
00001d92  w      .text	00000000 TIM2_IRQHandler
20005000 g       .stack	00000000 _eusrstack
00000130 g     F .text	0000000c .hidden __riscv_save_2
00001d92  w      .text	00000000 SW_Handler
00001364 g     F .text	00000006 System_GetState
00001e1a g     F .text	00000040 ADC_DeInit
00001d92  w      .text	00000000 TIM1_BRK_IRQHandler
000036fa g     F .text	00000058 __swhatbuf_r
00001e5a g     F .text	00000056 ADC_Init
0000293c g     F .text	00000008 USART_SendData
00001d02 g     F .text	00000090 Get_Raw_Test_Data
00001d92  w      .text	00000000 EXTI1_IRQHandler
000026a2 g     F .text	00000010 RTC_WaitForLastTask
00000116 g     F .text	0000001a .hidden __riscv_save_5
00002a4c g     F .text	0000003e _write
200000a0 g       .data	00000000 _edata
2000095c g       .bss	00000000 _end
000026d6 g     F .text	0000006a TIM_TimeBaseInit
00001d92  w      .text	00000000 RTCAlarm_IRQHandler
00004ab4 g       .dlalign	00000000 _data_lma
00000728 g     F .text	000000ce USART2_IRQHandler
00004056 g     F .text	00000048 __swrite
000025d6 g     F .text	00000018 RTC_ExitConfigMode
000039ca g     F .text	00000288 _vfiprintf_r
00003690 g     F .text	0000006a _fwalk_reent
00001c10 g     F .text	0000003c UART_SendStripTypeAck
00002dc6 g     F .text	000000ce .hidden __floatunsisf
00001d92  w      .text	00000000 I2C2_ER_IRQHandler
00001d92  w      .text	00000000 DMA1_Channel2_IRQHandler
00004a58 g     O .text	00000020 __sf_fake_stdout
000025aa g     F .text	0000001a RTC_ITConfig
0000013c g     F .text	00000024 .hidden __riscv_restore_12
00004220 g     F .text	0000000c _read
000027d4 g     F .text	00000020 TIM_BDTRConfig
00001d94  w      .text	00000000 handle_reset
00001d92  w      .text	00000000 CAN1_SCE_IRQHandler
00001d92  w      .text	00000000 FLASH_IRQHandler
00000130 g     F .text	0000000c .hidden __riscv_save_0
000012a4 g     F .text	0000000e STRIP_DETECT_SetPinStatus
00001d92  w      .text	00000000 USBFSWakeUp_IRQHandler
00000e9c g     F .text	00000076 RTC_Config
00001d92  w      .text	00000000 USART1_IRQHandler
00003752 g     F .text	00000092 __smakebuf_r
000023e6 g     F .text	00000014 RCC_LSICmd
00003d5e g     F .text	000002a2 _printf_i
200000c8 g     O .bss	00000004 __malloc_sbrk_start
0000253e g     F .text	0000001e RCC_APB2PeriphResetCmd
00001d92  w      .text	00000000 I2C1_ER_IRQHandler
00001c5a g     F .text	00000006 Get_Temperature
00002302 g     F .text	00000006 NVIC_PriorityGroupConfig
0000200e g     F .text	0000009c DMA_DeInit
000014b4 g     F .text	00000046 UART_SendStatusAck
200000c4 g     O .bss	00000004 __malloc_free_list
00000154 g     F .text	0000000c .hidden __riscv_restore_1
000039ca g     F .text	00000288 _vfprintf_r
0000213c g     F .text	00000018 FLASH_GetBank1Status
0000292a g     F .text	00000012 USART_DMACmd
000014fa g     F .text	00000018 UART_SendParamAck
200001d0 g     O .bss	00000406 ring_buffer
00001d92  w      .text	00000000 USBWakeUp_IRQHandler
000041f0 g     F .text	0000000c _close



Disassembly of section .init:

00000000 <_sinit>:
   0:	5950106f          	j	1d94 <handle_reset>

Disassembly of section .vector:

00000004 <_vector_base>:
	...
   c:	0208                	addi	a0,sp,256
   e:	0000                	unimp
  10:	020a                	slli	tp,tp,0x2
  12:	0000                	unimp
  14:	0000                	unimp
  16:	0000                	unimp
  18:	1d92                	slli	s11,s11,0x24
	...
  22:	0000                	unimp
  24:	1d92                	slli	s11,s11,0x24
  26:	0000                	unimp
  28:	1d92                	slli	s11,s11,0x24
	...
  32:	0000                	unimp
  34:	1d92                	slli	s11,s11,0x24
  36:	0000                	unimp
  38:	0000                	unimp
  3a:	0000                	unimp
  3c:	1d92                	slli	s11,s11,0x24
  3e:	0000                	unimp
  40:	0000                	unimp
  42:	0000                	unimp
  44:	1d92                	slli	s11,s11,0x24
  46:	0000                	unimp
  48:	1d92                	slli	s11,s11,0x24
  4a:	0000                	unimp
  4c:	1d92                	slli	s11,s11,0x24
  4e:	0000                	unimp
  50:	1d92                	slli	s11,s11,0x24
  52:	0000                	unimp
  54:	1d92                	slli	s11,s11,0x24
  56:	0000                	unimp
  58:	1d92                	slli	s11,s11,0x24
  5a:	0000                	unimp
  5c:	1d92                	slli	s11,s11,0x24
  5e:	0000                	unimp
  60:	1d92                	slli	s11,s11,0x24
  62:	0000                	unimp
  64:	1d92                	slli	s11,s11,0x24
  66:	0000                	unimp
  68:	1d92                	slli	s11,s11,0x24
  6a:	0000                	unimp
  6c:	1d92                	slli	s11,s11,0x24
  6e:	0000                	unimp
  70:	1d92                	slli	s11,s11,0x24
  72:	0000                	unimp
  74:	1d92                	slli	s11,s11,0x24
  76:	0000                	unimp
  78:	1d92                	slli	s11,s11,0x24
  7a:	0000                	unimp
  7c:	1d92                	slli	s11,s11,0x24
  7e:	0000                	unimp
  80:	1d92                	slli	s11,s11,0x24
  82:	0000                	unimp
  84:	07f6                	slli	a5,a5,0x1d
  86:	0000                	unimp
  88:	1d92                	slli	s11,s11,0x24
  8a:	0000                	unimp
  8c:	1d92                	slli	s11,s11,0x24
  8e:	0000                	unimp
  90:	1d92                	slli	s11,s11,0x24
  92:	0000                	unimp
  94:	1d92                	slli	s11,s11,0x24
  96:	0000                	unimp
  98:	1d92                	slli	s11,s11,0x24
  9a:	0000                	unimp
  9c:	1d92                	slli	s11,s11,0x24
  9e:	0000                	unimp
  a0:	1d92                	slli	s11,s11,0x24
  a2:	0000                	unimp
  a4:	1d92                	slli	s11,s11,0x24
  a6:	0000                	unimp
  a8:	1d92                	slli	s11,s11,0x24
  aa:	0000                	unimp
  ac:	1d92                	slli	s11,s11,0x24
  ae:	0000                	unimp
  b0:	1d92                	slli	s11,s11,0x24
  b2:	0000                	unimp
  b4:	1d92                	slli	s11,s11,0x24
  b6:	0000                	unimp
  b8:	1d92                	slli	s11,s11,0x24
  ba:	0000                	unimp
  bc:	1d92                	slli	s11,s11,0x24
  be:	0000                	unimp
  c0:	1d92                	slli	s11,s11,0x24
  c2:	0000                	unimp
  c4:	1d92                	slli	s11,s11,0x24
  c6:	0000                	unimp
  c8:	1d92                	slli	s11,s11,0x24
  ca:	0000                	unimp
  cc:	1d92                	slli	s11,s11,0x24
  ce:	0000                	unimp
  d0:	1d92                	slli	s11,s11,0x24
  d2:	0000                	unimp
  d4:	1d92                	slli	s11,s11,0x24
  d6:	0000                	unimp
  d8:	1d92                	slli	s11,s11,0x24
  da:	0000                	unimp
  dc:	0728                	addi	a0,sp,904
  de:	0000                	unimp
  e0:	1d92                	slli	s11,s11,0x24
  e2:	0000                	unimp
  e4:	1d92                	slli	s11,s11,0x24
  e6:	0000                	unimp
  e8:	1d92                	slli	s11,s11,0x24
  ea:	0000                	unimp
  ec:	1d92                	slli	s11,s11,0x24
  ee:	0000                	unimp
  f0:	1d92                	slli	s11,s11,0x24
  f2:	0000                	unimp
  f4:	1d92                	slli	s11,s11,0x24
  f6:	0000                	unimp
  f8:	1d92                	slli	s11,s11,0x24
  fa:	0000                	unimp
  fc:	1d92                	slli	s11,s11,0x24
	...

Disassembly of section .text:

00000100 <__riscv_save_12>:
     100:	7139                	addi	sp,sp,-64
     102:	4301                	li	t1,0
     104:	c66e                	sw	s11,12(sp)
     106:	a019                	j	10c <__riscv_save_10+0x4>

00000108 <__riscv_save_10>:
     108:	7139                	addi	sp,sp,-64
     10a:	5341                	li	t1,-16
     10c:	c86a                	sw	s10,16(sp)
     10e:	ca66                	sw	s9,20(sp)
     110:	cc62                	sw	s8,24(sp)
     112:	ce5e                	sw	s7,28(sp)
     114:	a019                	j	11a <__riscv_save_4+0x4>

00000116 <__riscv_save_4>:
     116:	7139                	addi	sp,sp,-64
     118:	5301                	li	t1,-32
     11a:	d05a                	sw	s6,32(sp)
     11c:	d256                	sw	s5,36(sp)
     11e:	d452                	sw	s4,40(sp)
     120:	d64e                	sw	s3,44(sp)
     122:	d84a                	sw	s2,48(sp)
     124:	da26                	sw	s1,52(sp)
     126:	dc22                	sw	s0,56(sp)
     128:	de06                	sw	ra,60(sp)
     12a:	40610133          	sub	sp,sp,t1
     12e:	8282                	jr	t0

00000130 <__riscv_save_0>:
     130:	1141                	addi	sp,sp,-16
     132:	c04a                	sw	s2,0(sp)
     134:	c226                	sw	s1,4(sp)
     136:	c422                	sw	s0,8(sp)
     138:	c606                	sw	ra,12(sp)
     13a:	8282                	jr	t0

0000013c <__riscv_restore_12>:
     13c:	4db2                	lw	s11,12(sp)
     13e:	0141                	addi	sp,sp,16

00000140 <__riscv_restore_10>:
     140:	4d02                	lw	s10,0(sp)
     142:	4c92                	lw	s9,4(sp)
     144:	4c22                	lw	s8,8(sp)
     146:	4bb2                	lw	s7,12(sp)
     148:	0141                	addi	sp,sp,16

0000014a <__riscv_restore_4>:
     14a:	4b02                	lw	s6,0(sp)
     14c:	4a92                	lw	s5,4(sp)
     14e:	4a22                	lw	s4,8(sp)
     150:	49b2                	lw	s3,12(sp)
     152:	0141                	addi	sp,sp,16

00000154 <__riscv_restore_0>:
     154:	4902                	lw	s2,0(sp)
     156:	4492                	lw	s1,4(sp)
     158:	4422                	lw	s0,8(sp)
     15a:	40b2                	lw	ra,12(sp)
     15c:	0141                	addi	sp,sp,16
     15e:	8082                	ret

00000160 <memset>:
     160:	433d                	li	t1,15
     162:	872a                	mv	a4,a0
     164:	02c37363          	bgeu	t1,a2,18a <memset+0x2a>
     168:	00f77793          	andi	a5,a4,15
     16c:	efbd                	bnez	a5,1ea <memset+0x8a>
     16e:	e5ad                	bnez	a1,1d8 <memset+0x78>
     170:	ff067693          	andi	a3,a2,-16
     174:	8a3d                	andi	a2,a2,15
     176:	96ba                	add	a3,a3,a4
     178:	c30c                	sw	a1,0(a4)
     17a:	c34c                	sw	a1,4(a4)
     17c:	c70c                	sw	a1,8(a4)
     17e:	c74c                	sw	a1,12(a4)
     180:	0741                	addi	a4,a4,16
     182:	fed76be3          	bltu	a4,a3,178 <memset+0x18>
     186:	e211                	bnez	a2,18a <memset+0x2a>
     188:	8082                	ret
     18a:	40c306b3          	sub	a3,t1,a2
     18e:	068a                	slli	a3,a3,0x2
     190:	00000297          	auipc	t0,0x0
     194:	9696                	add	a3,a3,t0
     196:	00a68067          	jr	10(a3)
     19a:	00b70723          	sb	a1,14(a4)
     19e:	00b706a3          	sb	a1,13(a4)
     1a2:	00b70623          	sb	a1,12(a4)
     1a6:	00b705a3          	sb	a1,11(a4)
     1aa:	00b70523          	sb	a1,10(a4)
     1ae:	00b704a3          	sb	a1,9(a4)
     1b2:	00b70423          	sb	a1,8(a4)
     1b6:	00b703a3          	sb	a1,7(a4)
     1ba:	00b70323          	sb	a1,6(a4)
     1be:	00b702a3          	sb	a1,5(a4)
     1c2:	00b70223          	sb	a1,4(a4)
     1c6:	00b701a3          	sb	a1,3(a4)
     1ca:	00b70123          	sb	a1,2(a4)
     1ce:	00b700a3          	sb	a1,1(a4)
     1d2:	00b70023          	sb	a1,0(a4)
     1d6:	8082                	ret
     1d8:	0ff5f593          	andi	a1,a1,255
     1dc:	00859693          	slli	a3,a1,0x8
     1e0:	8dd5                	or	a1,a1,a3
     1e2:	01059693          	slli	a3,a1,0x10
     1e6:	8dd5                	or	a1,a1,a3
     1e8:	b761                	j	170 <memset+0x10>
     1ea:	00279693          	slli	a3,a5,0x2
     1ee:	00000297          	auipc	t0,0x0
     1f2:	9696                	add	a3,a3,t0
     1f4:	8286                	mv	t0,ra
     1f6:	fa8680e7          	jalr	-88(a3)
     1fa:	8096                	mv	ra,t0
     1fc:	17c1                	addi	a5,a5,-16
     1fe:	8f1d                	sub	a4,a4,a5
     200:	963e                	add	a2,a2,a5
     202:	f8c374e3          	bgeu	t1,a2,18a <memset+0x2a>
     206:	b7a5                	j	16e <memset+0xe>

00000208 <NMI_Handler>:
     208:	a001                	j	208 <NMI_Handler>

0000020a <HardFault_Handler>:
     20a:	beef07b7          	lui	a5,0xbeef0
     20e:	e000e737          	lui	a4,0xe000e
     212:	08078793          	addi	a5,a5,128 # beef0080 <_eusrstack+0x9eeeb080>
     216:	c73c                	sw	a5,72(a4)
     218:	a001                	j	218 <HardFault_Handler+0xe>

0000021a <USARTx_CFG>:
     21a:	f17ff2ef          	jal	t0,130 <__riscv_save_0>
     21e:	7179                	addi	sp,sp,-48
     220:	84aa                	mv	s1,a0
     222:	4585                	li	a1,1
     224:	4511                	li	a0,4
     226:	ca02                	sw	zero,20(sp)
     228:	cc02                	sw	zero,24(sp)
     22a:	ce02                	sw	zero,28(sp)
     22c:	d002                	sw	zero,32(sp)
     22e:	d202                	sw	zero,36(sp)
     230:	d402                	sw	zero,40(sp)
     232:	d602                	sw	zero,44(sp)
     234:	c602                	sw	zero,12(sp)
     236:	c802                	sw	zero,16(sp)
     238:	2ca020ef          	jal	ra,2502 <RCC_APB2PeriphClockCmd>
     23c:	4585                	li	a1,1
     23e:	00020537          	lui	a0,0x20
     242:	2de020ef          	jal	ra,2520 <RCC_APB1PeriphClockCmd>
     246:	4791                	li	a5,4
     248:	82fc                	sh	a5,20(sp)
     24a:	40011437          	lui	s0,0x40011
     24e:	478d                	li	a5,3
     250:	cc3e                	sw	a5,24(sp)
     252:	084c                	addi	a1,sp,20
     254:	47e1                	li	a5,24
     256:	80040513          	addi	a0,s0,-2048 # 40010800 <_eusrstack+0x2000b800>
     25a:	ce3e                	sw	a5,28(sp)
     25c:	78d010ef          	jal	ra,21e8 <GPIO_Init>
     260:	47a1                	li	a5,8
     262:	82fc                	sh	a5,20(sp)
     264:	084c                	addi	a1,sp,20
     266:	4791                	li	a5,4
     268:	80040513          	addi	a0,s0,-2048
     26c:	ce3e                	sw	a5,28(sp)
     26e:	40004437          	lui	s0,0x40004
     272:	777010ef          	jal	ra,21e8 <GPIO_Init>
     276:	000c07b7          	lui	a5,0xc0
     27a:	100c                	addi	a1,sp,32
     27c:	40040513          	addi	a0,s0,1024 # 40004400 <_eusrstack+0x1ffff400>
     280:	d43e                	sw	a5,40(sp)
     282:	d026                	sw	s1,32(sp)
     284:	d202                	sw	zero,36(sp)
     286:	02011623          	sh	zero,44(sp)
     28a:	5c4020ef          	jal	ra,284e <USART_Init>
     28e:	4605                	li	a2,1
     290:	42400593          	li	a1,1060
     294:	40040513          	addi	a0,s0,1024
     298:	65c020ef          	jal	ra,28f4 <USART_ITConfig>
     29c:	13600793          	li	a5,310
     2a0:	867c                	sh	a5,12(sp)
     2a2:	4785                	li	a5,1
     2a4:	875c                	sb	a5,14(sp)
     2a6:	0068                	addi	a0,sp,12
     2a8:	4785                	li	a5,1
     2aa:	c83e                	sw	a5,16(sp)
     2ac:	05c020ef          	jal	ra,2308 <NVIC_Init>
     2b0:	4585                	li	a1,1
     2b2:	40040513          	addi	a0,s0,1024
     2b6:	628020ef          	jal	ra,28de <USART_Cmd>
     2ba:	6145                	addi	sp,sp,48
     2bc:	bd61                	j	154 <__riscv_restore_0>

000002be <DMA_INIT>:
     2be:	e73ff2ef          	jal	t0,130 <__riscv_save_0>
     2c2:	7139                	addi	sp,sp,-64
     2c4:	02c00613          	li	a2,44
     2c8:	4581                	li	a1,0
     2ca:	0848                	addi	a0,sp,20
     2cc:	3d51                	jal	160 <memset>
     2ce:	4585                	li	a1,1
     2d0:	4505                	li	a0,1
     2d2:	40020437          	lui	s0,0x40020
     2d6:	c602                	sw	zero,12(sp)
     2d8:	c802                	sw	zero,16(sp)
     2da:	20a020ef          	jal	ra,24e4 <RCC_AHBPeriphClockCmd>
     2de:	06c40513          	addi	a0,s0,108 # 4002006c <_eusrstack+0x2001b06c>
     2e2:	52d010ef          	jal	ra,200e <DMA_DeInit>
     2e6:	400044b7          	lui	s1,0x40004
     2ea:	678d                	lui	a5,0x3
     2ec:	dc3e                	sw	a5,56(sp)
     2ee:	40448793          	addi	a5,s1,1028 # 40004404 <_eusrstack+0x1ffff404>
     2f2:	ca3e                	sw	a5,20(sp)
     2f4:	08000713          	li	a4,128
     2f8:	84518793          	addi	a5,gp,-1979 # 200000cd <USART_DMA_CTRL+0x1>
     2fc:	084c                	addi	a1,sp,20
     2fe:	06c40513          	addi	a0,s0,108
     302:	d43a                	sw	a4,40(sp)
     304:	d03a                	sw	a4,32(sp)
     306:	cc3e                	sw	a5,24(sp)
     308:	d202                	sw	zero,36(sp)
     30a:	d602                	sw	zero,44(sp)
     30c:	d802                	sw	zero,48(sp)
     30e:	da02                	sw	zero,52(sp)
     310:	de02                	sw	zero,60(sp)
     312:	ce02                	sw	zero,28(sp)
     314:	597010ef          	jal	ra,20aa <DMA_Init>
     318:	4605                	li	a2,1
     31a:	4589                	li	a1,2
     31c:	06c40513          	addi	a0,s0,108
     320:	5d7010ef          	jal	ra,20f6 <DMA_ITConfig>
     324:	12000793          	li	a5,288
     328:	867c                	sh	a5,12(sp)
     32a:	4785                	li	a5,1
     32c:	875c                	sb	a5,14(sp)
     32e:	0068                	addi	a0,sp,12
     330:	4785                	li	a5,1
     332:	c83e                	sw	a5,16(sp)
     334:	7d5010ef          	jal	ra,2308 <NVIC_Init>
     338:	06c40513          	addi	a0,s0,108
     33c:	4585                	li	a1,1
     33e:	5a5010ef          	jal	ra,20e2 <DMA_Cmd>
     342:	4605                	li	a2,1
     344:	04000593          	li	a1,64
     348:	40048513          	addi	a0,s1,1024
     34c:	5de020ef          	jal	ra,292a <USART_DMACmd>
     350:	6121                	addi	sp,sp,64
     352:	b509                	j	154 <__riscv_restore_0>

00000354 <ring_buffer_push_huge>:
     354:	dc3ff2ef          	jal	t0,116 <__riscv_save_4>
     358:	94818793          	addi	a5,gp,-1720 # 200001d0 <ring_buffer>
     35c:	4047d703          	lhu	a4,1028(a5) # 3404 <__sflush_r+0xcc>
     360:	40000793          	li	a5,1024
     364:	8aaa                	mv	s5,a0
     366:	8f99                	sub	a5,a5,a4
     368:	843e                	mv	s0,a5
     36a:	07c2                	slli	a5,a5,0x10
     36c:	83c1                	srli	a5,a5,0x10
     36e:	94818913          	addi	s2,gp,-1720 # 200001d0 <ring_buffer>
     372:	00f5f363          	bgeu	a1,a5,378 <ring_buffer_push_huge+0x24>
     376:	842e                	mv	s0,a1
     378:	40095483          	lhu	s1,1024(s2)
     37c:	40000993          	li	s3,1024
     380:	0442                	slli	s0,s0,0x10
     382:	04c2                	slli	s1,s1,0x10
     384:	80c1                	srli	s1,s1,0x10
     386:	409989b3          	sub	s3,s3,s1
     38a:	09c2                	slli	s3,s3,0x10
     38c:	8041                	srli	s0,s0,0x10
     38e:	0109d993          	srli	s3,s3,0x10
     392:	0289e863          	bltu	s3,s0,3c2 <ring_buffer_push_huge+0x6e>
     396:	40095503          	lhu	a0,1024(s2)
     39a:	8622                	mv	a2,s0
     39c:	85d6                	mv	a1,s5
     39e:	954a                	add	a0,a0,s2
     3a0:	40f020ef          	jal	ra,2fae <memcpy>
     3a4:	40095783          	lhu	a5,1024(s2)
     3a8:	97a2                	add	a5,a5,s0
     3aa:	07c2                	slli	a5,a5,0x10
     3ac:	83c1                	srli	a5,a5,0x10
     3ae:	40f91023          	sh	a5,1024(s2)
     3b2:	40495783          	lhu	a5,1028(s2)
     3b6:	943e                	add	s0,s0,a5
     3b8:	0442                	slli	s0,s0,0x10
     3ba:	8041                	srli	s0,s0,0x10
     3bc:	40891223          	sh	s0,1028(s2)
     3c0:	b369                	j	14a <__riscv_restore_4>
     3c2:	40095503          	lhu	a0,1024(s2)
     3c6:	c0048493          	addi	s1,s1,-1024
     3ca:	94a2                	add	s1,s1,s0
     3cc:	864e                	mv	a2,s3
     3ce:	85d6                	mv	a1,s5
     3d0:	04c2                	slli	s1,s1,0x10
     3d2:	954a                	add	a0,a0,s2
     3d4:	3db020ef          	jal	ra,2fae <memcpy>
     3d8:	80c1                	srli	s1,s1,0x10
     3da:	8626                	mv	a2,s1
     3dc:	013a85b3          	add	a1,s5,s3
     3e0:	94818513          	addi	a0,gp,-1720 # 200001d0 <ring_buffer>
     3e4:	3cb020ef          	jal	ra,2fae <memcpy>
     3e8:	40991023          	sh	s1,1024(s2)
     3ec:	b7d9                	j	3b2 <ring_buffer_push_huge+0x5e>

000003ee <OPA2_Init>:
     3ee:	d43ff2ef          	jal	t0,130 <__riscv_save_0>
     3f2:	1101                	addi	sp,sp,-32
     3f4:	4585                	li	a1,1
     3f6:	4511                	li	a0,4
     3f8:	c202                	sw	zero,4(sp)
     3fa:	c402                	sw	zero,8(sp)
     3fc:	c602                	sw	zero,12(sp)
     3fe:	c802                	sw	zero,16(sp)
     400:	ca02                	sw	zero,20(sp)
     402:	cc02                	sw	zero,24(sp)
     404:	ce02                	sw	zero,28(sp)
     406:	0fc020ef          	jal	ra,2502 <RCC_APB2PeriphClockCmd>
     40a:	4585                	li	a1,1
     40c:	4505                	li	a0,1
     40e:	0f4020ef          	jal	ra,2502 <RCC_APB2PeriphClockCmd>
     412:	40011537          	lui	a0,0x40011
     416:	004c                	addi	a1,sp,4
     418:	0b000793          	li	a5,176
     41c:	80050513          	addi	a0,a0,-2048 # 40010800 <_eusrstack+0x2000b800>
     420:	827c                	sh	a5,4(sp)
     422:	c602                	sw	zero,12(sp)
     424:	5c5010ef          	jal	ra,21e8 <GPIO_Init>
     428:	4785                	li	a5,1
     42a:	0808                	addi	a0,sp,16
     42c:	c83e                	sw	a5,16(sp)
     42e:	ca3e                	sw	a5,20(sp)
     430:	cc3e                	sw	a5,24(sp)
     432:	ce3e                	sw	a5,28(sp)
     434:	729010ef          	jal	ra,235c <OPA_Init>
     438:	4585                	li	a1,1
     43a:	4505                	li	a0,1
     43c:	757010ef          	jal	ra,2392 <OPA_Cmd>
     440:	00004537          	lui	a0,0x4
     444:	23c50513          	addi	a0,a0,572 # 423c <_read+0x1c>
     448:	52d020ef          	jal	ra,3174 <puts>
     44c:	6105                	addi	sp,sp,32
     44e:	b319                	j	154 <__riscv_restore_0>

00000450 <TIM1_PWM_Init>:
     450:	ce1ff2ef          	jal	t0,130 <__riscv_save_0>
     454:	6505                	lui	a0,0x1
     456:	7139                	addi	sp,sp,-64
     458:	4585                	li	a1,1
     45a:	80850513          	addi	a0,a0,-2040 # 808 <__stack_size+0x8>
     45e:	ca02                	sw	zero,20(sp)
     460:	cc02                	sw	zero,24(sp)
     462:	ce02                	sw	zero,28(sp)
     464:	c402                	sw	zero,8(sp)
     466:	c602                	sw	zero,12(sp)
     468:	00011823          	sh	zero,16(sp)
     46c:	d802                	sw	zero,48(sp)
     46e:	da02                	sw	zero,52(sp)
     470:	dc02                	sw	zero,56(sp)
     472:	de02                	sw	zero,60(sp)
     474:	d002                	sw	zero,32(sp)
     476:	d202                	sw	zero,36(sp)
     478:	d402                	sw	zero,40(sp)
     47a:	02011623          	sh	zero,44(sp)
     47e:	084020ef          	jal	ra,2502 <RCC_APB2PeriphClockCmd>
     482:	77e1                	lui	a5,0xffff8
     484:	82fc                	sh	a5,20(sp)
     486:	40011537          	lui	a0,0x40011
     48a:	47e1                	li	a5,24
     48c:	ce3e                	sw	a5,28(sp)
     48e:	084c                	addi	a1,sp,20
     490:	478d                	li	a5,3
     492:	c0050513          	addi	a0,a0,-1024 # 40010c00 <_eusrstack+0x2000bc00>
     496:	40013437          	lui	s0,0x40013
     49a:	cc3e                	sw	a5,24(sp)
     49c:	54d010ef          	jal	ra,21e8 <GPIO_Init>
     4a0:	31f00793          	li	a5,799
     4a4:	002c                	addi	a1,sp,8
     4a6:	c0040513          	addi	a0,s0,-1024 # 40012c00 <_eusrstack+0x2000dc00>
     4aa:	c63e                	sw	a5,12(sp)
     4ac:	c402                	sw	zero,8(sp)
     4ae:	00010823          	sb	zero,16(sp)
     4b2:	224020ef          	jal	ra,26d6 <TIM_TimeBaseInit>
     4b6:	67c1                	lui	a5,0x10
     4b8:	07078793          	addi	a5,a5,112 # 10070 <_data_lma+0xb5bc>
     4bc:	d83e                	sw	a5,48(sp)
     4be:	031f07b7          	lui	a5,0x31f0
     4c2:	0791                	addi	a5,a5,4
     4c4:	da3e                	sw	a5,52(sp)
     4c6:	180c                	addi	a1,sp,48
     4c8:	10000793          	li	a5,256
     4cc:	c0040513          	addi	a0,s0,-1024
     4d0:	de3e                	sw	a5,60(sp)
     4d2:	dc02                	sw	zero,56(sp)
     4d4:	26c020ef          	jal	ra,2740 <TIM_OC3Init>
     4d8:	040017b7          	lui	a5,0x4001
     4dc:	80078793          	addi	a5,a5,-2048 # 4000800 <_data_lma+0x3ffbd4c>
     4e0:	d03e                	sw	a5,32(sp)
     4e2:	100c                	addi	a1,sp,32
     4e4:	6791                	lui	a5,0x4
     4e6:	c0040513          	addi	a0,s0,-1024
     4ea:	02f11623          	sh	a5,44(sp)
     4ee:	d202                	sw	zero,36(sp)
     4f0:	d402                	sw	zero,40(sp)
     4f2:	2e2020ef          	jal	ra,27d4 <TIM_BDTRConfig>
     4f6:	c0040513          	addi	a0,s0,-1024
     4fa:	45a1                	li	a1,8
     4fc:	340020ef          	jal	ra,283c <TIM_OC3PreloadConfig>
     500:	c0040513          	addi	a0,s0,-1024
     504:	4585                	li	a1,1
     506:	31c020ef          	jal	ra,2822 <TIM_ARRPreloadConfig>
     50a:	c0040513          	addi	a0,s0,-1024
     50e:	4585                	li	a1,1
     510:	2e4020ef          	jal	ra,27f4 <TIM_Cmd>
     514:	4585                	li	a1,1
     516:	c0040513          	addi	a0,s0,-1024
     51a:	2f2020ef          	jal	ra,280c <TIM_CtrlPWMOutputs>
     51e:	00004537          	lui	a0,0x4
     522:	31850513          	addi	a0,a0,792 # 4318 <_read+0xf8>
     526:	33b020ef          	jal	ra,3060 <iprintf>
     52a:	6121                	addi	sp,sp,64
     52c:	b125                	j	154 <__riscv_restore_0>

0000052e <State_Process>:
     52e:	c03ff2ef          	jal	t0,130 <__riscv_save_0>
     532:	1141                	addi	sp,sp,-16
     534:	631000ef          	jal	ra,1364 <System_GetState>
     538:	479d                	li	a5,7
     53a:	0ea7e063          	bltu	a5,a0,61a <State_Process+0xec>
     53e:	4785                	li	a5,1
     540:	00a79533          	sll	a0,a5,a0
     544:	0ef57793          	andi	a5,a0,239
     548:	efcd                	bnez	a5,602 <State_Process+0xd4>
     54a:	8941                	andi	a0,a0,16
     54c:	0c050763          	beqz	a0,61a <State_Process+0xec>
     550:	09e020ef          	jal	ra,25ee <RTC_GetCounter>
     554:	81818793          	addi	a5,gp,-2024 # 200000a0 <_edata>
     558:	4398                	lw	a4,0(a5)
     55a:	46a5                	li	a3,9
     55c:	842a                	mv	s0,a0
     55e:	40e50733          	sub	a4,a0,a4
     562:	0ae6f063          	bgeu	a3,a4,602 <State_Process+0xd4>
     566:	400124b7          	lui	s1,0x40012
     56a:	c388                	sw	a0,0(a5)
     56c:	469d                	li	a3,7
     56e:	4605                	li	a2,1
     570:	4591                	li	a1,4
     572:	40048513          	addi	a0,s1,1024 # 40012400 <_eusrstack+0x2000d400>
     576:	187010ef          	jal	ra,1efc <ADC_RegularChannelConfig>
     57a:	4585                	li	a1,1
     57c:	40048513          	addi	a0,s1,1024
     580:	165010ef          	jal	ra,1ee4 <ADC_SoftwareStartConvCmd>
     584:	40048913          	addi	s2,s1,1024
     588:	4589                	li	a1,2
     58a:	854a                	mv	a0,s2
     58c:	231010ef          	jal	ra,1fbc <ADC_GetFlagStatus>
     590:	dd65                	beqz	a0,588 <State_Process+0x5a>
     592:	40048513          	addi	a0,s1,1024
     596:	21f010ef          	jal	ra,1fb4 <ADC_GetConversionValue>
     59a:	84aa                	mv	s1,a0
     59c:	4ff000ef          	jal	ra,129a <STRIP_DETECT_GetStripType>
     5a0:	00a10693          	addi	a3,sp,10
     5a4:	00e10613          	addi	a2,sp,14
     5a8:	006c                	addi	a1,sp,12
     5aa:	892a                	mv	s2,a0
     5ac:	2d39                	jal	bca <PARAM_GetStripParameters>
     5ae:	cd21                	beqz	a0,606 <State_Process+0xd8>
     5b0:	4791                	li	a5,4
     5b2:	0527ea63          	bltu	a5,s2,606 <State_Process+0xd8>
     5b6:	853c                	lhu	a5,10(sp)
     5b8:	0297f363          	bgeu	a5,s1,5de <State_Process+0xb0>
     5bc:	4515                	li	a0,5
     5be:	583000ef          	jal	ra,1340 <System_SetState>
     5c2:	8530                	lhu	a2,10(sp)
     5c4:	00004537          	lui	a0,0x4
     5c8:	85a6                	mv	a1,s1
     5ca:	25050513          	addi	a0,a0,592 # 4250 <_read+0x30>
     5ce:	293020ef          	jal	ra,3060 <iprintf>
     5d2:	00004537          	lui	a0,0x4
     5d6:	28050513          	addi	a0,a0,640 # 4280 <_read+0x60>
     5da:	39b020ef          	jal	ra,3174 <puts>
     5de:	81c18793          	addi	a5,gp,-2020 # 200000a4 <lastPrintTime.5199>
     5e2:	4398                	lw	a4,0(a5)
     5e4:	3e700693          	li	a3,999
     5e8:	40e40733          	sub	a4,s0,a4
     5ec:	00e6fb63          	bgeu	a3,a4,602 <State_Process+0xd4>
     5f0:	8530                	lhu	a2,10(sp)
     5f2:	00004537          	lui	a0,0x4
     5f6:	85a6                	mv	a1,s1
     5f8:	2ac50513          	addi	a0,a0,684 # 42ac <_read+0x8c>
     5fc:	c380                	sw	s0,0(a5)
     5fe:	263020ef          	jal	ra,3060 <iprintf>
     602:	0141                	addi	sp,sp,16
     604:	be81                	j	154 <__riscv_restore_0>
     606:	00004537          	lui	a0,0x4
     60a:	2e050513          	addi	a0,a0,736 # 42e0 <_read+0xc0>
     60e:	367020ef          	jal	ra,3174 <puts>
     612:	451d                	li	a0,7
     614:	52d000ef          	jal	ra,1340 <System_SetState>
     618:	b7ed                	j	602 <State_Process+0xd4>
     61a:	4501                	li	a0,0
     61c:	bfe5                	j	614 <State_Process+0xe6>

0000061e <main>:
     61e:	b13ff2ef          	jal	t0,130 <__riscv_save_0>
     622:	4505                	li	a0,1
     624:	4df010ef          	jal	ra,2302 <NVIC_PriorityGroupConfig>
     628:	6471                	lui	s0,0x1c
     62a:	368020ef          	jal	ra,2992 <Delay_Init>
     62e:	20040513          	addi	a0,s0,512 # 1c200 <_data_lma+0x1774c>
     632:	3c0020ef          	jal	ra,29f2 <USART_Printf_Init>
     636:	20040513          	addi	a0,s0,512
     63a:	36c5                	jal	21a <USARTx_CFG>
     63c:	3149                	jal	2be <DMA_INIT>
     63e:	200007b7          	lui	a5,0x20000
     642:	0887a583          	lw	a1,136(a5) # 20000088 <SystemCoreClock>
     646:	00004537          	lui	a0,0x4
     64a:	34450513          	addi	a0,a0,836 # 4344 <_read+0x124>
     64e:	213020ef          	jal	ra,3060 <iprintf>
     652:	00004537          	lui	a0,0x4
     656:	35450513          	addi	a0,a0,852 # 4354 <_read+0x134>
     65a:	31b020ef          	jal	ra,3174 <puts>
     65e:	3b41                	jal	3ee <OPA2_Init>
     660:	3bc5                	jal	450 <TIM1_PWM_Init>
     662:	21b9                	jal	ab0 <PARAM_Init>
     664:	00004537          	lui	a0,0x4
     668:	36850513          	addi	a0,a0,872 # 4368 <_read+0x148>
     66c:	309020ef          	jal	ra,3174 <puts>
     670:	4fb000ef          	jal	ra,136a <UART_Protocol_Init>
     674:	00004537          	lui	a0,0x4
     678:	38850513          	addi	a0,a0,904 # 4388 <_read+0x168>
     67c:	2f9020ef          	jal	ra,3174 <puts>
     680:	18f000ef          	jal	ra,100e <STRIP_DETECT_Init>
     684:	019000ef          	jal	ra,e9c <RTC_Config>
     688:	00004537          	lui	a0,0x4
     68c:	3a450513          	addi	a0,a0,932 # 43a4 <_read+0x184>
     690:	2e5020ef          	jal	ra,3174 <puts>
     694:	450d                	li	a0,3
     696:	22fd                	jal	884 <PARAM_GetByte>
     698:	85aa                	mv	a1,a0
     69a:	00004537          	lui	a0,0x4
     69e:	3b450513          	addi	a0,a0,948 # 43b4 <_read+0x194>
     6a2:	1bf020ef          	jal	ra,3060 <iprintf>
     6a6:	4511                	li	a0,4
     6a8:	2af1                	jal	884 <PARAM_GetByte>
     6aa:	842a                	mv	s0,a0
     6ac:	4511                	li	a0,4
     6ae:	2ad9                	jal	884 <PARAM_GetByte>
     6b0:	4629                	li	a2,10
     6b2:	02c455b3          	divu	a1,s0,a2
     6b6:	02c57633          	remu	a2,a0,a2
     6ba:	00004537          	lui	a0,0x4
     6be:	0ff5f593          	andi	a1,a1,255
     6c2:	3c450513          	addi	a0,a0,964 # 43c4 <_read+0x1a4>
     6c6:	19b020ef          	jal	ra,3060 <iprintf>
     6ca:	451d                	li	a0,7
     6cc:	22c5                	jal	8ac <PARAM_GetWord>
     6ce:	85aa                	mv	a1,a0
     6d0:	00004537          	lui	a0,0x4
     6d4:	3d850513          	addi	a0,a0,984 # 43d8 <_read+0x1b8>
     6d8:	189020ef          	jal	ra,3060 <iprintf>
     6dc:	4515                	li	a0,5
     6de:	22f9                	jal	8ac <PARAM_GetWord>
     6e0:	85aa                	mv	a1,a0
     6e2:	00004537          	lui	a0,0x4
     6e6:	3f850513          	addi	a0,a0,1016 # 43f8 <_read+0x1d8>
     6ea:	177020ef          	jal	ra,3060 <iprintf>
     6ee:	454d                	li	a0,19
     6f0:	2a51                	jal	884 <PARAM_GetByte>
     6f2:	26f5                	jal	ade <StripType_GetName>
     6f4:	85aa                	mv	a1,a0
     6f6:	00004537          	lui	a0,0x4
     6fa:	40c50513          	addi	a0,a0,1036 # 440c <_read+0x1ec>
     6fe:	163020ef          	jal	ra,3060 <iprintf>
     702:	4545                	li	a0,17
     704:	2241                	jal	884 <PARAM_GetByte>
     706:	2ee5                	jal	afe <Unit_GetSymbol>
     708:	85aa                	mv	a1,a0
     70a:	00004537          	lui	a0,0x4
     70e:	42050513          	addi	a0,a0,1056 # 4420 <_read+0x200>
     712:	14f020ef          	jal	ra,3060 <iprintf>
     716:	4b6010ef          	jal	ra,1bcc <UART_Protocol_Process>
     71a:	1d1000ef          	jal	ra,10ea <STRIP_DETECT_Process>
     71e:	3d01                	jal	52e <State_Process>
     720:	4529                	li	a0,10
     722:	29a020ef          	jal	ra,29bc <Delay_Ms>
     726:	bfc5                	j	716 <main+0xf8>

00000728 <USART2_IRQHandler>:
     728:	1101                	addi	sp,sp,-32
     72a:	c652                	sw	s4,12(sp)
     72c:	40004a37          	lui	s4,0x40004
     730:	42400593          	li	a1,1060
     734:	400a0513          	addi	a0,s4,1024 # 40004400 <_eusrstack+0x1ffff400>
     738:	ce22                	sw	s0,28(sp)
     73a:	cc26                	sw	s1,24(sp)
     73c:	ca4a                	sw	s2,20(sp)
     73e:	c84e                	sw	s3,16(sp)
     740:	216020ef          	jal	ra,2956 <USART_GetITStatus>
     744:	e915                	bnez	a0,778 <USART2_IRQHandler+0x50>
     746:	40004437          	lui	s0,0x40004
     74a:	52500593          	li	a1,1317
     74e:	40040513          	addi	a0,s0,1024 # 40004400 <_eusrstack+0x1ffff400>
     752:	204020ef          	jal	ra,2956 <USART_GetITStatus>
     756:	c909                	beqz	a0,768 <USART2_IRQHandler+0x40>
     758:	40040513          	addi	a0,s0,1024
     75c:	1e8020ef          	jal	ra,2944 <USART_ReceiveData>
     760:	0ff57513          	andi	a0,a0,255
     764:	262010ef          	jal	ra,19c6 <UART2_Receive_Byte_ISR>
     768:	4472                	lw	s0,28(sp)
     76a:	44e2                	lw	s1,24(sp)
     76c:	4952                	lw	s2,20(sp)
     76e:	49c2                	lw	s3,16(sp)
     770:	4a32                	lw	s4,12(sp)
     772:	6105                	addi	sp,sp,32
     774:	30200073          	mret
     778:	84418413          	addi	s0,gp,-1980 # 200000cc <USART_DMA_CTRL>
     77c:	40020937          	lui	s2,0x40020
     780:	07092783          	lw	a5,112(s2) # 40020070 <_eusrstack+0x2001b070>
     784:	2004                	lbu	s1,0(s0)
     786:	06c90913          	addi	s2,s2,108
     78a:	08000993          	li	s3,128
     78e:	0ff4f493          	andi	s1,s1,255
     792:	854a                	mv	a0,s2
     794:	40f989b3          	sub	s3,s3,a5
     798:	4581                	li	a1,0
     79a:	0014b793          	seqz	a5,s1
     79e:	a01c                	sb	a5,0(s0)
     7a0:	143010ef          	jal	ra,20e2 <DMA_Cmd>
     7a4:	854a                	mv	a0,s2
     7a6:	08000593          	li	a1,128
     7aa:	15f010ef          	jal	ra,2108 <DMA_SetCurrDataCounter>
     7ae:	201c                	lbu	a5,0(s0)
     7b0:	4585                	li	a1,1
     7b2:	854a                	mv	a0,s2
     7b4:	079e                	slli	a5,a5,0x7
     7b6:	0785                	addi	a5,a5,1
     7b8:	97a2                	add	a5,a5,s0
     7ba:	00f92623          	sw	a5,12(s2)
     7be:	125010ef          	jal	ra,20e2 <DMA_Cmd>
     7c2:	400a0513          	addi	a0,s4,1024
     7c6:	17e020ef          	jal	ra,2944 <USART_ReceiveData>
     7ca:	049e                	slli	s1,s1,0x7
     7cc:	09c2                	slli	s3,s3,0x10
     7ce:	0109d993          	srli	s3,s3,0x10
     7d2:	00148513          	addi	a0,s1,1
     7d6:	9522                	add	a0,a0,s0
     7d8:	85ce                	mv	a1,s3
     7da:	3ead                	jal	354 <ring_buffer_push_huge>
     7dc:	4901                	li	s2,0
     7de:	9426                	add	s0,s0,s1
     7e0:	f73973e3          	bgeu	s2,s3,746 <USART2_IRQHandler+0x1e>
     7e4:	012407b3          	add	a5,s0,s2
     7e8:	3388                	lbu	a0,1(a5)
     7ea:	0905                	addi	s2,s2,1
     7ec:	0ff97913          	andi	s2,s2,255
     7f0:	1d6010ef          	jal	ra,19c6 <UART2_Receive_Byte_ISR>
     7f4:	b7f5                	j	7e0 <USART2_IRQHandler+0xb8>

000007f6 <DMA1_Channel6_IRQHandler>:
     7f6:	1141                	addi	sp,sp,-16
     7f8:	c04e                	sw	s3,0(sp)
     7fa:	c426                	sw	s1,8(sp)
     7fc:	c24a                	sw	s2,4(sp)
     7fe:	c622                	sw	s0,12(sp)
     800:	84418913          	addi	s2,gp,-1980 # 200000cc <USART_DMA_CTRL>
     804:	00094403          	lbu	s0,0(s2)
     808:	400204b7          	lui	s1,0x40020
     80c:	06c48513          	addi	a0,s1,108 # 4002006c <_eusrstack+0x2001b06c>
     810:	0ff47413          	andi	s0,s0,255
     814:	00143793          	seqz	a5,s0
     818:	4581                	li	a1,0
     81a:	00f90023          	sb	a5,0(s2)
     81e:	0c5010ef          	jal	ra,20e2 <DMA_Cmd>
     822:	06c48513          	addi	a0,s1,108
     826:	08000593          	li	a1,128
     82a:	0df010ef          	jal	ra,2108 <DMA_SetCurrDataCounter>
     82e:	00094783          	lbu	a5,0(s2)
     832:	06c48513          	addi	a0,s1,108
     836:	4585                	li	a1,1
     838:	079e                	slli	a5,a5,0x7
     83a:	0785                	addi	a5,a5,1
     83c:	97ca                	add	a5,a5,s2
     83e:	c55c                	sw	a5,12(a0)
     840:	0a3010ef          	jal	ra,20e2 <DMA_Cmd>
     844:	041e                	slli	s0,s0,0x7
     846:	00140513          	addi	a0,s0,1
     84a:	954a                	add	a0,a0,s2
     84c:	08000593          	li	a1,128
     850:	3611                	jal	354 <ring_buffer_push_huge>
     852:	4485                	li	s1,1
     854:	84418993          	addi	s3,gp,-1980 # 200000cc <USART_DMA_CTRL>
     858:	08100913          	li	s2,129
     85c:	009407b3          	add	a5,s0,s1
     860:	97ce                	add	a5,a5,s3
     862:	2388                	lbu	a0,0(a5)
     864:	0485                	addi	s1,s1,1
     866:	160010ef          	jal	ra,19c6 <UART2_Receive_Byte_ISR>
     86a:	ff2499e3          	bne	s1,s2,85c <__stack_size+0x5c>
     86e:	00200537          	lui	a0,0x200
     872:	09b010ef          	jal	ra,210c <DMA_ClearITPendingBit>
     876:	4432                	lw	s0,12(sp)
     878:	44a2                	lw	s1,8(sp)
     87a:	4912                	lw	s2,4(sp)
     87c:	4982                	lw	s3,0(sp)
     87e:	0141                	addi	sp,sp,16
     880:	30200073          	mret

00000884 <PARAM_GetByte>:
     884:	2a500793          	li	a5,677
     888:	00a7e763          	bltu	a5,a0,896 <PARAM_GetByte+0x12>
     88c:	d5018793          	addi	a5,gp,-688 # 200005d8 <param_table>
     890:	97aa                	add	a5,a5,a0
     892:	2388                	lbu	a0,0(a5)
     894:	8082                	ret
     896:	4501                	li	a0,0
     898:	8082                	ret

0000089a <PARAM_SetByte>:
     89a:	2a500793          	li	a5,677
     89e:	00a7e663          	bltu	a5,a0,8aa <PARAM_SetByte+0x10>
     8a2:	d5018793          	addi	a5,gp,-688 # 200005d8 <param_table>
     8a6:	97aa                	add	a5,a5,a0
     8a8:	a38c                	sb	a1,0(a5)
     8aa:	8082                	ret

000008ac <PARAM_GetWord>:
     8ac:	2a400793          	li	a5,676
     8b0:	00a7ea63          	bltu	a5,a0,8c4 <PARAM_GetWord+0x18>
     8b4:	d5018793          	addi	a5,gp,-688 # 200005d8 <param_table>
     8b8:	97aa                	add	a5,a5,a0
     8ba:	3388                	lbu	a0,1(a5)
     8bc:	239c                	lbu	a5,0(a5)
     8be:	0522                	slli	a0,a0,0x8
     8c0:	8d5d                	or	a0,a0,a5
     8c2:	8082                	ret
     8c4:	4501                	li	a0,0
     8c6:	8082                	ret

000008c8 <PARAM_SetWord>:
     8c8:	2a400793          	li	a5,676
     8cc:	00a7e863          	bltu	a5,a0,8dc <PARAM_SetWord+0x14>
     8d0:	d5018793          	addi	a5,gp,-688 # 200005d8 <param_table>
     8d4:	953e                	add	a0,a0,a5
     8d6:	a10c                	sb	a1,0(a0)
     8d8:	81a1                	srli	a1,a1,0x8
     8da:	b10c                	sb	a1,1(a0)
     8dc:	8082                	ret

000008de <PARAM_VerifyChecksum>:
     8de:	4681                	li	a3,0
     8e0:	4781                	li	a5,0
     8e2:	d5018713          	addi	a4,gp,-688 # 200005d8 <param_table>
     8e6:	2a400613          	li	a2,676
     8ea:	00d705b3          	add	a1,a4,a3
     8ee:	2188                	lbu	a0,0(a1)
     8f0:	0685                	addi	a3,a3,1
     8f2:	953e                	add	a0,a0,a5
     8f4:	01051793          	slli	a5,a0,0x10
     8f8:	83c1                	srli	a5,a5,0x10
     8fa:	fec698e3          	bne	a3,a2,8ea <PARAM_VerifyChecksum+0xc>
     8fe:	2a574503          	lbu	a0,677(a4) # e000e2a5 <_eusrstack+0xc00092a5>
     902:	2a474703          	lbu	a4,676(a4)
     906:	0522                	slli	a0,a0,0x8
     908:	8d59                	or	a0,a0,a4
     90a:	8d1d                	sub	a0,a0,a5
     90c:	00153513          	seqz	a0,a0
     910:	8082                	ret

00000912 <PARAM_UpdateChecksum>:
     912:	4681                	li	a3,0
     914:	4701                	li	a4,0
     916:	d5018793          	addi	a5,gp,-688 # 200005d8 <param_table>
     91a:	2a400613          	li	a2,676
     91e:	00d785b3          	add	a1,a5,a3
     922:	218c                	lbu	a1,0(a1)
     924:	0685                	addi	a3,a3,1
     926:	972e                	add	a4,a4,a1
     928:	0742                	slli	a4,a4,0x10
     92a:	8341                	srli	a4,a4,0x10
     92c:	fec699e3          	bne	a3,a2,91e <PARAM_UpdateChecksum+0xc>
     930:	2ae79223          	sh	a4,676(a5)
     934:	4681                	li	a3,0
     936:	4701                	li	a4,0
     938:	2a300613          	li	a2,675
     93c:	00e785b3          	add	a1,a5,a4
     940:	218c                	lbu	a1,0(a1)
     942:	0705                	addi	a4,a4,1
     944:	8ead                	xor	a3,a3,a1
     946:	fec71be3          	bne	a4,a2,93c <PARAM_UpdateChecksum+0x2a>
     94a:	2ad781a3          	sb	a3,675(a5)
     94e:	8082                	ret

00000950 <PARAM_SaveToFlash>:
     950:	fe0ff2ef          	jal	t0,130 <__riscv_save_0>
     954:	7c0010ef          	jal	ra,2114 <FLASH_Unlock>
     958:	08010537          	lui	a0,0x8010
     95c:	080104b7          	lui	s1,0x8010
     960:	015010ef          	jal	ra,2174 <FLASH_ErasePage>
     964:	d5018413          	addi	s0,gp,-688 # 200005d8 <param_table>
     968:	2a648913          	addi	s2,s1,678 # 80102a6 <_data_lma+0x800b7f2>
     96c:	301c                	lbu	a5,1(s0)
     96e:	200c                	lbu	a1,0(s0)
     970:	8526                	mv	a0,s1
     972:	07a2                	slli	a5,a5,0x8
     974:	8ddd                	or	a1,a1,a5
     976:	0489                	addi	s1,s1,2
     978:	039010ef          	jal	ra,21b0 <FLASH_ProgramHalfWord>
     97c:	0409                	addi	s0,s0,2
     97e:	ff2497e3          	bne	s1,s2,96c <PARAM_SaveToFlash+0x1c>
     982:	7ac010ef          	jal	ra,212e <FLASH_Lock>
     986:	fceff06f          	j	154 <__riscv_restore_0>

0000098a <PARAM_LoadFromFlash>:
     98a:	080106b7          	lui	a3,0x8010
     98e:	d5018793          	addi	a5,gp,-688 # 200005d8 <param_table>
     992:	2a668613          	addi	a2,a3,678 # 80102a6 <_data_lma+0x800b7f2>
     996:	229a                	lhu	a4,0(a3)
     998:	0689                	addi	a3,a3,2
     99a:	0789                	addi	a5,a5,2
     99c:	0742                	slli	a4,a4,0x10
     99e:	8341                	srli	a4,a4,0x10
     9a0:	fee78f23          	sb	a4,-2(a5)
     9a4:	8321                	srli	a4,a4,0x8
     9a6:	fee78fa3          	sb	a4,-1(a5)
     9aa:	fec696e3          	bne	a3,a2,996 <PARAM_LoadFromFlash+0xc>
     9ae:	8082                	ret

000009b0 <PARAM_SetDefault>:
     9b0:	f80ff2ef          	jal	t0,130 <__riscv_save_0>
     9b4:	d5018413          	addi	s0,gp,-688 # 200005d8 <param_table>
     9b8:	2a600613          	li	a2,678
     9bc:	4581                	li	a1,0
     9be:	d5018513          	addi	a0,gp,-688 # 200005d8 <param_table>
     9c2:	f9eff0ef          	jal	ra,160 <memset>
     9c6:	46e5                	li	a3,25
     9c8:	b414                	sb	a3,9(s0)
     9ca:	6685                	lui	a3,0x1
     9cc:	4705                	li	a4,1
     9ce:	50568693          	addi	a3,a3,1285 # 1505 <UART_SendParamAck+0xb>
     9d2:	b038                	sb	a4,3(s0)
     9d4:	b078                	sb	a4,7(s0)
     9d6:	a436                	sh	a3,10(s0)
     9d8:	a838                	sb	a4,18(s0)
     9da:	46b1                	li	a3,12
     9dc:	07800713          	li	a4,120
     9e0:	a454                	sb	a3,12(s0)
     9e2:	a858                	sb	a4,20(s0)
     9e4:	12800693          	li	a3,296
     9e8:	7769                	lui	a4,0xffffa
     9ea:	a816                	sh	a3,16(s0)
     9ec:	4a470713          	addi	a4,a4,1188 # ffffa4a4 <_eusrstack+0xdfff54a4>
     9f0:	33300693          	li	a3,819
     9f4:	a87a                	sh	a4,22(s0)
     9f6:	b456                	sh	a3,44(s0)
     9f8:	5769                	li	a4,-6
     9fa:	76fd                	lui	a3,0xfffff
     9fc:	20e406a3          	sb	a4,525(s0)
     a00:	06f9                	addi	a3,a3,30
     a02:	4721                	li	a4,8
     a04:	bc38                	sb	a4,27(s0)
     a06:	bc76                	sh	a3,62(s0)
     a08:	6711                	lui	a4,0x4
     a0a:	03e806b7          	lui	a3,0x3e80
     a0e:	f8070713          	addi	a4,a4,-128 # 3f80 <_printf_i+0x222>
     a12:	70868693          	addi	a3,a3,1800 # 3e80708 <_data_lma+0x3e7bc54>
     a16:	ac7a                	sh	a4,30(s0)
     a18:	c034                	sw	a3,64(s0)
     a1a:	03520737          	lui	a4,0x3520
     a1e:	021c06b7          	lui	a3,0x21c0
     a22:	32070713          	addi	a4,a4,800 # 3520320 <_data_lma+0x351b86c>
     a26:	35268693          	addi	a3,a3,850 # 21c0352 <_data_lma+0x21bb89e>
     a2a:	d418                	sw	a4,40(s0)
     a2c:	0cd42c23          	sw	a3,216(s0)
     a30:	16e42223          	sw	a4,356(s0)
     a34:	070886b7          	lui	a3,0x7088
     a38:	7765                	lui	a4,0xffff9
     a3a:	21468693          	addi	a3,a3,532 # 7088214 <_data_lma+0x7083760>
     a3e:	0765                	addi	a4,a4,25
     a40:	678d                	lui	a5,0x3
     a42:	0ed42623          	sw	a3,236(s0)
     a46:	16e41d23          	sh	a4,378(s0)
     a4a:	73a78793          	addi	a5,a5,1850 # 373a <__swhatbuf_r+0x40>
     a4e:	2ee00693          	li	a3,750
     a52:	fa071737          	lui	a4,0xfa071
     a56:	a01e                	sh	a5,0(s0)
     a58:	32000613          	li	a2,800
     a5c:	47a9                	li	a5,10
     a5e:	0ed41823          	sh	a3,240(s0)
     a62:	80170713          	addi	a4,a4,-2047 # fa070801 <_eusrstack+0xda06b801>
     a66:	fb500693          	li	a3,-75
     a6a:	a05c                	sb	a5,4(s0)
     a6c:	b47c                	sb	a5,15(s0)
     a6e:	02f403a3          	sb	a5,39(s0)
     a72:	0cf40aa3          	sb	a5,213(s0)
     a76:	16f401a3          	sb	a5,355(s0)
     a7a:	1ef408a3          	sb	a5,497(s0)
     a7e:	0cc41b23          	sh	a2,214(s0)
     a82:	16d40423          	sb	a3,360(s0)
     a86:	16e42e23          	sw	a4,380(s0)
     a8a:	1ec41923          	sh	a2,498(s0)
     a8e:	35200793          	li	a5,850
     a92:	1ef41a23          	sh	a5,500(s0)
     a96:	0801f7b7          	lui	a5,0x801f
     a9a:	41e78793          	addi	a5,a5,1054 # 801f41e <_data_lma+0x801a96a>
     a9e:	20f42423          	sw	a5,520(s0)
     aa2:	479d                	li	a5,7
     aa4:	1ed40b23          	sb	a3,502(s0)
     aa8:	20f40623          	sb	a5,524(s0)
     aac:	ea8ff06f          	j	154 <__riscv_restore_0>

00000ab0 <PARAM_Init>:
     ab0:	e80ff2ef          	jal	t0,130 <__riscv_save_0>
     ab4:	3dd9                	jal	98a <PARAM_LoadFromFlash>
     ab6:	3525                	jal	8de <PARAM_VerifyChecksum>
     ab8:	ed01                	bnez	a0,ad0 <PARAM_Init+0x20>
     aba:	00004537          	lui	a0,0x4
     abe:	47050513          	addi	a0,a0,1136 # 4470 <CSWTCH.5+0xc>
     ac2:	6b2020ef          	jal	ra,3174 <puts>
     ac6:	35ed                	jal	9b0 <PARAM_SetDefault>
     ac8:	35a9                	jal	912 <PARAM_UpdateChecksum>
     aca:	3559                	jal	950 <PARAM_SaveToFlash>
     acc:	e88ff06f          	j	154 <__riscv_restore_0>
     ad0:	00004537          	lui	a0,0x4
     ad4:	4a450513          	addi	a0,a0,1188 # 44a4 <CSWTCH.5+0x40>
     ad8:	69c020ef          	jal	ra,3174 <puts>
     adc:	bfc5                	j	acc <PARAM_Init+0x1c>

00000ade <StripType_GetName>:
     ade:	4791                	li	a5,4
     ae0:	00a7ea63          	bltu	a5,a0,af4 <StripType_GetName+0x16>
     ae4:	00251793          	slli	a5,a0,0x2
     ae8:	6511                	lui	a0,0x4
     aea:	45050513          	addi	a0,a0,1104 # 4450 <CSWTCH.4>
     aee:	953e                	add	a0,a0,a5
     af0:	4108                	lw	a0,0(a0)
     af2:	8082                	ret
     af4:	00004537          	lui	a0,0x4
     af8:	4cc50513          	addi	a0,a0,1228 # 44cc <CSWTCH.5+0x68>
     afc:	8082                	ret

00000afe <Unit_GetSymbol>:
     afe:	4789                	li	a5,2
     b00:	00a7ea63          	bltu	a5,a0,b14 <Unit_GetSymbol+0x16>
     b04:	00251793          	slli	a5,a0,0x2
     b08:	6511                	lui	a0,0x4
     b0a:	46450513          	addi	a0,a0,1124 # 4464 <CSWTCH.5>
     b0e:	953e                	add	a0,a0,a5
     b10:	4108                	lw	a0,0(a0)
     b12:	8082                	ret
     b14:	00004537          	lui	a0,0x4
     b18:	4d450513          	addi	a0,a0,1236 # 44d4 <CSWTCH.5+0x70>
     b1c:	8082                	ret

00000b1e <PARAM_GetDateTime>:
     b1e:	88aa                	mv	a7,a0
     b20:	4501                	li	a0,0
     b22:	02088e63          	beqz	a7,b5e <PARAM_GetDateTime+0x40>
     b26:	cd85                	beqz	a1,b5e <PARAM_GetDateTime+0x40>
     b28:	ca1d                	beqz	a2,b5e <PARAM_GetDateTime+0x40>
     b2a:	ca95                	beqz	a3,b5e <PARAM_GetDateTime+0x40>
     b2c:	cb0d                	beqz	a4,b5e <PARAM_GetDateTime+0x40>
     b2e:	cb85                	beqz	a5,b5e <PARAM_GetDateTime+0x40>
     b30:	d5018813          	addi	a6,gp,-688 # 200005d8 <param_table>
     b34:	00984503          	lbu	a0,9(a6)
     b38:	00a88023          	sb	a0,0(a7)
     b3c:	00a84503          	lbu	a0,10(a6)
     b40:	a188                	sb	a0,0(a1)
     b42:	00b84583          	lbu	a1,11(a6)
     b46:	4505                	li	a0,1
     b48:	a20c                	sb	a1,0(a2)
     b4a:	00c84603          	lbu	a2,12(a6)
     b4e:	a290                	sb	a2,0(a3)
     b50:	00d84683          	lbu	a3,13(a6)
     b54:	a314                	sb	a3,0(a4)
     b56:	00e84703          	lbu	a4,14(a6)
     b5a:	a398                	sb	a4,0(a5)
     b5c:	8082                	ret
     b5e:	8082                	ret

00000b60 <PARAM_SetDateTime>:
     b60:	06300813          	li	a6,99
     b64:	06a86063          	bltu	a6,a0,bc4 <PARAM_SetDateTime+0x64>
     b68:	fff58893          	addi	a7,a1,-1
     b6c:	0ff8f893          	andi	a7,a7,255
     b70:	432d                	li	t1,11
     b72:	4801                	li	a6,0
     b74:	05136963          	bltu	t1,a7,bc6 <PARAM_SetDateTime+0x66>
     b78:	fff60893          	addi	a7,a2,-1
     b7c:	0ff8f893          	andi	a7,a7,255
     b80:	4379                	li	t1,30
     b82:	05136263          	bltu	t1,a7,bc6 <PARAM_SetDateTime+0x66>
     b86:	48dd                	li	a7,23
     b88:	02d8ef63          	bltu	a7,a3,bc6 <PARAM_SetDateTime+0x66>
     b8c:	03b00893          	li	a7,59
     b90:	02e8eb63          	bltu	a7,a4,bc6 <PARAM_SetDateTime+0x66>
     b94:	02f8e963          	bltu	a7,a5,bc6 <PARAM_SetDateTime+0x66>
     b98:	d98ff2ef          	jal	t0,130 <__riscv_save_0>
     b9c:	d5018813          	addi	a6,gp,-688 # 200005d8 <param_table>
     ba0:	00a804a3          	sb	a0,9(a6)
     ba4:	00b80523          	sb	a1,10(a6)
     ba8:	00c805a3          	sb	a2,11(a6)
     bac:	00d80623          	sb	a3,12(a6)
     bb0:	00e806a3          	sb	a4,13(a6)
     bb4:	00f80723          	sb	a5,14(a6)
     bb8:	3ba9                	jal	912 <PARAM_UpdateChecksum>
     bba:	3b59                	jal	950 <PARAM_SaveToFlash>
     bbc:	4805                	li	a6,1
     bbe:	8542                	mv	a0,a6
     bc0:	d94ff06f          	j	154 <__riscv_restore_0>
     bc4:	4801                	li	a6,0
     bc6:	8542                	mv	a0,a6
     bc8:	8082                	ret

00000bca <PARAM_GetStripParameters>:
     bca:	4781                	li	a5,0
     bcc:	c9b1                	beqz	a1,c20 <PARAM_GetStripParameters+0x56>
     bce:	ca29                	beqz	a2,c20 <PARAM_GetStripParameters+0x56>
     bd0:	caa1                	beqz	a3,c20 <PARAM_GetStripParameters+0x56>
     bd2:	4711                	li	a4,4
     bd4:	04a76663          	bltu	a4,a0,c20 <PARAM_GetStripParameters+0x56>
     bd8:	d3eff2ef          	jal	t0,116 <__riscv_save_4>
     bdc:	6791                	lui	a5,0x4
     bde:	0506                	slli	a0,a0,0x1
     be0:	43878793          	addi	a5,a5,1080 # 4438 <CSWTCH.11>
     be4:	97aa                	add	a5,a5,a0
     be6:	0007da03          	lhu	s4,0(a5)
     bea:	6791                	lui	a5,0x4
     bec:	44478793          	addi	a5,a5,1092 # 4444 <CSWTCH.12>
     bf0:	97aa                	add	a5,a5,a0
     bf2:	0007d983          	lhu	s3,0(a5)
     bf6:	6791                	lui	a5,0x4
     bf8:	42c78793          	addi	a5,a5,1068 # 442c <CSWTCH.10>
     bfc:	953e                	add	a0,a0,a5
     bfe:	210a                	lhu	a0,0(a0)
     c00:	8436                	mv	s0,a3
     c02:	84b2                	mv	s1,a2
     c04:	892e                	mv	s2,a1
     c06:	315d                	jal	8ac <PARAM_GetWord>
     c08:	00a91023          	sh	a0,0(s2)
     c0c:	8552                	mv	a0,s4
     c0e:	3979                	jal	8ac <PARAM_GetWord>
     c10:	a08a                	sh	a0,0(s1)
     c12:	854e                	mv	a0,s3
     c14:	3961                	jal	8ac <PARAM_GetWord>
     c16:	4785                	li	a5,1
     c18:	a00a                	sh	a0,0(s0)
     c1a:	853e                	mv	a0,a5
     c1c:	d2eff06f          	j	14a <__riscv_restore_4>
     c20:	853e                	mv	a0,a5
     c22:	8082                	ret

00000c24 <RTC_SetTime>:
     c24:	ce4ff2ef          	jal	t0,108 <__riscv_save_10>
     c28:	1141                	addi	sp,sp,-16
     c2a:	8c2e                	mv	s8,a1
     c2c:	6591                	lui	a1,0x4
     c2e:	8baa                	mv	s7,a0
     c30:	84b2                	mv	s1,a2
     c32:	22c58593          	addi	a1,a1,556 # 422c <_read+0xc>
     c36:	4635                	li	a2,13
     c38:	850a                	mv	a0,sp
     c3a:	89ba                	mv	s3,a4
     c3c:	8a3e                	mv	s4,a5
     c3e:	8936                	mv	s2,a3
     c40:	36e020ef          	jal	ra,2fae <memcpy>
     c44:	003bf713          	andi	a4,s7,3
     c48:	002bd793          	srli	a5,s7,0x2
     c4c:	e719                	bnez	a4,c5a <RTC_SetTime+0x36>
     c4e:	4689                	li	a3,2
     c50:	0186e563          	bltu	a3,s8,c5a <RTC_SetTime+0x36>
     c54:	17fd                	addi	a5,a5,-1
     c56:	0ff7f793          	andi	a5,a5,255
     c5a:	16d00b13          	li	s6,365
     c5e:	036b8b33          	mul	s6,s7,s6
     c62:	01079a93          	slli	s5,a5,0x10
     c66:	010ada93          	srli	s5,s5,0x10
     c6a:	0b42                	slli	s6,s6,0x10
     c6c:	010b5b13          	srli	s6,s6,0x10
     c70:	e319                	bnez	a4,c76 <RTC_SetTime+0x52>
     c72:	47f5                	li	a5,29
     c74:	815c                	sb	a5,2(sp)
     c76:	4781                	li	a5,0
     c78:	4401                	li	s0,0
     c7a:	0785                	addi	a5,a5,1
     c7c:	0ff7f713          	andi	a4,a5,255
     c80:	07876063          	bltu	a4,s8,ce0 <RTC_SetTime+0xbc>
     c84:	21f010ef          	jal	ra,26a2 <RTC_WaitForLastTask>
     c88:	fff48513          	addi	a0,s1,-1
     c8c:	955a                	add	a0,a0,s6
     c8e:	9556                	add	a0,a0,s5
     c90:	9522                	add	a0,a0,s0
     c92:	0542                	slli	a0,a0,0x10
     c94:	6455                	lui	s0,0x15
     c96:	18040413          	addi	s0,s0,384 # 15180 <_data_lma+0x106cc>
     c9a:	8141                	srli	a0,a0,0x10
     c9c:	02850533          	mul	a0,a0,s0
     ca0:	6405                	lui	s0,0x1
     ca2:	e1040413          	addi	s0,s0,-496 # e10 <RTC_Init+0x32>
     ca6:	03c00793          	li	a5,60
     caa:	02890433          	mul	s0,s2,s0
     cae:	02f987b3          	mul	a5,s3,a5
     cb2:	9522                	add	a0,a0,s0
     cb4:	953e                	add	a0,a0,a5
     cb6:	9552                	add	a0,a0,s4
     cb8:	191010ef          	jal	ra,2648 <RTC_SetCounter>
     cbc:	1e7010ef          	jal	ra,26a2 <RTC_WaitForLastTask>
     cc0:	00004537          	lui	a0,0x4
     cc4:	8852                	mv	a6,s4
     cc6:	87ce                	mv	a5,s3
     cc8:	874a                	mv	a4,s2
     cca:	86a6                	mv	a3,s1
     ccc:	8662                	mv	a2,s8
     cce:	7d0b8593          	addi	a1,s7,2000
     cd2:	5a850513          	addi	a0,a0,1448 # 45a8 <CSWTCH.5+0x144>
     cd6:	38a020ef          	jal	ra,3060 <iprintf>
     cda:	0141                	addi	sp,sp,16
     cdc:	c64ff06f          	j	140 <__riscv_restore_10>
     ce0:	00f10733          	add	a4,sp,a5
     ce4:	2318                	lbu	a4,0(a4)
     ce6:	943a                	add	s0,s0,a4
     ce8:	0442                	slli	s0,s0,0x10
     cea:	8041                	srli	s0,s0,0x10
     cec:	b779                	j	c7a <RTC_SetTime+0x56>

00000cee <RTC_GetTime>:
     cee:	c28ff2ef          	jal	t0,116 <__riscv_save_4>
     cf2:	1101                	addi	sp,sp,-32
     cf4:	c636                	sw	a3,12(sp)
     cf6:	c43a                	sw	a4,8(sp)
     cf8:	c23e                	sw	a5,4(sp)
     cfa:	84ae                	mv	s1,a1
     cfc:	8932                	mv	s2,a2
     cfe:	89aa                	mv	s3,a0
     d00:	0ef010ef          	jal	ra,25ee <RTC_GetCounter>
     d04:	6591                	lui	a1,0x4
     d06:	842a                	mv	s0,a0
     d08:	4635                	li	a2,13
     d0a:	22c58593          	addi	a1,a1,556 # 422c <_read+0xc>
     d0e:	0808                	addi	a0,sp,16
     d10:	29e020ef          	jal	ra,2fae <memcpy>
     d14:	65d5                	lui	a1,0x15
     d16:	18058593          	addi	a1,a1,384 # 15180 <_data_lma+0x106cc>
     d1a:	02b45633          	divu	a2,s0,a1
     d1e:	46b2                	lw	a3,12(sp)
     d20:	4722                	lw	a4,8(sp)
     d22:	4792                	lw	a5,4(sp)
     d24:	02b47433          	remu	s0,s0,a1
     d28:	6585                	lui	a1,0x1
     d2a:	e1058593          	addi	a1,a1,-496 # e10 <RTC_Init+0x32>
     d2e:	02b45533          	divu	a0,s0,a1
     d32:	02b47433          	remu	s0,s0,a1
     d36:	a288                	sb	a0,0(a3)
     d38:	03c00693          	li	a3,60
     d3c:	02d455b3          	divu	a1,s0,a3
     d40:	02d47433          	remu	s0,s0,a3
     d44:	a30c                	sb	a1,0(a4)
     d46:	a380                	sb	s0,0(a5)
     d48:	4781                	li	a5,0
     d4a:	0037f693          	andi	a3,a5,3
     d4e:	0016b713          	seqz	a4,a3
     d52:	16d70713          	addi	a4,a4,365
     d56:	02e67763          	bgeu	a2,a4,d84 <RTC_GetTime+0x96>
     d5a:	00f98023          	sb	a5,0(s3)
     d5e:	e681                	bnez	a3,d66 <RTC_GetTime+0x78>
     d60:	47f5                	li	a5,29
     d62:	00f10923          	sb	a5,18(sp)
     d66:	4785                	li	a5,1
     d68:	a09c                	sb	a5,0(s1)
     d6a:	209c                	lbu	a5,0(s1)
     d6c:	1018                	addi	a4,sp,32
     d6e:	973e                	add	a4,a4,a5
     d70:	ff074703          	lbu	a4,-16(a4)
     d74:	00e67d63          	bgeu	a2,a4,d8e <RTC_GetTime+0xa0>
     d78:	0605                	addi	a2,a2,1
     d7a:	00c90023          	sb	a2,0(s2)
     d7e:	6105                	addi	sp,sp,32
     d80:	bcaff06f          	j	14a <__riscv_restore_4>
     d84:	0785                	addi	a5,a5,1
     d86:	07c2                	slli	a5,a5,0x10
     d88:	8e19                	sub	a2,a2,a4
     d8a:	83c1                	srli	a5,a5,0x10
     d8c:	bf7d                	j	d4a <RTC_GetTime+0x5c>
     d8e:	8e19                	sub	a2,a2,a4
     d90:	0785                	addi	a5,a5,1
     d92:	bfd9                	j	d68 <RTC_GetTime+0x7a>

00000d94 <RTC_SyncWithParam>:
     d94:	b9cff2ef          	jal	t0,130 <__riscv_save_0>
     d98:	1141                	addi	sp,sp,-16
     d9a:	00f10793          	addi	a5,sp,15
     d9e:	00e10713          	addi	a4,sp,14
     da2:	00d10693          	addi	a3,sp,13
     da6:	0070                	addi	a2,sp,12
     da8:	00b10593          	addi	a1,sp,11
     dac:	00a10513          	addi	a0,sp,10
     db0:	33bd                	jal	b1e <PARAM_GetDateTime>
     db2:	c10d                	beqz	a0,dd4 <RTC_SyncWithParam+0x40>
     db4:	8508                	lbu	a0,10(sp)
     db6:	879c                	lbu	a5,15(sp)
     db8:	8718                	lbu	a4,14(sp)
     dba:	8694                	lbu	a3,13(sp)
     dbc:	8610                	lbu	a2,12(sp)
     dbe:	858c                	lbu	a1,11(sp)
     dc0:	3595                	jal	c24 <RTC_SetTime>
     dc2:	00004537          	lui	a0,0x4
     dc6:	5d850513          	addi	a0,a0,1496 # 45d8 <CSWTCH.5+0x174>
     dca:	3aa020ef          	jal	ra,3174 <puts>
     dce:	0141                	addi	sp,sp,16
     dd0:	b84ff06f          	j	154 <__riscv_restore_0>
     dd4:	00004537          	lui	a0,0x4
     dd8:	5fc50513          	addi	a0,a0,1532 # 45fc <CSWTCH.5+0x198>
     ddc:	b7fd                	j	dca <RTC_SyncWithParam+0x36>

00000dde <RTC_Init>:
     dde:	b52ff2ef          	jal	t0,130 <__riscv_save_0>
     de2:	4585                	li	a1,1
     de4:	18000537          	lui	a0,0x18000
     de8:	738010ef          	jal	ra,2520 <RCC_APB1PeriphClockCmd>
     dec:	4505                	li	a0,1
     dee:	5d0010ef          	jal	ra,23be <PWR_BackupAccessCmd>
     df2:	1d4010ef          	jal	ra,1fc6 <BKP_DeInit>
     df6:	4505                	li	a0,1
     df8:	5ee010ef          	jal	ra,23e6 <RCC_LSICmd>
     dfc:	06100513          	li	a0,97
     e00:	77c010ef          	jal	ra,257c <RCC_GetFlagStatus>
     e04:	dd65                	beqz	a0,dfc <RTC_Init+0x1e>
     e06:	20000513          	li	a0,512
     e0a:	5f0010ef          	jal	ra,23fa <RCC_RTCCLKConfig>
     e0e:	4505                	li	a0,1
     e10:	5f6010ef          	jal	ra,2406 <RCC_RTCCLKCmd>
     e14:	09f010ef          	jal	ra,26b2 <RTC_WaitForSynchro>
     e18:	08b010ef          	jal	ra,26a2 <RTC_WaitForLastTask>
     e1c:	6529                	lui	a0,0xa
     e1e:	c3f50513          	addi	a0,a0,-961 # 9c3f <_data_lma+0x518b>
     e22:	053010ef          	jal	ra,2674 <RTC_SetPrescaler>
     e26:	07d010ef          	jal	ra,26a2 <RTC_WaitForLastTask>
     e2a:	37ad                	jal	d94 <RTC_SyncWithParam>
     e2c:	00004537          	lui	a0,0x4
     e30:	59450513          	addi	a0,a0,1428 # 4594 <CSWTCH.5+0x130>
     e34:	340020ef          	jal	ra,3174 <puts>
     e38:	b1cff06f          	j	154 <__riscv_restore_0>

00000e3c <RTC_UpdateParam>:
     e3c:	af4ff2ef          	jal	t0,130 <__riscv_save_0>
     e40:	1141                	addi	sp,sp,-16
     e42:	00f10793          	addi	a5,sp,15
     e46:	00e10713          	addi	a4,sp,14
     e4a:	00d10693          	addi	a3,sp,13
     e4e:	0070                	addi	a2,sp,12
     e50:	00b10593          	addi	a1,sp,11
     e54:	00a10513          	addi	a0,sp,10
     e58:	3d59                	jal	cee <RTC_GetTime>
     e5a:	879c                	lbu	a5,15(sp)
     e5c:	8718                	lbu	a4,14(sp)
     e5e:	8694                	lbu	a3,13(sp)
     e60:	8610                	lbu	a2,12(sp)
     e62:	858c                	lbu	a1,11(sp)
     e64:	8508                	lbu	a0,10(sp)
     e66:	39ed                	jal	b60 <PARAM_SetDateTime>
     e68:	c11d                	beqz	a0,e8e <RTC_UpdateParam+0x52>
     e6a:	850c                	lbu	a1,10(sp)
     e6c:	00f14803          	lbu	a6,15(sp)
     e70:	871c                	lbu	a5,14(sp)
     e72:	8698                	lbu	a4,13(sp)
     e74:	8614                	lbu	a3,12(sp)
     e76:	8590                	lbu	a2,11(sp)
     e78:	00004537          	lui	a0,0x4
     e7c:	7d058593          	addi	a1,a1,2000
     e80:	62850513          	addi	a0,a0,1576 # 4628 <CSWTCH.5+0x1c4>
     e84:	1dc020ef          	jal	ra,3060 <iprintf>
     e88:	0141                	addi	sp,sp,16
     e8a:	acaff06f          	j	154 <__riscv_restore_0>
     e8e:	00004537          	lui	a0,0x4
     e92:	66850513          	addi	a0,a0,1640 # 4668 <CSWTCH.5+0x204>
     e96:	2de020ef          	jal	ra,3174 <puts>
     e9a:	b7fd                	j	e88 <RTC_UpdateParam+0x4c>

00000e9c <RTC_Config>:
     e9c:	a94ff2ef          	jal	t0,130 <__riscv_save_0>
     ea0:	4511                	li	a0,4
     ea2:	150010ef          	jal	ra,1ff2 <BKP_ReadBackupRegister>
     ea6:	65a9                	lui	a1,0xa
     ea8:	5a558593          	addi	a1,a1,1445 # a5a5 <_data_lma+0x5af1>
     eac:	00b50c63          	beq	a0,a1,ec4 <RTC_Config+0x28>
     eb0:	373d                	jal	dde <RTC_Init>
     eb2:	67a9                	lui	a5,0xa
     eb4:	5a578593          	addi	a1,a5,1445 # a5a5 <_data_lma+0x5af1>
     eb8:	4511                	li	a0,4
     eba:	11c010ef          	jal	ra,1fd6 <BKP_WriteBackupRegister>
     ebe:	3fbd                	jal	e3c <RTC_UpdateParam>
     ec0:	a94ff06f          	j	154 <__riscv_restore_0>
     ec4:	07b00513          	li	a0,123
     ec8:	6b4010ef          	jal	ra,257c <RCC_GetFlagStatus>
     ecc:	c90d                	beqz	a0,efe <RTC_Config+0x62>
     ece:	00004537          	lui	a0,0x4
     ed2:	53c50513          	addi	a0,a0,1340 # 453c <CSWTCH.5+0xd8>
     ed6:	29e020ef          	jal	ra,3174 <puts>
     eda:	00004537          	lui	a0,0x4
     ede:	57450513          	addi	a0,a0,1396 # 4574 <CSWTCH.5+0x110>
     ee2:	292020ef          	jal	ra,3174 <puts>
     ee6:	4505                	li	a0,1
     ee8:	4d6010ef          	jal	ra,23be <PWR_BackupAccessCmd>
     eec:	7c6010ef          	jal	ra,26b2 <RTC_WaitForSynchro>
     ef0:	4585                	li	a1,1
     ef2:	4505                	li	a0,1
     ef4:	6b6010ef          	jal	ra,25aa <RTC_ITConfig>
     ef8:	7aa010ef          	jal	ra,26a2 <RTC_WaitForLastTask>
     efc:	b7c9                	j	ebe <RTC_Config+0x22>
     efe:	07a00513          	li	a0,122
     f02:	67a010ef          	jal	ra,257c <RCC_GetFlagStatus>
     f06:	d971                	beqz	a0,eda <RTC_Config+0x3e>
     f08:	00004537          	lui	a0,0x4
     f0c:	55850513          	addi	a0,a0,1368 # 4558 <CSWTCH.5+0xf4>
     f10:	b7d9                	j	ed6 <RTC_Config+0x3a>

00000f12 <STRIP_DETECT_DetermineStripType>:
     f12:	a1eff2ef          	jal	t0,130 <__riscv_save_0>
     f16:	200007b7          	lui	a5,0x20000
     f1a:	00078793          	mv	a5,a5
     f1e:	279a                	lhu	a4,8(a5)
     f20:	47c8                	lw	a0,12(a5)
     f22:	10000793          	li	a5,256
     f26:	00f71d63          	bne	a4,a5,f40 <STRIP_DETECT_DetermineStripType+0x2e>
     f2a:	000047b7          	lui	a5,0x4
     f2e:	6a87a583          	lw	a1,1704(a5) # 46a8 <CSWTCH.5+0x244>
     f32:	37f010ef          	jal	ra,2ab0 <__gesf2>
     f36:	00152793          	slti	a5,a0,1
     f3a:	853e                	mv	a0,a5
     f3c:	a18ff06f          	j	154 <__riscv_restore_0>
     f40:	ef01                	bnez	a4,f58 <STRIP_DETECT_DetermineStripType+0x46>
     f42:	000047b7          	lui	a5,0x4
     f46:	6a87a583          	lw	a1,1704(a5) # 46a8 <CSWTCH.5+0x244>
     f4a:	367010ef          	jal	ra,2ab0 <__gesf2>
     f4e:	4789                	li	a5,2
     f50:	fea045e3          	bgtz	a0,f3a <STRIP_DETECT_DetermineStripType+0x28>
     f54:	4795                	li	a5,5
     f56:	b7d5                	j	f3a <STRIP_DETECT_DetermineStripType+0x28>
     f58:	4685                	li	a3,1
     f5a:	4795                	li	a5,5
     f5c:	fcd71fe3          	bne	a4,a3,f3a <STRIP_DETECT_DetermineStripType+0x28>
     f60:	000047b7          	lui	a5,0x4
     f64:	6a87a583          	lw	a1,1704(a5) # 46a8 <CSWTCH.5+0x244>
     f68:	349010ef          	jal	ra,2ab0 <__gesf2>
     f6c:	00a027b3          	sgtz	a5,a0
     f70:	078d                	addi	a5,a5,3
     f72:	b7e1                	j	f3a <STRIP_DETECT_DetermineStripType+0x28>

00000f74 <STRIP_DETECT_UpdateWPWMDuty>:
     f74:	9bcff2ef          	jal	t0,130 <__riscv_save_0>
     f78:	87aa                	mv	a5,a0
     f7a:	4711                	li	a4,4
     f7c:	3e800513          	li	a0,1000
     f80:	00f76d63          	bltu	a4,a5,f9a <STRIP_DETECT_UpdateWPWMDuty+0x26>
     f84:	6511                	lui	a0,0x4
     f86:	078a                	slli	a5,a5,0x2
     f88:	69450513          	addi	a0,a0,1684 # 4694 <CSWTCH.5+0x230>
     f8c:	97aa                	add	a5,a5,a0
     f8e:	439c                	lw	a5,0(a5)
     f90:	8782                	jr	a5
     f92:	04200513          	li	a0,66
     f96:	917ff0ef          	jal	ra,8ac <PARAM_GetWord>
     f9a:	3e800793          	li	a5,1000
     f9e:	40a785b3          	sub	a1,a5,a0
     fa2:	32000513          	li	a0,800
     fa6:	02a585b3          	mul	a1,a1,a0
     faa:	40013537          	lui	a0,0x40013
     fae:	c0050513          	addi	a0,a0,-1024 # 40012c00 <_eusrstack+0x2000dc00>
     fb2:	02f5c5b3          	div	a1,a1,a5
     fb6:	05c2                	slli	a1,a1,0x10
     fb8:	81c1                	srli	a1,a1,0x10
     fba:	091010ef          	jal	ra,284a <TIM_SetCompare3>
     fbe:	996ff06f          	j	154 <__riscv_restore_0>
     fc2:	0f000513          	li	a0,240
     fc6:	bfc1                	j	f96 <STRIP_DETECT_UpdateWPWMDuty+0x22>
     fc8:	17f00513          	li	a0,383
     fcc:	b7e9                	j	f96 <STRIP_DETECT_UpdateWPWMDuty+0x22>
     fce:	20d00513          	li	a0,525
     fd2:	b7d1                	j	f96 <STRIP_DETECT_UpdateWPWMDuty+0x22>

00000fd4 <STRIP_DETECT_ReadADC.constprop.0>:
     fd4:	95cff2ef          	jal	t0,130 <__riscv_save_0>
     fd8:	40012437          	lui	s0,0x40012
     fdc:	469d                	li	a3,7
     fde:	4605                	li	a2,1
     fe0:	4599                	li	a1,6
     fe2:	40040513          	addi	a0,s0,1024 # 40012400 <_eusrstack+0x2000d400>
     fe6:	717000ef          	jal	ra,1efc <ADC_RegularChannelConfig>
     fea:	4585                	li	a1,1
     fec:	40040513          	addi	a0,s0,1024
     ff0:	6f5000ef          	jal	ra,1ee4 <ADC_SoftwareStartConvCmd>
     ff4:	40040493          	addi	s1,s0,1024
     ff8:	4589                	li	a1,2
     ffa:	8526                	mv	a0,s1
     ffc:	7c1000ef          	jal	ra,1fbc <ADC_GetFlagStatus>
    1000:	dd65                	beqz	a0,ff8 <STRIP_DETECT_ReadADC.constprop.0+0x24>
    1002:	40040513          	addi	a0,s0,1024
    1006:	7af000ef          	jal	ra,1fb4 <ADC_GetConversionValue>
    100a:	94aff06f          	j	154 <__riscv_restore_0>

0000100e <STRIP_DETECT_Init>:
    100e:	922ff2ef          	jal	t0,130 <__riscv_save_0>
    1012:	7179                	addi	sp,sp,-48
    1014:	4585                	li	a1,1
    1016:	4531                	li	a0,12
    1018:	c202                	sw	zero,4(sp)
    101a:	c402                	sw	zero,8(sp)
    101c:	c602                	sw	zero,12(sp)
    101e:	4e4010ef          	jal	ra,2502 <RCC_APB2PeriphClockCmd>
    1022:	10000793          	li	a5,256
    1026:	40011437          	lui	s0,0x40011
    102a:	827c                	sh	a5,4(sp)
    102c:	47c1                	li	a5,16
    102e:	80040513          	addi	a0,s0,-2048 # 40010800 <_eusrstack+0x2000b800>
    1032:	c63e                	sw	a5,12(sp)
    1034:	004c                	addi	a1,sp,4
    1036:	478d                	li	a5,3
    1038:	c43e                	sw	a5,8(sp)
    103a:	1ae010ef          	jal	ra,21e8 <GPIO_Init>
    103e:	80040513          	addi	a0,s0,-2048
    1042:	10000593          	li	a1,256
    1046:	294010ef          	jal	ra,22da <GPIO_SetBits>
    104a:	04000793          	li	a5,64
    104e:	80040513          	addi	a0,s0,-2048
    1052:	004c                	addi	a1,sp,4
    1054:	827c                	sh	a5,4(sp)
    1056:	c602                	sw	zero,12(sp)
    1058:	190010ef          	jal	ra,21e8 <GPIO_Init>
    105c:	02000613          	li	a2,32
    1060:	4581                	li	a1,0
    1062:	0808                	addi	a0,sp,16
    1064:	8fcff0ef          	jal	ra,160 <memset>
    1068:	4585                	li	a1,1
    106a:	20000513          	li	a0,512
    106e:	494010ef          	jal	ra,2502 <RCC_APB2PeriphClockCmd>
    1072:	6531                	lui	a0,0xc
    1074:	40012437          	lui	s0,0x40012
    1078:	35c010ef          	jal	ra,23d4 <RCC_ADCCLKConfig>
    107c:	40040513          	addi	a0,s0,1024 # 40012400 <_eusrstack+0x2000d400>
    1080:	59b000ef          	jal	ra,1e1a <ADC_DeInit>
    1084:	000e07b7          	lui	a5,0xe0
    1088:	ce3e                	sw	a5,28(sp)
    108a:	080c                	addi	a1,sp,16
    108c:	4785                	li	a5,1
    108e:	40040513          	addi	a0,s0,1024
    1092:	02f10223          	sb	a5,36(sp)
    1096:	c802                	sw	zero,16(sp)
    1098:	ca02                	sw	zero,20(sp)
    109a:	cc02                	sw	zero,24(sp)
    109c:	d002                	sw	zero,32(sp)
    109e:	5bd000ef          	jal	ra,1e5a <ADC_Init>
    10a2:	4585                	li	a1,1
    10a4:	40040513          	addi	a0,s0,1024
    10a8:	609000ef          	jal	ra,1eb0 <ADC_Cmd>
    10ac:	40040513          	addi	a0,s0,1024
    10b0:	611000ef          	jal	ra,1ec0 <ADC_ResetCalibration>
    10b4:	40040493          	addi	s1,s0,1024
    10b8:	8526                	mv	a0,s1
    10ba:	611000ef          	jal	ra,1eca <ADC_GetResetCalibrationStatus>
    10be:	fd6d                	bnez	a0,10b8 <STRIP_DETECT_Init+0xaa>
    10c0:	40040513          	addi	a0,s0,1024
    10c4:	40012437          	lui	s0,0x40012
    10c8:	60b000ef          	jal	ra,1ed2 <ADC_StartCalibration>
    10cc:	40040413          	addi	s0,s0,1024 # 40012400 <_eusrstack+0x2000d400>
    10d0:	8522                	mv	a0,s0
    10d2:	60b000ef          	jal	ra,1edc <ADC_GetCalibrationStatus>
    10d6:	fd6d                	bnez	a0,10d0 <STRIP_DETECT_Init+0xc2>
    10d8:	00004537          	lui	a0,0x4
    10dc:	6ec50513          	addi	a0,a0,1772 # 46ec <CSWTCH.5+0x288>
    10e0:	094020ef          	jal	ra,3174 <puts>
    10e4:	6145                	addi	sp,sp,48
    10e6:	86eff06f          	j	154 <__riscv_restore_0>

000010ea <STRIP_DETECT_Process>:
    10ea:	82cff2ef          	jal	t0,116 <__riscv_save_4>
    10ee:	20000437          	lui	s0,0x20000
    10f2:	00042483          	lw	s1,0(s0) # 20000000 <_data_vma>
    10f6:	4785                	li	a5,1
    10f8:	1101                	addi	sp,sp,-32
    10fa:	0ef49f63          	bne	s1,a5,11f8 <STRIP_DETECT_Process+0x10e>
    10fe:	00040413          	mv	s0,s0
    1102:	285c                	lbu	a5,20(s0)
    1104:	0e079a63          	bnez	a5,11f8 <STRIP_DETECT_Process+0x10e>
    1108:	40011937          	lui	s2,0x40011
    110c:	10000593          	li	a1,256
    1110:	80090513          	addi	a0,s2,-2048 # 40010800 <_eusrstack+0x2000b800>
    1114:	1da010ef          	jal	ra,22ee <GPIO_ResetBits>
    1118:	4529                	li	a0,10
    111a:	0a3010ef          	jal	ra,29bc <Delay_Ms>
    111e:	3d5d                	jal	fd4 <STRIP_DETECT_ReadADC.constprop.0>
    1120:	4a7010ef          	jal	ra,2dc6 <__floatunsisf>
    1124:	000047b7          	lui	a5,0x4
    1128:	7107a583          	lw	a1,1808(a5) # 4710 <CSWTCH.5+0x2ac>
    112c:	20b010ef          	jal	ra,2b36 <__mulsf3>
    1130:	000047b7          	lui	a5,0x4
    1134:	7147a583          	lw	a1,1812(a5) # 4714 <CSWTCH.5+0x2b0>
    1138:	1ff010ef          	jal	ra,2b36 <__mulsf3>
    113c:	c448                	sw	a0,12(s0)
    113e:	3bd1                	jal	f12 <STRIP_DETECT_DetermineStripType>
    1140:	4789                	li	a5,2
    1142:	10000593          	li	a1,256
    1146:	c048                	sw	a0,4(s0)
    1148:	80090513          	addi	a0,s2,-2048
    114c:	c01c                	sw	a5,0(s0)
    114e:	a844                	sb	s1,20(s0)
    1150:	18a010ef          	jal	ra,22da <GPIO_SetBits>
    1154:	4048                	lw	a0,4(s0)
    1156:	989ff0ef          	jal	ra,ade <StripType_GetName>
    115a:	341c                	lbu	a5,9(s0)
    115c:	2418                	lbu	a4,8(s0)
    115e:	892a                	mv	s2,a0
    1160:	4448                	lw	a0,12(s0)
    1162:	c63e                	sw	a5,12(sp)
    1164:	c43a                	sw	a4,8(sp)
    1166:	52f010ef          	jal	ra,2e94 <__extendsfdf2>
    116a:	47b2                	lw	a5,12(sp)
    116c:	4722                	lw	a4,8(sp)
    116e:	862a                	mv	a2,a0
    1170:	00004537          	lui	a0,0x4
    1174:	86ae                	mv	a3,a1
    1176:	71850513          	addi	a0,a0,1816 # 4718 <CSWTCH.5+0x2b4>
    117a:	85ca                	mv	a1,s2
    117c:	6e5010ef          	jal	ra,3060 <iprintf>
    1180:	204c                	lbu	a1,4(s0)
    1182:	454d                	li	a0,19
    1184:	f16ff0ef          	jal	ra,89a <PARAM_SetByte>
    1188:	4048                	lw	a0,4(s0)
    118a:	33ed                	jal	f74 <STRIP_DETECT_UpdateWPWMDuty>
    118c:	385c                	lbu	a5,21(s0)
    118e:	efa9                	bnez	a5,11e8 <STRIP_DETECT_Process+0xfe>
    1190:	00442983          	lw	s3,4(s0)
    1194:	77e9                	lui	a5,0xffffa
    1196:	0aa78793          	addi	a5,a5,170 # ffffa0aa <_eusrstack+0xdfff50aa>
    119a:	84fc                	sh	a5,24(sp)
    119c:	40004937          	lui	s2,0x40004
    11a0:	fa198793          	addi	a5,s3,-95
    11a4:	00910d23          	sb	s1,26(sp)
    11a8:	01310da3          	sb	s3,27(sp)
    11ac:	00f10e23          	sb	a5,28(sp)
    11b0:	4481                	li	s1,0
    11b2:	40090913          	addi	s2,s2,1024 # 40004400 <_eusrstack+0x1ffff400>
    11b6:	4a15                	li	s4,5
    11b8:	083c                	addi	a5,sp,24
    11ba:	97a6                	add	a5,a5,s1
    11bc:	238c                	lbu	a1,0(a5)
    11be:	854a                	mv	a0,s2
    11c0:	77c010ef          	jal	ra,293c <USART_SendData>
    11c4:	08000593          	li	a1,128
    11c8:	854a                	mv	a0,s2
    11ca:	782010ef          	jal	ra,294c <USART_GetFlagStatus>
    11ce:	d97d                	beqz	a0,11c4 <STRIP_DETECT_Process+0xda>
    11d0:	0485                	addi	s1,s1,1
    11d2:	ff4493e3          	bne	s1,s4,11b8 <STRIP_DETECT_Process+0xce>
    11d6:	00004537          	lui	a0,0x4
    11da:	4785                	li	a5,1
    11dc:	85ce                	mv	a1,s3
    11de:	74c50513          	addi	a0,a0,1868 # 474c <CSWTCH.5+0x2e8>
    11e2:	b85c                	sb	a5,21(s0)
    11e4:	67d010ef          	jal	ra,3060 <iprintf>
    11e8:	4511                	li	a0,4
    11ea:	2a99                	jal	1340 <System_SetState>
    11ec:	00004537          	lui	a0,0x4
    11f0:	76c50513          	addi	a0,a0,1900 # 476c <CSWTCH.5+0x308>
    11f4:	781010ef          	jal	ra,3174 <puts>
    11f8:	6105                	addi	sp,sp,32
    11fa:	f51fe06f          	j	14a <__riscv_restore_4>

000011fe <STRIP_DETECT_HandleInsertedEvent>:
    11fe:	f33fe2ef          	jal	t0,130 <__riscv_save_0>
    1202:	20000437          	lui	s0,0x20000
    1206:	00004537          	lui	a0,0x4
    120a:	00040413          	mv	s0,s0
    120e:	4905                	li	s2,1
    1210:	6ac50513          	addi	a0,a0,1708 # 46ac <CSWTCH.5+0x248>
    1214:	01242023          	sw	s2,0(s0) # 20000000 <_data_vma>
    1218:	00042823          	sw	zero,16(s0)
    121c:	00041a23          	sh	zero,20(s0)
    1220:	755010ef          	jal	ra,3174 <puts>
    1224:	40011537          	lui	a0,0x40011
    1228:	10000593          	li	a1,256
    122c:	80050513          	addi	a0,a0,-2048 # 40010800 <_eusrstack+0x2000b800>
    1230:	0be010ef          	jal	ra,22ee <GPIO_ResetBits>
    1234:	03200513          	li	a0,50
    1238:	784010ef          	jal	ra,29bc <Delay_Ms>
    123c:	3b61                	jal	fd4 <STRIP_DETECT_ReadADC.constprop.0>
    123e:	389010ef          	jal	ra,2dc6 <__floatunsisf>
    1242:	000047b7          	lui	a5,0x4
    1246:	7107a583          	lw	a1,1808(a5) # 4710 <CSWTCH.5+0x2ac>
    124a:	0ed010ef          	jal	ra,2b36 <__mulsf3>
    124e:	000047b7          	lui	a5,0x4
    1252:	7147a583          	lw	a1,1812(a5) # 4714 <CSWTCH.5+0x2b0>
    1256:	0e1010ef          	jal	ra,2b36 <__mulsf3>
    125a:	c448                	sw	a0,12(s0)
    125c:	395d                	jal	f12 <STRIP_DETECT_DetermineStripType>
    125e:	84aa                	mv	s1,a0
    1260:	c048                	sw	a0,4(s0)
    1262:	3b09                	jal	f74 <STRIP_DETECT_UpdateWPWMDuty>
    1264:	8526                	mv	a0,s1
    1266:	1ab000ef          	jal	ra,1c10 <UART_SendStripTypeAck>
    126a:	4789                	li	a5,2
    126c:	8526                	mv	a0,s1
    126e:	c01c                	sw	a5,0(s0)
    1270:	01240a23          	sb	s2,20(s0)
    1274:	86bff0ef          	jal	ra,ade <StripType_GetName>
    1278:	85aa                	mv	a1,a0
    127a:	00004537          	lui	a0,0x4
    127e:	6cc50513          	addi	a0,a0,1740 # 46cc <CSWTCH.5+0x268>
    1282:	5df010ef          	jal	ra,3060 <iprintf>
    1286:	4511                	li	a0,4
    1288:	2865                	jal	1340 <System_SetState>
    128a:	00004537          	lui	a0,0x4
    128e:	76c50513          	addi	a0,a0,1900 # 476c <CSWTCH.5+0x308>
    1292:	6e3010ef          	jal	ra,3174 <puts>
    1296:	ebffe06f          	j	154 <__riscv_restore_0>

0000129a <STRIP_DETECT_GetStripType>:
    129a:	200007b7          	lui	a5,0x20000
    129e:	0047a503          	lw	a0,4(a5) # 20000004 <_data_vma+0x4>
    12a2:	8082                	ret

000012a4 <STRIP_DETECT_SetPinStatus>:
    12a4:	200007b7          	lui	a5,0x20000
    12a8:	00078793          	mv	a5,a5
    12ac:	a788                	sb	a0,8(a5)
    12ae:	b78c                	sb	a1,9(a5)
    12b0:	8082                	ret

000012b2 <SystemInit>:
    12b2:	400217b7          	lui	a5,0x40021
    12b6:	4398                	lw	a4,0(a5)
    12b8:	f0ff06b7          	lui	a3,0xf0ff0
    12bc:	00176713          	ori	a4,a4,1
    12c0:	c398                	sw	a4,0(a5)
    12c2:	43d8                	lw	a4,4(a5)
    12c4:	8f75                	and	a4,a4,a3
    12c6:	c3d8                	sw	a4,4(a5)
    12c8:	4398                	lw	a4,0(a5)
    12ca:	fef706b7          	lui	a3,0xfef70
    12ce:	16fd                	addi	a3,a3,-1
    12d0:	8f75                	and	a4,a4,a3
    12d2:	c398                	sw	a4,0(a5)
    12d4:	4398                	lw	a4,0(a5)
    12d6:	fffc06b7          	lui	a3,0xfffc0
    12da:	16fd                	addi	a3,a3,-1
    12dc:	8f75                	and	a4,a4,a3
    12de:	c398                	sw	a4,0(a5)
    12e0:	43d8                	lw	a4,4(a5)
    12e2:	ff0106b7          	lui	a3,0xff010
    12e6:	16fd                	addi	a3,a3,-1
    12e8:	8f75                	and	a4,a4,a3
    12ea:	c3d8                	sw	a4,4(a5)
    12ec:	009f0737          	lui	a4,0x9f0
    12f0:	c798                	sw	a4,8(a5)
    12f2:	43d8                	lw	a4,4(a5)
    12f4:	ffc106b7          	lui	a3,0xffc10
    12f8:	16fd                	addi	a3,a3,-1
    12fa:	c3d8                	sw	a4,4(a5)
    12fc:	43d8                	lw	a4,4(a5)
    12fe:	c3d8                	sw	a4,4(a5)
    1300:	43d8                	lw	a4,4(a5)
    1302:	c3d8                	sw	a4,4(a5)
    1304:	43d8                	lw	a4,4(a5)
    1306:	8f75                	and	a4,a4,a3
    1308:	c3d8                	sw	a4,4(a5)
    130a:	43d8                	lw	a4,4(a5)
    130c:	010006b7          	lui	a3,0x1000
    1310:	c3d8                	sw	a4,4(a5)
    1312:	4398                	lw	a4,0(a5)
    1314:	8f55                	or	a4,a4,a3
    1316:	c398                	sw	a4,0(a5)
    1318:	4398                	lw	a4,0(a5)
    131a:	00671693          	slli	a3,a4,0x6
    131e:	fe06dde3          	bgez	a3,1318 <SystemInit+0x66>
    1322:	43d8                	lw	a4,4(a5)
    1324:	400216b7          	lui	a3,0x40021
    1328:	9b71                	andi	a4,a4,-4
    132a:	c3d8                	sw	a4,4(a5)
    132c:	43d8                	lw	a4,4(a5)
    132e:	00276713          	ori	a4,a4,2
    1332:	c3d8                	sw	a4,4(a5)
    1334:	4721                	li	a4,8
    1336:	42dc                	lw	a5,4(a3)
    1338:	8bb1                	andi	a5,a5,12
    133a:	fee79ee3          	bne	a5,a4,1336 <SystemInit+0x84>
    133e:	8082                	ret

00001340 <System_SetState>:
    1340:	df1fe2ef          	jal	t0,130 <__riscv_save_0>
    1344:	82018493          	addi	s1,gp,-2016 # 200000a8 <currentSystemState>
    1348:	408c                	lw	a1,0(s1)
    134a:	00a58b63          	beq	a1,a0,1360 <System_SetState+0x20>
    134e:	842a                	mv	s0,a0
    1350:	862a                	mv	a2,a0
    1352:	00004537          	lui	a0,0x4
    1356:	79450513          	addi	a0,a0,1940 # 4794 <CSWTCH.5+0x330>
    135a:	507010ef          	jal	ra,3060 <iprintf>
    135e:	c080                	sw	s0,0(s1)
    1360:	df5fe06f          	j	154 <__riscv_restore_0>

00001364 <System_GetState>:
    1364:	8201a503          	lw	a0,-2016(gp) # 200000a8 <currentSystemState>
    1368:	8082                	ret

0000136a <UART_Protocol_Init>:
    136a:	dc7fe2ef          	jal	t0,130 <__riscv_save_0>
    136e:	82019623          	sh	zero,-2004(gp) # 200000b4 <rx_index>
    1372:	82018523          	sb	zero,-2006(gp) # 200000b2 <packet_received>
    1376:	820187a3          	sb	zero,-2001(gp) # 200000b7 <test_in_progress>
    137a:	4715                	li	a4,5
    137c:	82018223          	sb	zero,-2012(gp) # 200000ac <blood_detected>
    1380:	4669                	li	a2,26
    1382:	4581                	li	a1,0
    1384:	03418513          	addi	a0,gp,52 # 200008bc <current_test_result>
    1388:	80e18223          	sb	a4,-2044(gp) # 2000008c <blood_countdown>
    138c:	dd5fe0ef          	jal	ra,160 <memset>
    1390:	03c00613          	li	a2,60
    1394:	4581                	li	a1,0
    1396:	ff818513          	addi	a0,gp,-8 # 20000880 <current_raw_data>
    139a:	dc7fe0ef          	jal	ra,160 <memset>
    139e:	00005537          	lui	a0,0x5
    13a2:	88450513          	addi	a0,a0,-1916 # 4884 <CSWTCH.5+0x420>
    13a6:	5cf010ef          	jal	ra,3174 <puts>
    13aa:	dabfe06f          	j	154 <__riscv_restore_0>

000013ae <UART_CalculateChecksum>:
    13ae:	952e                	add	a0,a0,a1
    13b0:	4781                	li	a5,0
    13b2:	0ff7f713          	andi	a4,a5,255
    13b6:	00b76563          	bltu	a4,a1,13c0 <UART_CalculateChecksum+0x12>
    13ba:	0ff57513          	andi	a0,a0,255
    13be:	8082                	ret
    13c0:	00f60733          	add	a4,a2,a5
    13c4:	2318                	lbu	a4,0(a4)
    13c6:	0785                	addi	a5,a5,1
    13c8:	953a                	add	a0,a0,a4
    13ca:	0542                	slli	a0,a0,0x10
    13cc:	8141                	srli	a0,a0,0x10
    13ce:	b7d5                	j	13b2 <UART_CalculateChecksum+0x4>

000013d0 <UART_SendPacket.part.1>:
    13d0:	d47fe2ef          	jal	t0,116 <__riscv_save_4>
    13d4:	09018793          	addi	a5,gp,144 # 20000918 <tx_buffer>
    13d8:	faa00713          	li	a4,-86
    13dc:	a398                	sb	a4,0(a5)
    13de:	b388                	sb	a0,1(a5)
    13e0:	a3b0                	sb	a2,2(a5)
    13e2:	89aa                	mv	s3,a0
    13e4:	8a2e                	mv	s4,a1
    13e6:	8932                	mv	s2,a2
    13e8:	09018493          	addi	s1,gp,144 # 20000918 <tx_buffer>
    13ec:	440d                	li	s0,3
    13ee:	ca11                	beqz	a2,1402 <UART_SendPacket.part.1+0x32>
    13f0:	c989                	beqz	a1,1402 <UART_SendPacket.part.1+0x32>
    13f2:	00348513          	addi	a0,s1,3
    13f6:	00390413          	addi	s0,s2,3
    13fa:	3b5010ef          	jal	ra,2fae <memcpy>
    13fe:	0ff47413          	andi	s0,s0,255
    1402:	85ca                	mv	a1,s2
    1404:	854e                	mv	a0,s3
    1406:	8652                	mv	a2,s4
    1408:	375d                	jal	13ae <UART_CalculateChecksum>
    140a:	008487b3          	add	a5,s1,s0
    140e:	00240993          	addi	s3,s0,2
    1412:	0405                	addi	s0,s0,1
    1414:	0ff47413          	andi	s0,s0,255
    1418:	a388                	sb	a0,0(a5)
    141a:	9426                	add	s0,s0,s1
    141c:	05500793          	li	a5,85
    1420:	40004937          	lui	s2,0x40004
    1424:	a01c                	sb	a5,0(s0)
    1426:	0ff9f993          	andi	s3,s3,255
    142a:	4401                	li	s0,0
    142c:	40090913          	addi	s2,s2,1024 # 40004400 <_eusrstack+0x1ffff400>
    1430:	0ff47793          	andi	a5,s0,255
    1434:	0137e563          	bltu	a5,s3,143e <UART_SendPacket.part.1+0x6e>
    1438:	4505                	li	a0,1
    143a:	d11fe06f          	j	14a <__riscv_restore_4>
    143e:	008487b3          	add	a5,s1,s0
    1442:	238c                	lbu	a1,0(a5)
    1444:	854a                	mv	a0,s2
    1446:	4f6010ef          	jal	ra,293c <USART_SendData>
    144a:	08000593          	li	a1,128
    144e:	854a                	mv	a0,s2
    1450:	4fc010ef          	jal	ra,294c <USART_GetFlagStatus>
    1454:	d97d                	beqz	a0,144a <UART_SendPacket.part.1+0x7a>
    1456:	0405                	addi	s0,s0,1
    1458:	bfe1                	j	1430 <UART_SendPacket.part.1+0x60>

0000145a <UART_VerifyChecksum>:
    145a:	4791                	li	a5,4
    145c:	02b7f363          	bgeu	a5,a1,1482 <UART_VerifyChecksum+0x28>
    1460:	cd1fe2ef          	jal	t0,130 <__riscv_save_0>
    1464:	2124                	lbu	s1,2(a0)
    1466:	00350613          	addi	a2,a0,3
    146a:	842a                	mv	s0,a0
    146c:	3108                	lbu	a0,1(a0)
    146e:	85a6                	mv	a1,s1
    1470:	9426                	add	s0,s0,s1
    1472:	3f35                	jal	13ae <UART_CalculateChecksum>
    1474:	303c                	lbu	a5,3(s0)
    1476:	40a78533          	sub	a0,a5,a0
    147a:	00153513          	seqz	a0,a0
    147e:	cd7fe06f          	j	154 <__riscv_restore_0>
    1482:	4501                	li	a0,0
    1484:	8082                	ret

00001486 <UART_SendPacket>:
    1486:	03c00793          	li	a5,60
    148a:	00c7e763          	bltu	a5,a2,1498 <UART_SendPacket+0x12>
    148e:	ca3fe2ef          	jal	t0,130 <__riscv_save_0>
    1492:	3f3d                	jal	13d0 <UART_SendPacket.part.1>
    1494:	cc1fe06f          	j	154 <__riscv_restore_0>
    1498:	4501                	li	a0,0
    149a:	8082                	ret

0000149c <UART_SendSyncTimeAck>:
    149c:	c95fe2ef          	jal	t0,130 <__riscv_save_0>
    14a0:	1141                	addi	sp,sp,-16
    14a2:	8648                	sb	a0,12(sp)
    14a4:	006c                	addi	a1,sp,12
    14a6:	4605                	li	a2,1
    14a8:	08100513          	li	a0,129
    14ac:	3715                	jal	13d0 <UART_SendPacket.part.1>
    14ae:	0141                	addi	sp,sp,16
    14b0:	ca5fe06f          	j	154 <__riscv_restore_0>

000014b4 <UART_SendStatusAck>:
    14b4:	c7dfe2ef          	jal	t0,130 <__riscv_save_0>
    14b8:	211e                	lhu	a5,0(a0)
    14ba:	1141                	addi	sp,sp,-16
    14bc:	002c                	addi	a1,sp,8
    14be:	00879713          	slli	a4,a5,0x8
    14c2:	83a1                	srli	a5,a5,0x8
    14c4:	8fd9                	or	a5,a5,a4
    14c6:	847c                	sh	a5,8(sp)
    14c8:	213e                	lhu	a5,2(a0)
    14ca:	4621                	li	a2,8
    14cc:	00879713          	slli	a4,a5,0x8
    14d0:	83a1                	srli	a5,a5,0x8
    14d2:	8fd9                	or	a5,a5,a4
    14d4:	857c                	sh	a5,10(sp)
    14d6:	215e                	lhu	a5,4(a0)
    14d8:	00879713          	slli	a4,a5,0x8
    14dc:	83a1                	srli	a5,a5,0x8
    14de:	8fd9                	or	a5,a5,a4
    14e0:	867c                	sh	a5,12(sp)
    14e2:	217e                	lhu	a5,6(a0)
    14e4:	08200513          	li	a0,130
    14e8:	00879713          	slli	a4,a5,0x8
    14ec:	83a1                	srli	a5,a5,0x8
    14ee:	8fd9                	or	a5,a5,a4
    14f0:	877c                	sh	a5,14(sp)
    14f2:	3df9                	jal	13d0 <UART_SendPacket.part.1>
    14f4:	0141                	addi	sp,sp,16
    14f6:	c5ffe06f          	j	154 <__riscv_restore_0>

000014fa <UART_SendParamAck>:
    14fa:	c37fe2ef          	jal	t0,130 <__riscv_save_0>
    14fe:	1141                	addi	sp,sp,-16
    1500:	8648                	sb	a0,12(sp)
    1502:	006c                	addi	a1,sp,12
    1504:	4605                	li	a2,1
    1506:	08300513          	li	a0,131
    150a:	35d9                	jal	13d0 <UART_SendPacket.part.1>
    150c:	0141                	addi	sp,sp,16
    150e:	c47fe06f          	j	154 <__riscv_restore_0>

00001512 <UART_SendBloodNotify>:
    1512:	c1ffe2ef          	jal	t0,130 <__riscv_save_0>
    1516:	1141                	addi	sp,sp,-16
    1518:	8648                	sb	a0,12(sp)
    151a:	006c                	addi	a1,sp,12
    151c:	4605                	li	a2,1
    151e:	08400513          	li	a0,132
    1522:	357d                	jal	13d0 <UART_SendPacket.part.1>
    1524:	0141                	addi	sp,sp,16
    1526:	c2ffe06f          	j	154 <__riscv_restore_0>

0000152a <UART_SendResultAck>:
    152a:	c07fe2ef          	jal	t0,130 <__riscv_save_0>
    152e:	211e                	lhu	a5,0(a0)
    1530:	1101                	addi	sp,sp,-32
    1532:	004c                	addi	a1,sp,4
    1534:	00879713          	slli	a4,a5,0x8
    1538:	83a1                	srli	a5,a5,0x8
    153a:	8fd9                	or	a5,a5,a4
    153c:	827c                	sh	a5,4(sp)
    153e:	213e                	lhu	a5,2(a0)
    1540:	4669                	li	a2,26
    1542:	00879713          	slli	a4,a5,0x8
    1546:	83a1                	srli	a5,a5,0x8
    1548:	8fd9                	or	a5,a5,a4
    154a:	837c                	sh	a5,6(sp)
    154c:	215e                	lhu	a5,4(a0)
    154e:	00879713          	slli	a4,a5,0x8
    1552:	83a1                	srli	a5,a5,0x8
    1554:	8fd9                	or	a5,a5,a4
    1556:	847c                	sh	a5,8(sp)
    1558:	217e                	lhu	a5,6(a0)
    155a:	00879713          	slli	a4,a5,0x8
    155e:	83a1                	srli	a5,a5,0x8
    1560:	8fd9                	or	a5,a5,a4
    1562:	857c                	sh	a5,10(sp)
    1564:	251e                	lhu	a5,8(a0)
    1566:	00879713          	slli	a4,a5,0x8
    156a:	83a1                	srli	a5,a5,0x8
    156c:	8fd9                	or	a5,a5,a4
    156e:	867c                	sh	a5,12(sp)
    1570:	253e                	lhu	a5,10(a0)
    1572:	00879713          	slli	a4,a5,0x8
    1576:	83a1                	srli	a5,a5,0x8
    1578:	8fd9                	or	a5,a5,a4
    157a:	877c                	sh	a5,14(sp)
    157c:	255e                	lhu	a5,12(a0)
    157e:	00879713          	slli	a4,a5,0x8
    1582:	83a1                	srli	a5,a5,0x8
    1584:	8fd9                	or	a5,a5,a4
    1586:	80fc                	sh	a5,16(sp)
    1588:	257e                	lhu	a5,14(a0)
    158a:	00879713          	slli	a4,a5,0x8
    158e:	83a1                	srli	a5,a5,0x8
    1590:	8fd9                	or	a5,a5,a4
    1592:	81fc                	sh	a5,18(sp)
    1594:	291e                	lhu	a5,16(a0)
    1596:	00879713          	slli	a4,a5,0x8
    159a:	83a1                	srli	a5,a5,0x8
    159c:	8fd9                	or	a5,a5,a4
    159e:	82fc                	sh	a5,20(sp)
    15a0:	293e                	lhu	a5,18(a0)
    15a2:	00879713          	slli	a4,a5,0x8
    15a6:	83a1                	srli	a5,a5,0x8
    15a8:	8fd9                	or	a5,a5,a4
    15aa:	83fc                	sh	a5,22(sp)
    15ac:	295e                	lhu	a5,20(a0)
    15ae:	00879713          	slli	a4,a5,0x8
    15b2:	83a1                	srli	a5,a5,0x8
    15b4:	8fd9                	or	a5,a5,a4
    15b6:	84fc                	sh	a5,24(sp)
    15b8:	297e                	lhu	a5,22(a0)
    15ba:	00879713          	slli	a4,a5,0x8
    15be:	83a1                	srli	a5,a5,0x8
    15c0:	8fd9                	or	a5,a5,a4
    15c2:	85fc                	sh	a5,26(sp)
    15c4:	2d1e                	lhu	a5,24(a0)
    15c6:	08500513          	li	a0,133
    15ca:	00879713          	slli	a4,a5,0x8
    15ce:	83a1                	srli	a5,a5,0x8
    15d0:	8fd9                	or	a5,a5,a4
    15d2:	86fc                	sh	a5,28(sp)
    15d4:	3bf5                	jal	13d0 <UART_SendPacket.part.1>
    15d6:	6105                	addi	sp,sp,32
    15d8:	b7dfe06f          	j	154 <__riscv_restore_0>

000015dc <UART_SendRawDataAck>:
    15dc:	b55fe2ef          	jal	t0,130 <__riscv_save_0>
    15e0:	211e                	lhu	a5,0(a0)
    15e2:	7139                	addi	sp,sp,-64
    15e4:	00879713          	slli	a4,a5,0x8
    15e8:	83a1                	srli	a5,a5,0x8
    15ea:	8fd9                	or	a5,a5,a4
    15ec:	827c                	sh	a5,4(sp)
    15ee:	213e                	lhu	a5,2(a0)
    15f0:	00879713          	slli	a4,a5,0x8
    15f4:	83a1                	srli	a5,a5,0x8
    15f6:	8fd9                	or	a5,a5,a4
    15f8:	837c                	sh	a5,6(sp)
    15fa:	215e                	lhu	a5,4(a0)
    15fc:	00879713          	slli	a4,a5,0x8
    1600:	83a1                	srli	a5,a5,0x8
    1602:	8fd9                	or	a5,a5,a4
    1604:	847c                	sh	a5,8(sp)
    1606:	217e                	lhu	a5,6(a0)
    1608:	00879713          	slli	a4,a5,0x8
    160c:	83a1                	srli	a5,a5,0x8
    160e:	8fd9                	or	a5,a5,a4
    1610:	857c                	sh	a5,10(sp)
    1612:	251e                	lhu	a5,8(a0)
    1614:	00879713          	slli	a4,a5,0x8
    1618:	83a1                	srli	a5,a5,0x8
    161a:	8fd9                	or	a5,a5,a4
    161c:	867c                	sh	a5,12(sp)
    161e:	253e                	lhu	a5,10(a0)
    1620:	00879713          	slli	a4,a5,0x8
    1624:	83a1                	srli	a5,a5,0x8
    1626:	8fd9                	or	a5,a5,a4
    1628:	877c                	sh	a5,14(sp)
    162a:	255e                	lhu	a5,12(a0)
    162c:	00879713          	slli	a4,a5,0x8
    1630:	83a1                	srli	a5,a5,0x8
    1632:	8fd9                	or	a5,a5,a4
    1634:	80fc                	sh	a5,16(sp)
    1636:	257e                	lhu	a5,14(a0)
    1638:	00879713          	slli	a4,a5,0x8
    163c:	83a1                	srli	a5,a5,0x8
    163e:	8fd9                	or	a5,a5,a4
    1640:	81fc                	sh	a5,18(sp)
    1642:	291e                	lhu	a5,16(a0)
    1644:	00879713          	slli	a4,a5,0x8
    1648:	83a1                	srli	a5,a5,0x8
    164a:	8fd9                	or	a5,a5,a4
    164c:	82fc                	sh	a5,20(sp)
    164e:	293e                	lhu	a5,18(a0)
    1650:	00879713          	slli	a4,a5,0x8
    1654:	83a1                	srli	a5,a5,0x8
    1656:	8fd9                	or	a5,a5,a4
    1658:	83fc                	sh	a5,22(sp)
    165a:	295e                	lhu	a5,20(a0)
    165c:	00879713          	slli	a4,a5,0x8
    1660:	83a1                	srli	a5,a5,0x8
    1662:	8fd9                	or	a5,a5,a4
    1664:	84fc                	sh	a5,24(sp)
    1666:	297e                	lhu	a5,22(a0)
    1668:	00879713          	slli	a4,a5,0x8
    166c:	83a1                	srli	a5,a5,0x8
    166e:	8fd9                	or	a5,a5,a4
    1670:	85fc                	sh	a5,26(sp)
    1672:	2d1e                	lhu	a5,24(a0)
    1674:	00879713          	slli	a4,a5,0x8
    1678:	83a1                	srli	a5,a5,0x8
    167a:	8fd9                	or	a5,a5,a4
    167c:	86fc                	sh	a5,28(sp)
    167e:	2d3e                	lhu	a5,26(a0)
    1680:	00879713          	slli	a4,a5,0x8
    1684:	83a1                	srli	a5,a5,0x8
    1686:	8fd9                	or	a5,a5,a4
    1688:	87fc                	sh	a5,30(sp)
    168a:	2d5e                	lhu	a5,28(a0)
    168c:	00879713          	slli	a4,a5,0x8
    1690:	83a1                	srli	a5,a5,0x8
    1692:	8fd9                	or	a5,a5,a4
    1694:	02f11023          	sh	a5,32(sp)
    1698:	2d7e                	lhu	a5,30(a0)
    169a:	00879713          	slli	a4,a5,0x8
    169e:	83a1                	srli	a5,a5,0x8
    16a0:	8fd9                	or	a5,a5,a4
    16a2:	02f11123          	sh	a5,34(sp)
    16a6:	311e                	lhu	a5,32(a0)
    16a8:	00879713          	slli	a4,a5,0x8
    16ac:	83a1                	srli	a5,a5,0x8
    16ae:	8fd9                	or	a5,a5,a4
    16b0:	02f11223          	sh	a5,36(sp)
    16b4:	313e                	lhu	a5,34(a0)
    16b6:	00879713          	slli	a4,a5,0x8
    16ba:	83a1                	srli	a5,a5,0x8
    16bc:	8fd9                	or	a5,a5,a4
    16be:	02f11323          	sh	a5,38(sp)
    16c2:	315e                	lhu	a5,36(a0)
    16c4:	00879713          	slli	a4,a5,0x8
    16c8:	83a1                	srli	a5,a5,0x8
    16ca:	8fd9                	or	a5,a5,a4
    16cc:	02f11423          	sh	a5,40(sp)
    16d0:	317e                	lhu	a5,38(a0)
    16d2:	00879713          	slli	a4,a5,0x8
    16d6:	83a1                	srli	a5,a5,0x8
    16d8:	8fd9                	or	a5,a5,a4
    16da:	02f11523          	sh	a5,42(sp)
    16de:	03200713          	li	a4,50
    16e2:	02800793          	li	a5,40
    16e6:	00f50633          	add	a2,a0,a5
    16ea:	2210                	lbu	a2,0(a2)
    16ec:	0054                	addi	a3,sp,4
    16ee:	96be                	add	a3,a3,a5
    16f0:	a290                	sb	a2,0(a3)
    16f2:	0785                	addi	a5,a5,1
    16f4:	fee799e3          	bne	a5,a4,16e6 <UART_SendRawDataAck+0x10a>
    16f8:	03c00713          	li	a4,60
    16fc:	00f50633          	add	a2,a0,a5
    1700:	2210                	lbu	a2,0(a2)
    1702:	0054                	addi	a3,sp,4
    1704:	96be                	add	a3,a3,a5
    1706:	a290                	sb	a2,0(a3)
    1708:	0785                	addi	a5,a5,1
    170a:	fee799e3          	bne	a5,a4,16fc <UART_SendRawDataAck+0x120>
    170e:	004c                	addi	a1,sp,4
    1710:	03c00613          	li	a2,60
    1714:	08600513          	li	a0,134
    1718:	d6fff0ef          	jal	ra,1486 <UART_SendPacket>
    171c:	6121                	addi	sp,sp,64
    171e:	a37fe06f          	j	154 <__riscv_restore_0>

00001722 <UART_SendErrorAck>:
    1722:	a0ffe2ef          	jal	t0,130 <__riscv_save_0>
    1726:	1141                	addi	sp,sp,-16
    1728:	8648                	sb	a0,12(sp)
    172a:	86cc                	sb	a1,13(sp)
    172c:	4609                	li	a2,2
    172e:	006c                	addi	a1,sp,12
    1730:	08f00513          	li	a0,143
    1734:	c9dff0ef          	jal	ra,13d0 <UART_SendPacket.part.1>
    1738:	0141                	addi	sp,sp,16
    173a:	a1bfe06f          	j	154 <__riscv_restore_0>

0000173e <UART_ProcessSyncTime>:
    173e:	9cbfe2ef          	jal	t0,108 <__riscv_save_10>
    1742:	47b1                	li	a5,12
    1744:	00f58863          	beq	a1,a5,1754 <UART_ProcessSyncTime+0x16>
    1748:	45b1                	li	a1,12
    174a:	4505                	li	a0,1
    174c:	3fd9                	jal	1722 <UART_SendErrorAck>
    174e:	4501                	li	a0,0
    1750:	9f1fe06f          	j	140 <__riscv_restore_10>
    1754:	2104                	lbu	s1,0(a0)
    1756:	311c                	lbu	a5,1(a0)
    1758:	00254903          	lbu	s2,2(a0)
    175c:	04a2                	slli	s1,s1,0x8
    175e:	8cdd                	or	s1,s1,a5
    1760:	313c                	lbu	a5,3(a0)
    1762:	04c2                	slli	s1,s1,0x10
    1764:	84c1                	srai	s1,s1,0x10
    1766:	0922                	slli	s2,s2,0x8
    1768:	00f96933          	or	s2,s2,a5
    176c:	83048793          	addi	a5,s1,-2000
    1770:	07c2                	slli	a5,a5,0x10
    1772:	0942                	slli	s2,s2,0x10
    1774:	83c1                	srli	a5,a5,0x10
    1776:	06300713          	li	a4,99
    177a:	41095913          	srai	s2,s2,0x10
    177e:	fcf765e3          	bltu	a4,a5,1748 <UART_ProcessSyncTime+0xa>
    1782:	fff90793          	addi	a5,s2,-1
    1786:	07c2                	slli	a5,a5,0x10
    1788:	83c1                	srli	a5,a5,0x10
    178a:	472d                	li	a4,11
    178c:	faf76ee3          	bltu	a4,a5,1748 <UART_ProcessSyncTime+0xa>
    1790:	2140                	lbu	s0,4(a0)
    1792:	315c                	lbu	a5,5(a0)
    1794:	4779                	li	a4,30
    1796:	0422                	slli	s0,s0,0x8
    1798:	8c5d                	or	s0,s0,a5
    179a:	0442                	slli	s0,s0,0x10
    179c:	8441                	srai	s0,s0,0x10
    179e:	fff40793          	addi	a5,s0,-1
    17a2:	07c2                	slli	a5,a5,0x10
    17a4:	83c1                	srli	a5,a5,0x10
    17a6:	faf761e3          	bltu	a4,a5,1748 <UART_ProcessSyncTime+0xa>
    17aa:	217c                	lbu	a5,6(a0)
    17ac:	3178                	lbu	a4,7(a0)
    17ae:	07a2                	slli	a5,a5,0x8
    17b0:	8fd9                	or	a5,a5,a4
    17b2:	01079a13          	slli	s4,a5,0x10
    17b6:	475d                	li	a4,23
    17b8:	410a5a13          	srai	s4,s4,0x10
    17bc:	f8f766e3          	bltu	a4,a5,1748 <UART_ProcessSyncTime+0xa>
    17c0:	251c                	lbu	a5,8(a0)
    17c2:	3518                	lbu	a4,9(a0)
    17c4:	07a2                	slli	a5,a5,0x8
    17c6:	8fd9                	or	a5,a5,a4
    17c8:	01079a93          	slli	s5,a5,0x10
    17cc:	03b00713          	li	a4,59
    17d0:	410ada93          	srai	s5,s5,0x10
    17d4:	f6f76ae3          	bltu	a4,a5,1748 <UART_ProcessSyncTime+0xa>
    17d8:	2530                	lbu	a2,10(a0)
    17da:	353c                	lbu	a5,11(a0)
    17dc:	0622                	slli	a2,a2,0x8
    17de:	8e5d                	or	a2,a2,a5
    17e0:	01061b13          	slli	s6,a2,0x10
    17e4:	410b5b13          	srai	s6,s6,0x10
    17e8:	f6c760e3          	bltu	a4,a2,1748 <UART_ProcessSyncTime+0xa>
    17ec:	03048493          	addi	s1,s1,48
    17f0:	0ff4f493          	andi	s1,s1,255
    17f4:	0ff97913          	andi	s2,s2,255
    17f8:	0ff47413          	andi	s0,s0,255
    17fc:	0ffa7a13          	andi	s4,s4,255
    1800:	0ffafa93          	andi	s5,s5,255
    1804:	0ffb7b13          	andi	s6,s6,255
    1808:	87da                	mv	a5,s6
    180a:	8756                	mv	a4,s5
    180c:	86d2                	mv	a3,s4
    180e:	8622                	mv	a2,s0
    1810:	89ae                	mv	s3,a1
    1812:	8526                	mv	a0,s1
    1814:	85ca                	mv	a1,s2
    1816:	b4aff0ef          	jal	ra,b60 <PARAM_SetDateTime>
    181a:	8baa                	mv	s7,a0
    181c:	87da                	mv	a5,s6
    181e:	8756                	mv	a4,s5
    1820:	86d2                	mv	a3,s4
    1822:	8622                	mv	a2,s0
    1824:	85ca                	mv	a1,s2
    1826:	8526                	mv	a0,s1
    1828:	bfcff0ef          	jal	ra,c24 <RTC_SetTime>
    182c:	000b8363          	beqz	s7,1832 <UART_ProcessSyncTime+0xf4>
    1830:	4981                	li	s3,0
    1832:	854e                	mv	a0,s3
    1834:	c69ff0ef          	jal	ra,149c <UART_SendSyncTimeAck>
    1838:	4505                	li	a0,1
    183a:	bf19                	j	1750 <UART_ProcessSyncTime+0x12>

0000183c <UART_ProcessGetStatus>:
    183c:	8f5fe2ef          	jal	t0,130 <__riscv_save_0>
    1840:	1141                	addi	sp,sp,-16
    1842:	c981                	beqz	a1,1852 <UART_ProcessGetStatus+0x16>
    1844:	45b1                	li	a1,12
    1846:	4509                	li	a0,2
    1848:	3de9                	jal	1722 <UART_SendErrorAck>
    184a:	4501                	li	a0,0
    184c:	0141                	addi	sp,sp,16
    184e:	907fe06f          	j	154 <__riscv_restore_0>
    1852:	454d                	li	a0,19
    1854:	830ff0ef          	jal	ra,884 <PARAM_GetByte>
    1858:	8468                	sh	a0,8(sp)
    185a:	2119                	jal	1c60 <Check_Strip_Status>
    185c:	8568                	sh	a0,10(sp)
    185e:	26fd                	jal	1c4c <Get_Battery_Voltage>
    1860:	8668                	sh	a0,12(sp)
    1862:	2ee5                	jal	1c5a <Get_Temperature>
    1864:	8768                	sh	a0,14(sp)
    1866:	0028                	addi	a0,sp,8
    1868:	c4dff0ef          	jal	ra,14b4 <UART_SendStatusAck>
    186c:	4505                	li	a0,1
    186e:	bff9                	j	184c <UART_ProcessGetStatus+0x10>

00001870 <UART_ProcessSetParam>:
    1870:	8c1fe2ef          	jal	t0,130 <__riscv_save_0>
    1874:	4791                	li	a5,4
    1876:	00f58863          	beq	a1,a5,1886 <UART_ProcessSetParam+0x16>
    187a:	45b1                	li	a1,12
    187c:	450d                	li	a0,3
    187e:	3555                	jal	1722 <UART_SendErrorAck>
    1880:	4501                	li	a0,0
    1882:	8d3fe06f          	j	154 <__riscv_restore_0>
    1886:	213c                	lbu	a5,2(a0)
    1888:	3138                	lbu	a4,3(a0)
    188a:	07a2                	slli	a5,a5,0x8
    188c:	8fd9                	or	a5,a5,a4
    188e:	01079413          	slli	s0,a5,0x10
    1892:	4715                	li	a4,5
    1894:	8441                	srai	s0,s0,0x10
    1896:	fef762e3          	bltu	a4,a5,187a <UART_ProcessSetParam+0xa>
    189a:	211c                	lbu	a5,0(a0)
    189c:	310c                	lbu	a1,1(a0)
    189e:	451d                	li	a0,7
    18a0:	07a2                	slli	a5,a5,0x8
    18a2:	8ddd                	or	a1,a1,a5
    18a4:	824ff0ef          	jal	ra,8c8 <PARAM_SetWord>
    18a8:	0ff47593          	andi	a1,s0,255
    18ac:	4549                	li	a0,18
    18ae:	fedfe0ef          	jal	ra,89a <PARAM_SetByte>
    18b2:	4501                	li	a0,0
    18b4:	c47ff0ef          	jal	ra,14fa <UART_SendParamAck>
    18b8:	4505                	li	a0,1
    18ba:	b7e1                	j	1882 <UART_ProcessSetParam+0x12>

000018bc <UART_ProcessCheckBlood>:
    18bc:	875fe2ef          	jal	t0,130 <__riscv_save_0>
    18c0:	c981                	beqz	a1,18d0 <UART_ProcessCheckBlood+0x14>
    18c2:	45b1                	li	a1,12
    18c4:	4511                	li	a0,4
    18c6:	3db1                	jal	1722 <UART_SendErrorAck>
    18c8:	4401                	li	s0,0
    18ca:	8522                	mv	a0,s0
    18cc:	889fe06f          	j	154 <__riscv_restore_0>
    18d0:	842e                	mv	s0,a1
    18d2:	2679                	jal	1c60 <Check_Strip_Status>
    18d4:	85aa                	mv	a1,a0
    18d6:	c501                	beqz	a0,18de <UART_ProcessCheckBlood+0x22>
    18d8:	4511                	li	a0,4
    18da:	35a1                	jal	1722 <UART_SendErrorAck>
    18dc:	b7fd                	j	18ca <UART_ProcessCheckBlood+0xe>
    18de:	4705                	li	a4,1
    18e0:	82418493          	addi	s1,gp,-2012 # 200000ac <blood_detected>
    18e4:	82e187a3          	sb	a4,-2001(gp) # 200000b7 <test_in_progress>
    18e8:	00048023          	sb	zero,0(s1)
    18ec:	2ea5                	jal	1c64 <Check_Blood_Status>
    18ee:	4785                	li	a5,1
    18f0:	842a                	mv	s0,a0
    18f2:	00f51863          	bne	a0,a5,1902 <UART_ProcessCheckBlood+0x46>
    18f6:	a088                	sb	a0,0(s1)
    18f8:	8041c503          	lbu	a0,-2044(gp) # 2000008c <blood_countdown>
    18fc:	c17ff0ef          	jal	ra,1512 <UART_SendBloodNotify>
    1900:	b7e9                	j	18ca <UART_ProcessCheckBlood+0xe>
    1902:	45a1                	li	a1,8
    1904:	4511                	li	a0,4
    1906:	3d31                	jal	1722 <UART_SendErrorAck>
    1908:	4405                	li	s0,1
    190a:	b7c1                	j	18ca <UART_ProcessCheckBlood+0xe>

0000190c <UART_ProcessGetResult>:
    190c:	825fe2ef          	jal	t0,130 <__riscv_save_0>
    1910:	1101                	addi	sp,sp,-32
    1912:	c599                	beqz	a1,1920 <UART_ProcessGetResult+0x14>
    1914:	45b1                	li	a1,12
    1916:	4515                	li	a0,5
    1918:	e0bff0ef          	jal	ra,1722 <UART_SendErrorAck>
    191c:	4401                	li	s0,0
    191e:	a829                	j	1938 <UART_ProcessGetResult+0x2c>
    1920:	82f18493          	addi	s1,gp,-2001 # 200000b7 <test_in_progress>
    1924:	2080                	lbu	s0,0(s1)
    1926:	45a1                	li	a1,8
    1928:	c409                	beqz	s0,1932 <UART_ProcessGetResult+0x26>
    192a:	8241c403          	lbu	s0,-2012(gp) # 200000ac <blood_detected>
    192e:	e809                	bnez	s0,1940 <UART_ProcessGetResult+0x34>
    1930:	459d                	li	a1,7
    1932:	4515                	li	a0,5
    1934:	defff0ef          	jal	ra,1722 <UART_SendErrorAck>
    1938:	8522                	mv	a0,s0
    193a:	6105                	addi	sp,sp,32
    193c:	819fe06f          	j	154 <__riscv_restore_0>
    1940:	2691                	jal	1c84 <Perform_Test>
    1942:	85aa                	mv	a1,a0
    1944:	c519                	beqz	a0,1952 <UART_ProcessGetResult+0x46>
    1946:	4515                	li	a0,5
    1948:	ddbff0ef          	jal	ra,1722 <UART_SendErrorAck>
    194c:	00048023          	sb	zero,0(s1)
    1950:	b7f1                	j	191c <UART_ProcessGetResult+0x10>
    1952:	0048                	addi	a0,sp,4
    1954:	2e15                	jal	1c88 <Get_Test_Data>
    1956:	842a                	mv	s0,a0
    1958:	e901                	bnez	a0,1968 <UART_ProcessGetResult+0x5c>
    195a:	45a9                	li	a1,10
    195c:	4515                	li	a0,5
    195e:	dc5ff0ef          	jal	ra,1722 <UART_SendErrorAck>
    1962:	00048023          	sb	zero,0(s1)
    1966:	bfc9                	j	1938 <UART_ProcessGetResult+0x2c>
    1968:	4669                	li	a2,26
    196a:	004c                	addi	a1,sp,4
    196c:	03418513          	addi	a0,gp,52 # 200008bc <current_test_result>
    1970:	63e010ef          	jal	ra,2fae <memcpy>
    1974:	0048                	addi	a0,sp,4
    1976:	bb5ff0ef          	jal	ra,152a <UART_SendResultAck>
    197a:	4405                	li	s0,1
    197c:	00048023          	sb	zero,0(s1)
    1980:	bf65                	j	1938 <UART_ProcessGetResult+0x2c>

00001982 <UART_ProcessGetRawData>:
    1982:	faefe2ef          	jal	t0,130 <__riscv_save_0>
    1986:	7139                	addi	sp,sp,-64
    1988:	c991                	beqz	a1,199c <UART_ProcessGetRawData+0x1a>
    198a:	45b1                	li	a1,12
    198c:	4519                	li	a0,6
    198e:	d95ff0ef          	jal	ra,1722 <UART_SendErrorAck>
    1992:	4401                	li	s0,0
    1994:	8522                	mv	a0,s0
    1996:	6121                	addi	sp,sp,64
    1998:	fbcfe06f          	j	154 <__riscv_restore_0>
    199c:	0048                	addi	a0,sp,4
    199e:	2695                	jal	1d02 <Get_Raw_Test_Data>
    19a0:	842a                	mv	s0,a0
    19a2:	e511                	bnez	a0,19ae <UART_ProcessGetRawData+0x2c>
    19a4:	45a9                	li	a1,10
    19a6:	4519                	li	a0,6
    19a8:	d7bff0ef          	jal	ra,1722 <UART_SendErrorAck>
    19ac:	b7e5                	j	1994 <UART_ProcessGetRawData+0x12>
    19ae:	03c00613          	li	a2,60
    19b2:	004c                	addi	a1,sp,4
    19b4:	ff818513          	addi	a0,gp,-8 # 20000880 <current_raw_data>
    19b8:	5f6010ef          	jal	ra,2fae <memcpy>
    19bc:	0048                	addi	a0,sp,4
    19be:	c1fff0ef          	jal	ra,15dc <UART_SendRawDataAck>
    19c2:	4405                	li	s0,1
    19c4:	bfc1                	j	1994 <UART_ProcessGetRawData+0x12>

000019c6 <UART2_Receive_Byte_ISR>:
    19c6:	82e18613          	addi	a2,gp,-2002 # 200000b6 <state.5257>
    19ca:	2214                	lbu	a3,0(a2)
    19cc:	4595                	li	a1,5
    19ce:	82e18713          	addi	a4,gp,-2002 # 200000b6 <state.5257>
    19d2:	82c18793          	addi	a5,gp,-2004 # 200000b4 <rx_index>
    19d6:	0cd5ea63          	bltu	a1,a3,1aaa <UART2_Receive_Byte_ISR+0xe4>
    19da:	6611                	lui	a2,0x4
    19dc:	068a                	slli	a3,a3,0x2
    19de:	7b060613          	addi	a2,a2,1968 # 47b0 <CSWTCH.5+0x34c>
    19e2:	96b2                	add	a3,a3,a2
    19e4:	4294                	lw	a3,0(a3)
    19e6:	8682                	jr	a3
    19e8:	0aa00693          	li	a3,170
    19ec:	02d51463          	bne	a0,a3,1a14 <UART2_Receive_Byte_ISR+0x4e>
    19f0:	faa00613          	li	a2,-86
    19f4:	04c18823          	sb	a2,80(gp) # 200008d8 <rx_buffer>
    19f8:	4685                	li	a3,1
    19fa:	a396                	sh	a3,0(a5)
    19fc:	a314                	sb	a3,0(a4)
    19fe:	8082                	ret
    1a00:	2392                	lhu	a2,0(a5)
    1a02:	00160693          	addi	a3,a2,1
    1a06:	a396                	sh	a3,0(a5)
    1a08:	05018693          	addi	a3,gp,80 # 200008d8 <rx_buffer>
    1a0c:	96b2                	add	a3,a3,a2
    1a0e:	a288                	sb	a0,0(a3)
    1a10:	4689                	li	a3,2
    1a12:	a314                	sb	a3,0(a4)
    1a14:	2392                	lhu	a2,0(a5)
    1a16:	03f00693          	li	a3,63
    1a1a:	08c6fc63          	bgeu	a3,a2,1ab2 <UART2_Receive_Byte_ISR+0xec>
    1a1e:	00070023          	sb	zero,0(a4) # 9f0000 <_data_lma+0x9eb54c>
    1a22:	a071                	j	1aae <UART2_Receive_Byte_ISR+0xe8>
    1a24:	2392                	lhu	a2,0(a5)
    1a26:	00160693          	addi	a3,a2,1
    1a2a:	a396                	sh	a3,0(a5)
    1a2c:	05018693          	addi	a3,gp,80 # 200008d8 <rx_buffer>
    1a30:	96b2                	add	a3,a3,a2
    1a32:	a288                	sb	a0,0(a3)
    1a34:	82a18323          	sb	a0,-2010(gp) # 200000ae <dataLen.5258>
    1a38:	820182a3          	sb	zero,-2011(gp) # 200000ad <dataCnt.5259>
    1a3c:	468d                	li	a3,3
    1a3e:	f971                	bnez	a0,1a12 <UART2_Receive_Byte_ISR+0x4c>
    1a40:	4691                	li	a3,4
    1a42:	bfc1                	j	1a12 <UART2_Receive_Byte_ISR+0x4c>
    1a44:	2392                	lhu	a2,0(a5)
    1a46:	00160693          	addi	a3,a2,1
    1a4a:	a396                	sh	a3,0(a5)
    1a4c:	05018693          	addi	a3,gp,80 # 200008d8 <rx_buffer>
    1a50:	96b2                	add	a3,a3,a2
    1a52:	82518613          	addi	a2,gp,-2011 # 200000ad <dataCnt.5259>
    1a56:	a288                	sb	a0,0(a3)
    1a58:	2214                	lbu	a3,0(a2)
    1a5a:	0685                	addi	a3,a3,1
    1a5c:	0ff6f693          	andi	a3,a3,255
    1a60:	a214                	sb	a3,0(a2)
    1a62:	8261c603          	lbu	a2,-2010(gp) # 200000ae <dataLen.5258>
    1a66:	fcc6fde3          	bgeu	a3,a2,1a40 <UART2_Receive_Byte_ISR+0x7a>
    1a6a:	b76d                	j	1a14 <UART2_Receive_Byte_ISR+0x4e>
    1a6c:	2392                	lhu	a2,0(a5)
    1a6e:	00160693          	addi	a3,a2,1
    1a72:	a396                	sh	a3,0(a5)
    1a74:	05018693          	addi	a3,gp,80 # 200008d8 <rx_buffer>
    1a78:	96b2                	add	a3,a3,a2
    1a7a:	a288                	sb	a0,0(a3)
    1a7c:	4695                	li	a3,5
    1a7e:	bf51                	j	1a12 <UART2_Receive_Byte_ISR+0x4c>
    1a80:	05500693          	li	a3,85
    1a84:	02d51063          	bne	a0,a3,1aa4 <UART2_Receive_Byte_ISR+0xde>
    1a88:	2392                	lhu	a2,0(a5)
    1a8a:	00160693          	addi	a3,a2,1
    1a8e:	a396                	sh	a3,0(a5)
    1a90:	05018693          	addi	a3,gp,80 # 200008d8 <rx_buffer>
    1a94:	96b2                	add	a3,a3,a2
    1a96:	a288                	sb	a0,0(a3)
    1a98:	4605                	li	a2,1
    1a9a:	82c18523          	sb	a2,-2006(gp) # 200000b2 <packet_received>
    1a9e:	00070023          	sb	zero,0(a4)
    1aa2:	bf8d                	j	1a14 <UART2_Receive_Byte_ISR+0x4e>
    1aa4:	00079023          	sh	zero,0(a5) # 40021000 <_eusrstack+0x2001c000>
    1aa8:	bfdd                	j	1a9e <UART2_Receive_Byte_ISR+0xd8>
    1aaa:	00060023          	sb	zero,0(a2)
    1aae:	00079023          	sh	zero,0(a5)
    1ab2:	8082                	ret

00001ab4 <UART_ProcessStripInsertedCmd>:
    1ab4:	e7cfe2ef          	jal	t0,130 <__riscv_save_0>
    1ab8:	478d                	li	a5,3
    1aba:	1141                	addi	sp,sp,-16
    1abc:	02b7ff63          	bgeu	a5,a1,1afa <UART_ProcessStripInsertedCmd+0x46>
    1ac0:	2134                	lbu	a3,2(a0)
    1ac2:	3110                	lbu	a2,1(a0)
    1ac4:	2100                	lbu	s0,0(a0)
    1ac6:	313c                	lbu	a5,3(a0)
    1ac8:	06a2                	slli	a3,a3,0x8
    1aca:	85b2                	mv	a1,a2
    1acc:	8edd                	or	a3,a3,a5
    1ace:	8522                	mv	a0,s0
    1ad0:	82d19423          	sh	a3,-2008(gp) # 200000b0 <g_batteryVoltage>
    1ad4:	c636                	sw	a3,12(sp)
    1ad6:	c432                	sw	a2,8(sp)
    1ad8:	fccff0ef          	jal	ra,12a4 <STRIP_DETECT_SetPinStatus>
    1adc:	f22ff0ef          	jal	ra,11fe <STRIP_DETECT_HandleInsertedEvent>
    1ae0:	46b2                	lw	a3,12(sp)
    1ae2:	4622                	lw	a2,8(sp)
    1ae4:	00004537          	lui	a0,0x4
    1ae8:	85a2                	mv	a1,s0
    1aea:	7c850513          	addi	a0,a0,1992 # 47c8 <CSWTCH.5+0x364>
    1aee:	572010ef          	jal	ra,3060 <iprintf>
    1af2:	4505                	li	a0,1
    1af4:	0141                	addi	sp,sp,16
    1af6:	e5efe06f          	j	154 <__riscv_restore_0>
    1afa:	4785                	li	a5,1
    1afc:	02b7f463          	bgeu	a5,a1,1b24 <UART_ProcessStripInsertedCmd+0x70>
    1b00:	3110                	lbu	a2,1(a0)
    1b02:	2100                	lbu	s0,0(a0)
    1b04:	85b2                	mv	a1,a2
    1b06:	8522                	mv	a0,s0
    1b08:	c432                	sw	a2,8(sp)
    1b0a:	f9aff0ef          	jal	ra,12a4 <STRIP_DETECT_SetPinStatus>
    1b0e:	ef0ff0ef          	jal	ra,11fe <STRIP_DETECT_HandleInsertedEvent>
    1b12:	4622                	lw	a2,8(sp)
    1b14:	00005537          	lui	a0,0x5
    1b18:	85a2                	mv	a1,s0
    1b1a:	81850513          	addi	a0,a0,-2024 # 4818 <CSWTCH.5+0x3b4>
    1b1e:	542010ef          	jal	ra,3060 <iprintf>
    1b22:	bfc1                	j	1af2 <UART_ProcessStripInsertedCmd+0x3e>
    1b24:	00005537          	lui	a0,0x5
    1b28:	85450513          	addi	a0,a0,-1964 # 4854 <CSWTCH.5+0x3f0>
    1b2c:	648010ef          	jal	ra,3174 <puts>
    1b30:	eceff0ef          	jal	ra,11fe <STRIP_DETECT_HandleInsertedEvent>
    1b34:	bf7d                	j	1af2 <UART_ProcessStripInsertedCmd+0x3e>

00001b36 <UART_ProcessPacket>:
    1b36:	2114                	lbu	a3,0(a0)
    1b38:	0aa00713          	li	a4,170
    1b3c:	08e69663          	bne	a3,a4,1bc8 <UART_ProcessPacket+0x92>
    1b40:	df0fe2ef          	jal	t0,130 <__riscv_save_0>
    1b44:	00b507b3          	add	a5,a0,a1
    1b48:	fff7c703          	lbu	a4,-1(a5)
    1b4c:	05500793          	li	a5,85
    1b50:	842a                	mv	s0,a0
    1b52:	02f71b63          	bne	a4,a5,1b88 <UART_ProcessPacket+0x52>
    1b56:	905ff0ef          	jal	ra,145a <UART_VerifyChecksum>
    1b5a:	301c                	lbu	a5,1(s0)
    1b5c:	45b5                	li	a1,13
    1b5e:	c115                	beqz	a0,1b82 <UART_ProcessPacket+0x4c>
    1b60:	4711                	li	a4,4
    1b62:	202c                	lbu	a1,2(s0)
    1b64:	00340513          	addi	a0,s0,3
    1b68:	04e78763          	beq	a5,a4,1bb6 <UART_ProcessPacket+0x80>
    1b6c:	02f76063          	bltu	a4,a5,1b8c <UART_ProcessPacket+0x56>
    1b70:	4709                	li	a4,2
    1b72:	02e78c63          	beq	a5,a4,1baa <UART_ProcessPacket+0x74>
    1b76:	02f76d63          	bltu	a4,a5,1bb0 <UART_ProcessPacket+0x7a>
    1b7a:	4705                	li	a4,1
    1b7c:	02e78363          	beq	a5,a4,1ba2 <UART_ProcessPacket+0x6c>
    1b80:	45b9                	li	a1,14
    1b82:	853e                	mv	a0,a5
    1b84:	b9fff0ef          	jal	ra,1722 <UART_SendErrorAck>
    1b88:	4501                	li	a0,0
    1b8a:	a831                	j	1ba6 <UART_ProcessPacket+0x70>
    1b8c:	4719                	li	a4,6
    1b8e:	02e78a63          	beq	a5,a4,1bc2 <UART_ProcessPacket+0x8c>
    1b92:	02e7e563          	bltu	a5,a4,1bbc <UART_ProcessPacket+0x86>
    1b96:	02000713          	li	a4,32
    1b9a:	fee793e3          	bne	a5,a4,1b80 <UART_ProcessPacket+0x4a>
    1b9e:	3f19                	jal	1ab4 <UART_ProcessStripInsertedCmd>
    1ba0:	a019                	j	1ba6 <UART_ProcessPacket+0x70>
    1ba2:	b9dff0ef          	jal	ra,173e <UART_ProcessSyncTime>
    1ba6:	daefe06f          	j	154 <__riscv_restore_0>
    1baa:	c93ff0ef          	jal	ra,183c <UART_ProcessGetStatus>
    1bae:	bfe5                	j	1ba6 <UART_ProcessPacket+0x70>
    1bb0:	cc1ff0ef          	jal	ra,1870 <UART_ProcessSetParam>
    1bb4:	bfcd                	j	1ba6 <UART_ProcessPacket+0x70>
    1bb6:	d07ff0ef          	jal	ra,18bc <UART_ProcessCheckBlood>
    1bba:	b7f5                	j	1ba6 <UART_ProcessPacket+0x70>
    1bbc:	d51ff0ef          	jal	ra,190c <UART_ProcessGetResult>
    1bc0:	b7dd                	j	1ba6 <UART_ProcessPacket+0x70>
    1bc2:	dc1ff0ef          	jal	ra,1982 <UART_ProcessGetRawData>
    1bc6:	b7c5                	j	1ba6 <UART_ProcessPacket+0x70>
    1bc8:	4501                	li	a0,0
    1bca:	8082                	ret

00001bcc <UART_Protocol_Process>:
    1bcc:	d64fe2ef          	jal	t0,130 <__riscv_save_0>
    1bd0:	82a18413          	addi	s0,gp,-2006 # 200000b2 <packet_received>
    1bd4:	201c                	lbu	a5,0(s0)
    1bd6:	cb99                	beqz	a5,1bec <UART_Protocol_Process+0x20>
    1bd8:	82c18493          	addi	s1,gp,-2004 # 200000b4 <rx_index>
    1bdc:	208e                	lhu	a1,0(s1)
    1bde:	05018513          	addi	a0,gp,80 # 200008d8 <rx_buffer>
    1be2:	3f91                	jal	1b36 <UART_ProcessPacket>
    1be4:	00049023          	sh	zero,0(s1)
    1be8:	00040023          	sb	zero,0(s0)
    1bec:	82f1c783          	lbu	a5,-2001(gp) # 200000b7 <test_in_progress>
    1bf0:	cf91                	beqz	a5,1c0c <UART_Protocol_Process+0x40>
    1bf2:	82418413          	addi	s0,gp,-2012 # 200000ac <blood_detected>
    1bf6:	201c                	lbu	a5,0(s0)
    1bf8:	eb91                	bnez	a5,1c0c <UART_Protocol_Process+0x40>
    1bfa:	20ad                	jal	1c64 <Check_Blood_Status>
    1bfc:	4785                	li	a5,1
    1bfe:	00f51763          	bne	a0,a5,1c0c <UART_Protocol_Process+0x40>
    1c02:	a008                	sb	a0,0(s0)
    1c04:	8041c503          	lbu	a0,-2044(gp) # 2000008c <blood_countdown>
    1c08:	90bff0ef          	jal	ra,1512 <UART_SendBloodNotify>
    1c0c:	d48fe06f          	j	154 <__riscv_restore_0>

00001c10 <UART_SendStripTypeAck>:
    1c10:	d20fe2ef          	jal	t0,130 <__riscv_save_0>
    1c14:	82818413          	addi	s0,gp,-2008 # 200000b0 <g_batteryVoltage>
    1c18:	201e                	lhu	a5,0(s0)
    1c1a:	1141                	addi	sp,sp,-16
    1c1c:	8648                	sb	a0,12(sp)
    1c1e:	0087d713          	srli	a4,a5,0x8
    1c22:	86d8                	sb	a4,13(sp)
    1c24:	875c                	sb	a5,14(sp)
    1c26:	eb9fe0ef          	jal	ra,ade <StripType_GetName>
    1c2a:	2012                	lhu	a2,0(s0)
    1c2c:	85aa                	mv	a1,a0
    1c2e:	00005537          	lui	a0,0x5
    1c32:	8a050513          	addi	a0,a0,-1888 # 48a0 <CSWTCH.5+0x43c>
    1c36:	42a010ef          	jal	ra,3060 <iprintf>
    1c3a:	006c                	addi	a1,sp,12
    1c3c:	460d                	li	a2,3
    1c3e:	0a000513          	li	a0,160
    1c42:	f8eff0ef          	jal	ra,13d0 <UART_SendPacket.part.1>
    1c46:	0141                	addi	sp,sp,16
    1c48:	d0cfe06f          	j	154 <__riscv_restore_0>

00001c4c <Get_Battery_Voltage>:
    1c4c:	8281d503          	lhu	a0,-2008(gp) # 200000b0 <g_batteryVoltage>
    1c50:	e501                	bnez	a0,1c58 <Get_Battery_Voltage+0xc>
    1c52:	6505                	lui	a0,0x1
    1c54:	e1050513          	addi	a0,a0,-496 # e10 <RTC_Init+0x32>
    1c58:	8082                	ret

00001c5a <Get_Temperature>:
    1c5a:	10000513          	li	a0,256
    1c5e:	8082                	ret

00001c60 <Check_Strip_Status>:
    1c60:	4501                	li	a0,0
    1c62:	8082                	ret

00001c64 <Check_Blood_Status>:
    1c64:	83018713          	addi	a4,gp,-2000 # 200000b8 <counter.5045>
    1c68:	231c                	lbu	a5,0(a4)
    1c6a:	46a5                	li	a3,9
    1c6c:	0785                	addi	a5,a5,1
    1c6e:	0ff7f793          	andi	a5,a5,255
    1c72:	00f6e563          	bltu	a3,a5,1c7c <Check_Blood_Status+0x18>
    1c76:	a31c                	sb	a5,0(a4)
    1c78:	4501                	li	a0,0
    1c7a:	8082                	ret
    1c7c:	00070023          	sb	zero,0(a4)
    1c80:	4505                	li	a0,1
    1c82:	8082                	ret

00001c84 <Perform_Test>:
    1c84:	4501                	li	a0,0
    1c86:	8082                	ret

00001c88 <Get_Test_Data>:
    1c88:	c93d                	beqz	a0,1cfe <Get_Test_Data+0x76>
    1c8a:	ca6fe2ef          	jal	t0,130 <__riscv_save_0>
    1c8e:	07b00793          	li	a5,123
    1c92:	1141                	addi	sp,sp,-16
    1c94:	842a                	mv	s0,a0
    1c96:	a13e                	sh	a5,2(a0)
    1c98:	00051023          	sh	zero,0(a0)
    1c9c:	454d                	li	a0,19
    1c9e:	be7fe0ef          	jal	ra,884 <PARAM_GetByte>
    1ca2:	a04a                	sh	a0,4(s0)
    1ca4:	4549                	li	a0,18
    1ca6:	bdffe0ef          	jal	ra,884 <PARAM_GetByte>
    1caa:	a06a                	sh	a0,6(s0)
    1cac:	451d                	li	a0,7
    1cae:	bfffe0ef          	jal	ra,8ac <PARAM_GetWord>
    1cb2:	00e10713          	addi	a4,sp,14
    1cb6:	00d10693          	addi	a3,sp,13
    1cba:	0070                	addi	a2,sp,12
    1cbc:	00b10593          	addi	a1,sp,11
    1cc0:	a40a                	sh	a0,8(s0)
    1cc2:	00f10793          	addi	a5,sp,15
    1cc6:	00a10513          	addi	a0,sp,10
    1cca:	e55fe0ef          	jal	ra,b1e <PARAM_GetDateTime>
    1cce:	851c                	lbu	a5,10(sp)
    1cd0:	7d078793          	addi	a5,a5,2000
    1cd4:	a43e                	sh	a5,10(s0)
    1cd6:	859c                	lbu	a5,11(sp)
    1cd8:	a45e                	sh	a5,12(s0)
    1cda:	861c                	lbu	a5,12(sp)
    1cdc:	a47e                	sh	a5,14(s0)
    1cde:	869c                	lbu	a5,13(sp)
    1ce0:	a81e                	sh	a5,16(s0)
    1ce2:	871c                	lbu	a5,14(sp)
    1ce4:	a83e                	sh	a5,18(s0)
    1ce6:	879c                	lbu	a5,15(sp)
    1ce8:	a85e                	sh	a5,20(s0)
    1cea:	f63ff0ef          	jal	ra,1c4c <Get_Battery_Voltage>
    1cee:	10000793          	li	a5,256
    1cf2:	a86a                	sh	a0,22(s0)
    1cf4:	ac1e                	sh	a5,24(s0)
    1cf6:	4505                	li	a0,1
    1cf8:	0141                	addi	sp,sp,16
    1cfa:	c5afe06f          	j	154 <__riscv_restore_0>
    1cfe:	4501                	li	a0,0
    1d00:	8082                	ret

00001d02 <Get_Raw_Test_Data>:
    1d02:	c551                	beqz	a0,1d8e <Get_Raw_Test_Data+0x8c>
    1d04:	c2cfe2ef          	jal	t0,130 <__riscv_save_0>
    1d08:	1101                	addi	sp,sp,-32
    1d0a:	842a                	mv	s0,a0
    1d0c:	0048                	addi	a0,sp,4
    1d0e:	f7bff0ef          	jal	ra,1c88 <Get_Test_Data>
    1d12:	823c                	lhu	a5,4(sp)
    1d14:	7d000713          	li	a4,2000
    1d18:	ac7a                	sh	a4,30(s0)
    1d1a:	a01e                	sh	a5,0(s0)
    1d1c:	833c                	lhu	a5,6(sp)
    1d1e:	4515                	li	a0,5
    1d20:	000054b7          	lui	s1,0x5
    1d24:	a03e                	sh	a5,2(s0)
    1d26:	873c                	lhu	a5,14(sp)
    1d28:	a05e                	sh	a5,4(s0)
    1d2a:	80bc                	lhu	a5,16(sp)
    1d2c:	a07e                	sh	a5,6(s0)
    1d2e:	81bc                	lhu	a5,18(sp)
    1d30:	a41e                	sh	a5,8(s0)
    1d32:	82bc                	lhu	a5,20(sp)
    1d34:	a43e                	sh	a5,10(s0)
    1d36:	83bc                	lhu	a5,22(sp)
    1d38:	a45e                	sh	a5,12(s0)
    1d3a:	84bc                	lhu	a5,24(sp)
    1d3c:	a47e                	sh	a5,14(s0)
    1d3e:	843c                	lhu	a5,8(sp)
    1d40:	a81e                	sh	a5,16(s0)
    1d42:	853c                	lhu	a5,10(sp)
    1d44:	a83e                	sh	a5,18(s0)
    1d46:	85bc                	lhu	a5,26(sp)
    1d48:	a85e                	sh	a5,20(s0)
    1d4a:	86bc                	lhu	a5,28(sp)
    1d4c:	a87e                	sh	a5,22(s0)
    1d4e:	3e800793          	li	a5,1000
    1d52:	ac1e                	sh	a5,24(s0)
    1d54:	ac3e                	sh	a5,26(s0)
    1d56:	ac5e                	sh	a5,28(s0)
    1d58:	b01e                	sh	a5,32(s0)
    1d5a:	32000793          	li	a5,800
    1d5e:	b03e                	sh	a5,34(s0)
    1d60:	b4dfe0ef          	jal	ra,8ac <PARAM_GetWord>
    1d64:	863c                	lhu	a5,12(sp)
    1d66:	b04a                	sh	a0,36(s0)
    1d68:	8cc48593          	addi	a1,s1,-1844 # 48cc <CSWTCH.5+0x468>
    1d6c:	b07e                	sh	a5,38(s0)
    1d6e:	4629                	li	a2,10
    1d70:	02840513          	addi	a0,s0,40
    1d74:	23a010ef          	jal	ra,2fae <memcpy>
    1d78:	4629                	li	a2,10
    1d7a:	8cc48593          	addi	a1,s1,-1844
    1d7e:	03240513          	addi	a0,s0,50
    1d82:	22c010ef          	jal	ra,2fae <memcpy>
    1d86:	4505                	li	a0,1
    1d88:	6105                	addi	sp,sp,32
    1d8a:	bcafe06f          	j	154 <__riscv_restore_0>
    1d8e:	4501                	li	a0,0
    1d90:	8082                	ret

00001d92 <ADC1_2_IRQHandler>:
    1d92:	a001                	j	1d92 <ADC1_2_IRQHandler>

00001d94 <handle_reset>:
    1d94:	1ffff197          	auipc	gp,0x1ffff
    1d98:	af418193          	addi	gp,gp,-1292 # 20000888 <__global_pointer$>
    1d9c:	20003117          	auipc	sp,0x20003
    1da0:	26410113          	addi	sp,sp,612 # 20005000 <_eusrstack>
    1da4:	00003517          	auipc	a0,0x3
    1da8:	d1050513          	addi	a0,a0,-752 # 4ab4 <_data_lma>
    1dac:	1fffe597          	auipc	a1,0x1fffe
    1db0:	25458593          	addi	a1,a1,596 # 20000000 <_data_vma>
    1db4:	81818613          	addi	a2,gp,-2024 # 200000a0 <_edata>
    1db8:	00c5fa63          	bgeu	a1,a2,1dcc <handle_reset+0x38>
    1dbc:	00052283          	lw	t0,0(a0)
    1dc0:	0055a023          	sw	t0,0(a1)
    1dc4:	0511                	addi	a0,a0,4
    1dc6:	0591                	addi	a1,a1,4
    1dc8:	fec5eae3          	bltu	a1,a2,1dbc <handle_reset+0x28>
    1dcc:	81818513          	addi	a0,gp,-2024 # 200000a0 <_edata>
    1dd0:	0d418593          	addi	a1,gp,212 # 2000095c <_ebss>
    1dd4:	00b57763          	bgeu	a0,a1,1de2 <handle_reset+0x4e>
    1dd8:	00052023          	sw	zero,0(a0)
    1ddc:	0511                	addi	a0,a0,4
    1dde:	feb56de3          	bltu	a0,a1,1dd8 <handle_reset+0x44>
    1de2:	42fd                	li	t0,31
    1de4:	bc029073          	csrw	0xbc0,t0
    1de8:	428d                	li	t0,3
    1dea:	80429073          	csrw	0x804,t0
    1dee:	08800293          	li	t0,136
    1df2:	30029073          	csrw	mstatus,t0
    1df6:	ffffe297          	auipc	t0,0xffffe
    1dfa:	20e28293          	addi	t0,t0,526 # 4 <_einit>
    1dfe:	0032e293          	ori	t0,t0,3
    1e02:	30529073          	csrw	mtvec,t0
    1e06:	cacff0ef          	jal	ra,12b2 <SystemInit>
    1e0a:	fffff297          	auipc	t0,0xfffff
    1e0e:	81428293          	addi	t0,t0,-2028 # 61e <main>
    1e12:	34129073          	csrw	mepc,t0
    1e16:	30200073          	mret

00001e1a <ADC_DeInit>:
    1e1a:	b16fe2ef          	jal	t0,130 <__riscv_save_0>
    1e1e:	400127b7          	lui	a5,0x40012
    1e22:	40078793          	addi	a5,a5,1024 # 40012400 <_eusrstack+0x2000d400>
    1e26:	00f51c63          	bne	a0,a5,1e3e <ADC_DeInit+0x24>
    1e2a:	4585                	li	a1,1
    1e2c:	20000513          	li	a0,512
    1e30:	2739                	jal	253e <RCC_APB2PeriphResetCmd>
    1e32:	4581                	li	a1,0
    1e34:	20000513          	li	a0,512
    1e38:	2719                	jal	253e <RCC_APB2PeriphResetCmd>
    1e3a:	b1afe06f          	j	154 <__riscv_restore_0>
    1e3e:	400137b7          	lui	a5,0x40013
    1e42:	80078793          	addi	a5,a5,-2048 # 40012800 <_eusrstack+0x2000d800>
    1e46:	fef51ae3          	bne	a0,a5,1e3a <ADC_DeInit+0x20>
    1e4a:	4585                	li	a1,1
    1e4c:	40000513          	li	a0,1024
    1e50:	25fd                	jal	253e <RCC_APB2PeriphResetCmd>
    1e52:	4581                	li	a1,0
    1e54:	40000513          	li	a0,1024
    1e58:	b7c5                	j	1e38 <ADC_DeInit+0x1e>

00001e5a <ADC_Init>:
    1e5a:	415c                	lw	a5,4(a0)
    1e5c:	e0f10737          	lui	a4,0xe0f10
    1e60:	eff70713          	addi	a4,a4,-257 # e0f0feff <_eusrstack+0xc0f0aeff>
    1e64:	4d94                	lw	a3,24(a1)
    1e66:	8f7d                	and	a4,a4,a5
    1e68:	419c                	lw	a5,0(a1)
    1e6a:	8fd5                	or	a5,a5,a3
    1e6c:	4dd4                	lw	a3,28(a1)
    1e6e:	8fd5                	or	a5,a5,a3
    1e70:	41d4                	lw	a3,4(a1)
    1e72:	06a2                	slli	a3,a3,0x8
    1e74:	8fd5                	or	a5,a5,a3
    1e76:	8fd9                	or	a5,a5,a4
    1e78:	c15c                	sw	a5,4(a0)
    1e7a:	451c                	lw	a5,8(a0)
    1e7c:	fff1f737          	lui	a4,0xfff1f
    1e80:	7fd70713          	addi	a4,a4,2045 # fff1f7fd <_eusrstack+0xdff1a7fd>
    1e84:	45d4                	lw	a3,12(a1)
    1e86:	8f7d                	and	a4,a4,a5
    1e88:	499c                	lw	a5,16(a1)
    1e8a:	8fd5                	or	a5,a5,a3
    1e8c:	4594                	lw	a3,8(a1)
    1e8e:	0686                	slli	a3,a3,0x1
    1e90:	8fd5                	or	a5,a5,a3
    1e92:	8fd9                	or	a5,a5,a4
    1e94:	c51c                	sw	a5,8(a0)
    1e96:	555c                	lw	a5,44(a0)
    1e98:	ff100737          	lui	a4,0xff100
    1e9c:	177d                	addi	a4,a4,-1
    1e9e:	8f7d                	and	a4,a4,a5
    1ea0:	29dc                	lbu	a5,20(a1)
    1ea2:	17fd                	addi	a5,a5,-1
    1ea4:	0ff7f793          	andi	a5,a5,255
    1ea8:	07d2                	slli	a5,a5,0x14
    1eaa:	8fd9                	or	a5,a5,a4
    1eac:	d55c                	sw	a5,44(a0)
    1eae:	8082                	ret

00001eb0 <ADC_Cmd>:
    1eb0:	451c                	lw	a5,8(a0)
    1eb2:	c589                	beqz	a1,1ebc <ADC_Cmd+0xc>
    1eb4:	0017e793          	ori	a5,a5,1
    1eb8:	c51c                	sw	a5,8(a0)
    1eba:	8082                	ret
    1ebc:	9bf9                	andi	a5,a5,-2
    1ebe:	bfed                	j	1eb8 <ADC_Cmd+0x8>

00001ec0 <ADC_ResetCalibration>:
    1ec0:	451c                	lw	a5,8(a0)
    1ec2:	0087e793          	ori	a5,a5,8
    1ec6:	c51c                	sw	a5,8(a0)
    1ec8:	8082                	ret

00001eca <ADC_GetResetCalibrationStatus>:
    1eca:	4508                	lw	a0,8(a0)
    1ecc:	810d                	srli	a0,a0,0x3
    1ece:	8905                	andi	a0,a0,1
    1ed0:	8082                	ret

00001ed2 <ADC_StartCalibration>:
    1ed2:	451c                	lw	a5,8(a0)
    1ed4:	0047e793          	ori	a5,a5,4
    1ed8:	c51c                	sw	a5,8(a0)
    1eda:	8082                	ret

00001edc <ADC_GetCalibrationStatus>:
    1edc:	4508                	lw	a0,8(a0)
    1ede:	8109                	srli	a0,a0,0x2
    1ee0:	8905                	andi	a0,a0,1
    1ee2:	8082                	ret

00001ee4 <ADC_SoftwareStartConvCmd>:
    1ee4:	451c                	lw	a5,8(a0)
    1ee6:	c591                	beqz	a1,1ef2 <ADC_SoftwareStartConvCmd+0xe>
    1ee8:	00500737          	lui	a4,0x500
    1eec:	8fd9                	or	a5,a5,a4
    1eee:	c51c                	sw	a5,8(a0)
    1ef0:	8082                	ret
    1ef2:	ffb00737          	lui	a4,0xffb00
    1ef6:	177d                	addi	a4,a4,-1
    1ef8:	8ff9                	and	a5,a5,a4
    1efa:	bfd5                	j	1eee <ADC_SoftwareStartConvCmd+0xa>

00001efc <ADC_RegularChannelConfig>:
    1efc:	47a5                	li	a5,9
    1efe:	04b7f763          	bgeu	a5,a1,1f4c <ADC_RegularChannelConfig+0x50>
    1f02:	478d                	li	a5,3
    1f04:	ff658713          	addi	a4,a1,-10
    1f08:	02f70733          	mul	a4,a4,a5
    1f0c:	00c52803          	lw	a6,12(a0)
    1f10:	479d                	li	a5,7
    1f12:	00e797b3          	sll	a5,a5,a4
    1f16:	fff7c793          	not	a5,a5
    1f1a:	0107f7b3          	and	a5,a5,a6
    1f1e:	00e696b3          	sll	a3,a3,a4
    1f22:	8edd                	or	a3,a3,a5
    1f24:	c554                	sw	a3,12(a0)
    1f26:	4799                	li	a5,6
    1f28:	04c7e363          	bltu	a5,a2,1f6e <ADC_RegularChannelConfig+0x72>
    1f2c:	4795                	li	a5,5
    1f2e:	167d                	addi	a2,a2,-1
    1f30:	02f60633          	mul	a2,a2,a5
    1f34:	5958                	lw	a4,52(a0)
    1f36:	47fd                	li	a5,31
    1f38:	00c797b3          	sll	a5,a5,a2
    1f3c:	fff7c793          	not	a5,a5
    1f40:	8ff9                	and	a5,a5,a4
    1f42:	00c59633          	sll	a2,a1,a2
    1f46:	8e5d                	or	a2,a2,a5
    1f48:	d950                	sw	a2,52(a0)
    1f4a:	8082                	ret
    1f4c:	470d                	li	a4,3
    1f4e:	02e58733          	mul	a4,a1,a4
    1f52:	01052803          	lw	a6,16(a0)
    1f56:	479d                	li	a5,7
    1f58:	00e797b3          	sll	a5,a5,a4
    1f5c:	fff7c793          	not	a5,a5
    1f60:	0107f7b3          	and	a5,a5,a6
    1f64:	00e696b3          	sll	a3,a3,a4
    1f68:	8edd                	or	a3,a3,a5
    1f6a:	c914                	sw	a3,16(a0)
    1f6c:	bf6d                	j	1f26 <ADC_RegularChannelConfig+0x2a>
    1f6e:	47b1                	li	a5,12
    1f70:	02c7e263          	bltu	a5,a2,1f94 <ADC_RegularChannelConfig+0x98>
    1f74:	4795                	li	a5,5
    1f76:	1665                	addi	a2,a2,-7
    1f78:	02f60633          	mul	a2,a2,a5
    1f7c:	5918                	lw	a4,48(a0)
    1f7e:	47fd                	li	a5,31
    1f80:	00c797b3          	sll	a5,a5,a2
    1f84:	fff7c793          	not	a5,a5
    1f88:	8ff9                	and	a5,a5,a4
    1f8a:	00c59633          	sll	a2,a1,a2
    1f8e:	8e5d                	or	a2,a2,a5
    1f90:	d910                	sw	a2,48(a0)
    1f92:	8082                	ret
    1f94:	4795                	li	a5,5
    1f96:	164d                	addi	a2,a2,-13
    1f98:	02f60633          	mul	a2,a2,a5
    1f9c:	5558                	lw	a4,44(a0)
    1f9e:	47fd                	li	a5,31
    1fa0:	00c797b3          	sll	a5,a5,a2
    1fa4:	fff7c793          	not	a5,a5
    1fa8:	8ff9                	and	a5,a5,a4
    1faa:	00c595b3          	sll	a1,a1,a2
    1fae:	8ddd                	or	a1,a1,a5
    1fb0:	d54c                	sw	a1,44(a0)
    1fb2:	8082                	ret

00001fb4 <ADC_GetConversionValue>:
    1fb4:	4568                	lw	a0,76(a0)
    1fb6:	0542                	slli	a0,a0,0x10
    1fb8:	8141                	srli	a0,a0,0x10
    1fba:	8082                	ret

00001fbc <ADC_GetFlagStatus>:
    1fbc:	4108                	lw	a0,0(a0)
    1fbe:	8d6d                	and	a0,a0,a1
    1fc0:	00a03533          	snez	a0,a0
    1fc4:	8082                	ret

00001fc6 <BKP_DeInit>:
    1fc6:	96afe2ef          	jal	t0,130 <__riscv_save_0>
    1fca:	4505                	li	a0,1
    1fcc:	2b41                	jal	255c <RCC_BackupResetCmd>
    1fce:	4501                	li	a0,0
    1fd0:	2371                	jal	255c <RCC_BackupResetCmd>
    1fd2:	982fe06f          	j	154 <__riscv_restore_0>

00001fd6 <BKP_WriteBackupRegister>:
    1fd6:	1141                	addi	sp,sp,-16
    1fd8:	400077b7          	lui	a5,0x40007
    1fdc:	c602                	sw	zero,12(sp)
    1fde:	c0078793          	addi	a5,a5,-1024 # 40006c00 <_eusrstack+0x20001c00>
    1fe2:	c63e                	sw	a5,12(sp)
    1fe4:	47b2                	lw	a5,12(sp)
    1fe6:	953e                	add	a0,a0,a5
    1fe8:	c62a                	sw	a0,12(sp)
    1fea:	47b2                	lw	a5,12(sp)
    1fec:	c38c                	sw	a1,0(a5)
    1fee:	0141                	addi	sp,sp,16
    1ff0:	8082                	ret

00001ff2 <BKP_ReadBackupRegister>:
    1ff2:	1141                	addi	sp,sp,-16
    1ff4:	400077b7          	lui	a5,0x40007
    1ff8:	c602                	sw	zero,12(sp)
    1ffa:	c0078793          	addi	a5,a5,-1024 # 40006c00 <_eusrstack+0x20001c00>
    1ffe:	c63e                	sw	a5,12(sp)
    2000:	47b2                	lw	a5,12(sp)
    2002:	953e                	add	a0,a0,a5
    2004:	c62a                	sw	a0,12(sp)
    2006:	47b2                	lw	a5,12(sp)
    2008:	238a                	lhu	a0,0(a5)
    200a:	0141                	addi	sp,sp,16
    200c:	8082                	ret

0000200e <DMA_DeInit>:
    200e:	411c                	lw	a5,0(a0)
    2010:	6741                	lui	a4,0x10
    2012:	1779                	addi	a4,a4,-2
    2014:	8ff9                	and	a5,a5,a4
    2016:	c11c                	sw	a5,0(a0)
    2018:	00052023          	sw	zero,0(a0)
    201c:	00052223          	sw	zero,4(a0)
    2020:	00052423          	sw	zero,8(a0)
    2024:	400207b7          	lui	a5,0x40020
    2028:	00052623          	sw	zero,12(a0)
    202c:	00878713          	addi	a4,a5,8 # 40020008 <_eusrstack+0x2001b008>
    2030:	00e51663          	bne	a0,a4,203c <DMA_DeInit+0x2e>
    2034:	43d8                	lw	a4,4(a5)
    2036:	00f76713          	ori	a4,a4,15
    203a:	a801                	j	204a <DMA_DeInit+0x3c>
    203c:	01c78713          	addi	a4,a5,28
    2040:	00e51763          	bne	a0,a4,204e <DMA_DeInit+0x40>
    2044:	43d8                	lw	a4,4(a5)
    2046:	0f076713          	ori	a4,a4,240
    204a:	c3d8                	sw	a4,4(a5)
    204c:	a8b1                	j	20a8 <DMA_DeInit+0x9a>
    204e:	03078713          	addi	a4,a5,48
    2052:	00e51863          	bne	a0,a4,2062 <DMA_DeInit+0x54>
    2056:	43d8                	lw	a4,4(a5)
    2058:	6685                	lui	a3,0x1
    205a:	f0068693          	addi	a3,a3,-256 # f00 <RTC_Config+0x64>
    205e:	8f55                	or	a4,a4,a3
    2060:	b7ed                	j	204a <DMA_DeInit+0x3c>
    2062:	04478713          	addi	a4,a5,68
    2066:	00e51563          	bne	a0,a4,2070 <DMA_DeInit+0x62>
    206a:	43d8                	lw	a4,4(a5)
    206c:	66bd                	lui	a3,0xf
    206e:	bfc5                	j	205e <DMA_DeInit+0x50>
    2070:	05878713          	addi	a4,a5,88
    2074:	00e51663          	bne	a0,a4,2080 <DMA_DeInit+0x72>
    2078:	43d8                	lw	a4,4(a5)
    207a:	000f06b7          	lui	a3,0xf0
    207e:	b7c5                	j	205e <DMA_DeInit+0x50>
    2080:	06c78713          	addi	a4,a5,108
    2084:	00e51663          	bne	a0,a4,2090 <DMA_DeInit+0x82>
    2088:	43d8                	lw	a4,4(a5)
    208a:	00f006b7          	lui	a3,0xf00
    208e:	bfc1                	j	205e <DMA_DeInit+0x50>
    2090:	08078713          	addi	a4,a5,128
    2094:	00e51663          	bne	a0,a4,20a0 <DMA_DeInit+0x92>
    2098:	43d8                	lw	a4,4(a5)
    209a:	0f0006b7          	lui	a3,0xf000
    209e:	b7c1                	j	205e <DMA_DeInit+0x50>
    20a0:	09478713          	addi	a4,a5,148
    20a4:	f8e508e3          	beq	a0,a4,2034 <DMA_DeInit+0x26>
    20a8:	8082                	ret

000020aa <DMA_Init>:
    20aa:	411c                	lw	a5,0(a0)
    20ac:	7761                	lui	a4,0xffff8
    20ae:	073d                	addi	a4,a4,15
    20b0:	5194                	lw	a3,32(a1)
    20b2:	8f7d                	and	a4,a4,a5
    20b4:	459c                	lw	a5,8(a1)
    20b6:	8fd5                	or	a5,a5,a3
    20b8:	4994                	lw	a3,16(a1)
    20ba:	8fd5                	or	a5,a5,a3
    20bc:	49d4                	lw	a3,20(a1)
    20be:	8fd5                	or	a5,a5,a3
    20c0:	4d94                	lw	a3,24(a1)
    20c2:	8fd5                	or	a5,a5,a3
    20c4:	4dd4                	lw	a3,28(a1)
    20c6:	8fd5                	or	a5,a5,a3
    20c8:	51d4                	lw	a3,36(a1)
    20ca:	8fd5                	or	a5,a5,a3
    20cc:	5594                	lw	a3,40(a1)
    20ce:	8fd5                	or	a5,a5,a3
    20d0:	8fd9                	or	a5,a5,a4
    20d2:	c11c                	sw	a5,0(a0)
    20d4:	45dc                	lw	a5,12(a1)
    20d6:	c15c                	sw	a5,4(a0)
    20d8:	419c                	lw	a5,0(a1)
    20da:	c51c                	sw	a5,8(a0)
    20dc:	41dc                	lw	a5,4(a1)
    20de:	c55c                	sw	a5,12(a0)
    20e0:	8082                	ret

000020e2 <DMA_Cmd>:
    20e2:	411c                	lw	a5,0(a0)
    20e4:	c589                	beqz	a1,20ee <DMA_Cmd+0xc>
    20e6:	0017e793          	ori	a5,a5,1
    20ea:	c11c                	sw	a5,0(a0)
    20ec:	8082                	ret
    20ee:	6741                	lui	a4,0x10
    20f0:	1779                	addi	a4,a4,-2
    20f2:	8ff9                	and	a5,a5,a4
    20f4:	bfdd                	j	20ea <DMA_Cmd+0x8>

000020f6 <DMA_ITConfig>:
    20f6:	411c                	lw	a5,0(a0)
    20f8:	c601                	beqz	a2,2100 <DMA_ITConfig+0xa>
    20fa:	8ddd                	or	a1,a1,a5
    20fc:	c10c                	sw	a1,0(a0)
    20fe:	8082                	ret
    2100:	fff5c593          	not	a1,a1
    2104:	8dfd                	and	a1,a1,a5
    2106:	bfdd                	j	20fc <DMA_ITConfig+0x6>

00002108 <DMA_SetCurrDataCounter>:
    2108:	c14c                	sw	a1,4(a0)
    210a:	8082                	ret

0000210c <DMA_ClearITPendingBit>:
    210c:	400207b7          	lui	a5,0x40020
    2110:	c3c8                	sw	a0,4(a5)
    2112:	8082                	ret

00002114 <FLASH_Unlock>:
    2114:	456707b7          	lui	a5,0x45670
    2118:	40022737          	lui	a4,0x40022
    211c:	12378793          	addi	a5,a5,291 # 45670123 <_eusrstack+0x2566b123>
    2120:	c35c                	sw	a5,4(a4)
    2122:	cdef97b7          	lui	a5,0xcdef9
    2126:	9ab78793          	addi	a5,a5,-1621 # cdef89ab <_eusrstack+0xadef39ab>
    212a:	c35c                	sw	a5,4(a4)
    212c:	8082                	ret

0000212e <FLASH_Lock>:
    212e:	40022737          	lui	a4,0x40022
    2132:	4b1c                	lw	a5,16(a4)
    2134:	0807e793          	ori	a5,a5,128
    2138:	cb1c                	sw	a5,16(a4)
    213a:	8082                	ret

0000213c <FLASH_GetBank1Status>:
    213c:	40022737          	lui	a4,0x40022
    2140:	475c                	lw	a5,12(a4)
    2142:	4505                	li	a0,1
    2144:	8b85                	andi	a5,a5,1
    2146:	e791                	bnez	a5,2152 <FLASH_GetBank1Status+0x16>
    2148:	4748                	lw	a0,12(a4)
    214a:	8941                	andi	a0,a0,16
    214c:	00153513          	seqz	a0,a0
    2150:	050d                	addi	a0,a0,3
    2152:	8082                	ret

00002154 <FLASH_WaitForLastOperation>:
    2154:	fddfd2ef          	jal	t0,130 <__riscv_save_0>
    2158:	842a                	mv	s0,a0
    215a:	4485                	li	s1,1
    215c:	37c5                	jal	213c <FLASH_GetBank1Status>
    215e:	00951863          	bne	a0,s1,216e <FLASH_WaitForLastOperation+0x1a>
    2162:	e019                	bnez	s0,2168 <FLASH_WaitForLastOperation+0x14>
    2164:	4515                	li	a0,5
    2166:	a029                	j	2170 <FLASH_WaitForLastOperation+0x1c>
    2168:	3fd1                	jal	213c <FLASH_GetBank1Status>
    216a:	147d                	addi	s0,s0,-1
    216c:	bfcd                	j	215e <FLASH_WaitForLastOperation+0xa>
    216e:	d87d                	beqz	s0,2164 <FLASH_WaitForLastOperation+0x10>
    2170:	fe5fd06f          	j	154 <__riscv_restore_0>

00002174 <FLASH_ErasePage>:
    2174:	fbdfd2ef          	jal	t0,130 <__riscv_save_0>
    2178:	84aa                	mv	s1,a0
    217a:	000b0537          	lui	a0,0xb0
    217e:	fd7ff0ef          	jal	ra,2154 <FLASH_WaitForLastOperation>
    2182:	4791                	li	a5,4
    2184:	02f51463          	bne	a0,a5,21ac <FLASH_ErasePage+0x38>
    2188:	40022437          	lui	s0,0x40022
    218c:	481c                	lw	a5,16(s0)
    218e:	000b0537          	lui	a0,0xb0
    2192:	0027e793          	ori	a5,a5,2
    2196:	c81c                	sw	a5,16(s0)
    2198:	c844                	sw	s1,20(s0)
    219a:	481c                	lw	a5,16(s0)
    219c:	0407e793          	ori	a5,a5,64
    21a0:	c81c                	sw	a5,16(s0)
    21a2:	fb3ff0ef          	jal	ra,2154 <FLASH_WaitForLastOperation>
    21a6:	481c                	lw	a5,16(s0)
    21a8:	9bf5                	andi	a5,a5,-3
    21aa:	c81c                	sw	a5,16(s0)
    21ac:	fa9fd06f          	j	154 <__riscv_restore_0>

000021b0 <FLASH_ProgramHalfWord>:
    21b0:	f81fd2ef          	jal	t0,130 <__riscv_save_0>
    21b4:	1141                	addi	sp,sp,-16
    21b6:	84aa                	mv	s1,a0
    21b8:	6515                	lui	a0,0x5
    21ba:	c62e                	sw	a1,12(sp)
    21bc:	f99ff0ef          	jal	ra,2154 <FLASH_WaitForLastOperation>
    21c0:	4791                	li	a5,4
    21c2:	45b2                	lw	a1,12(sp)
    21c4:	00f51f63          	bne	a0,a5,21e2 <FLASH_ProgramHalfWord+0x32>
    21c8:	40022437          	lui	s0,0x40022
    21cc:	481c                	lw	a5,16(s0)
    21ce:	6515                	lui	a0,0x5
    21d0:	0017e793          	ori	a5,a5,1
    21d4:	c81c                	sw	a5,16(s0)
    21d6:	a08e                	sh	a1,0(s1)
    21d8:	f7dff0ef          	jal	ra,2154 <FLASH_WaitForLastOperation>
    21dc:	481c                	lw	a5,16(s0)
    21de:	9bf9                	andi	a5,a5,-2
    21e0:	c81c                	sw	a5,16(s0)
    21e2:	0141                	addi	sp,sp,16
    21e4:	f71fd06f          	j	154 <__riscv_restore_0>

000021e8 <GPIO_Init>:
    21e8:	459c                	lw	a5,8(a1)
    21ea:	0107f713          	andi	a4,a5,16
    21ee:	00f7f813          	andi	a6,a5,15
    21f2:	c701                	beqz	a4,21fa <GPIO_Init+0x12>
    21f4:	41d8                	lw	a4,4(a1)
    21f6:	00e86833          	or	a6,a6,a4
    21fa:	40022737          	lui	a4,0x40022
    21fe:	5b14                	lw	a3,48(a4)
    2200:	0f000737          	lui	a4,0xf000
    2204:	8f75                	and	a4,a4,a3
    2206:	eb4d                	bnez	a4,22b8 <GPIO_Init+0xd0>
    2208:	4685                	li	a3,1
    220a:	82d188a3          	sb	a3,-1999(gp) # 200000b9 <MCU_Version>
    220e:	40011737          	lui	a4,0x40011
    2212:	00e51563          	bne	a0,a4,221c <GPIO_Init+0x34>
    2216:	219a                	lhu	a4,0(a1)
    2218:	8335                	srli	a4,a4,0xd
    221a:	a19a                	sh	a4,0(a1)
    221c:	218e                	lhu	a1,0(a1)
    221e:	0ff5f713          	andi	a4,a1,255
    2222:	c339                	beqz	a4,2268 <GPIO_Init+0x80>
    2224:	4118                	lw	a4,0(a0)
    2226:	4681                	li	a3,0
    2228:	4e85                	li	t4,1
    222a:	4f3d                	li	t5,15
    222c:	02800f93          	li	t6,40
    2230:	04800293          	li	t0,72
    2234:	4e21                	li	t3,8
    2236:	00de9633          	sll	a2,t4,a3
    223a:	00c5f8b3          	and	a7,a1,a2
    223e:	03161163          	bne	a2,a7,2260 <GPIO_Init+0x78>
    2242:	00269893          	slli	a7,a3,0x2
    2246:	011f1333          	sll	t1,t5,a7
    224a:	fff34313          	not	t1,t1
    224e:	00e37733          	and	a4,t1,a4
    2252:	011818b3          	sll	a7,a6,a7
    2256:	00e8e733          	or	a4,a7,a4
    225a:	07f79763          	bne	a5,t6,22c8 <GPIO_Init+0xe0>
    225e:	c950                	sw	a2,20(a0)
    2260:	0685                	addi	a3,a3,1
    2262:	fdc69ae3          	bne	a3,t3,2236 <GPIO_Init+0x4e>
    2266:	c118                	sw	a4,0(a0)
    2268:	0ff00713          	li	a4,255
    226c:	04b77563          	bgeu	a4,a1,22b6 <GPIO_Init+0xce>
    2270:	4154                	lw	a3,4(a0)
    2272:	4621                	li	a2,8
    2274:	4e85                	li	t4,1
    2276:	4f3d                	li	t5,15
    2278:	02800f93          	li	t6,40
    227c:	04800293          	li	t0,72
    2280:	4e41                	li	t3,16
    2282:	00ce98b3          	sll	a7,t4,a2
    2286:	0115f733          	and	a4,a1,a7
    228a:	02e89263          	bne	a7,a4,22ae <GPIO_Init+0xc6>
    228e:	00261713          	slli	a4,a2,0x2
    2292:	1701                	addi	a4,a4,-32
    2294:	00ef1333          	sll	t1,t5,a4
    2298:	fff34313          	not	t1,t1
    229c:	00d376b3          	and	a3,t1,a3
    22a0:	00e81733          	sll	a4,a6,a4
    22a4:	8ed9                	or	a3,a3,a4
    22a6:	03f79563          	bne	a5,t6,22d0 <GPIO_Init+0xe8>
    22aa:	01152a23          	sw	a7,20(a0) # 5014 <_data_lma+0x560>
    22ae:	0605                	addi	a2,a2,1
    22b0:	fdc619e3          	bne	a2,t3,2282 <GPIO_Init+0x9a>
    22b4:	c154                	sw	a3,4(a0)
    22b6:	8082                	ret
    22b8:	40011737          	lui	a4,0x40011
    22bc:	f6e510e3          	bne	a0,a4,221c <GPIO_Init+0x34>
    22c0:	8311c703          	lbu	a4,-1999(gp) # 200000b9 <MCU_Version>
    22c4:	df21                	beqz	a4,221c <GPIO_Init+0x34>
    22c6:	bf81                	j	2216 <GPIO_Init+0x2e>
    22c8:	f8579ce3          	bne	a5,t0,2260 <GPIO_Init+0x78>
    22cc:	c910                	sw	a2,16(a0)
    22ce:	bf49                	j	2260 <GPIO_Init+0x78>
    22d0:	fc579fe3          	bne	a5,t0,22ae <GPIO_Init+0xc6>
    22d4:	01152823          	sw	a7,16(a0)
    22d8:	bfd9                	j	22ae <GPIO_Init+0xc6>

000022da <GPIO_SetBits>:
    22da:	400117b7          	lui	a5,0x40011
    22de:	00f51663          	bne	a0,a5,22ea <GPIO_SetBits+0x10>
    22e2:	8311c783          	lbu	a5,-1999(gp) # 200000b9 <MCU_Version>
    22e6:	c391                	beqz	a5,22ea <GPIO_SetBits+0x10>
    22e8:	81b5                	srli	a1,a1,0xd
    22ea:	c90c                	sw	a1,16(a0)
    22ec:	8082                	ret

000022ee <GPIO_ResetBits>:
    22ee:	400117b7          	lui	a5,0x40011
    22f2:	00f51663          	bne	a0,a5,22fe <GPIO_ResetBits+0x10>
    22f6:	8311c783          	lbu	a5,-1999(gp) # 200000b9 <MCU_Version>
    22fa:	c391                	beqz	a5,22fe <GPIO_ResetBits+0x10>
    22fc:	81b5                	srli	a1,a1,0xd
    22fe:	c94c                	sw	a1,20(a0)
    2300:	8082                	ret

00002302 <NVIC_PriorityGroupConfig>:
    2302:	82a1aa23          	sw	a0,-1996(gp) # 200000bc <NVIC_Priority_Group>
    2306:	8082                	ret

00002308 <NVIC_Init>:
    2308:	8341a703          	lw	a4,-1996(gp) # 200000bc <NVIC_Priority_Group>
    230c:	4785                	li	a5,1
    230e:	2114                	lbu	a3,0(a0)
    2310:	02f71063          	bne	a4,a5,2330 <NVIC_Init+0x28>
    2314:	311c                	lbu	a5,1(a0)
    2316:	02e79c63          	bne	a5,a4,234e <NVIC_Init+0x46>
    231a:	213c                	lbu	a5,2(a0)
    231c:	0796                	slli	a5,a5,0x5
    231e:	f807e793          	ori	a5,a5,-128
    2322:	e000e737          	lui	a4,0xe000e
    2326:	0ff7f793          	andi	a5,a5,255
    232a:	9736                	add	a4,a4,a3
    232c:	40f70023          	sb	a5,1024(a4) # e000e400 <_eusrstack+0xc0009400>
    2330:	4705                	li	a4,1
    2332:	0056d793          	srli	a5,a3,0x5
    2336:	00d71733          	sll	a4,a4,a3
    233a:	4154                	lw	a3,4(a0)
    233c:	ce89                	beqz	a3,2356 <NVIC_Init+0x4e>
    233e:	04078793          	addi	a5,a5,64 # 40011040 <_eusrstack+0x2000c040>
    2342:	078a                	slli	a5,a5,0x2
    2344:	e000e6b7          	lui	a3,0xe000e
    2348:	97b6                	add	a5,a5,a3
    234a:	c398                	sw	a4,0(a5)
    234c:	8082                	ret
    234e:	f3ed                	bnez	a5,2330 <NVIC_Init+0x28>
    2350:	213c                	lbu	a5,2(a0)
    2352:	0796                	slli	a5,a5,0x5
    2354:	b7f9                	j	2322 <NVIC_Init+0x1a>
    2356:	06078793          	addi	a5,a5,96
    235a:	b7e5                	j	2342 <NVIC_Init+0x3a>

0000235c <OPA_Init>:
    235c:	411c                	lw	a5,0(a0)
    235e:	400245b7          	lui	a1,0x40024
    2362:	8045a603          	lw	a2,-2044(a1) # 40023804 <_eusrstack+0x2001e804>
    2366:	00279693          	slli	a3,a5,0x2
    236a:	473d                	li	a4,15
    236c:	00d71733          	sll	a4,a4,a3
    2370:	fff74713          	not	a4,a4
    2374:	8f71                	and	a4,a4,a2
    2376:	415c                	lw	a5,4(a0)
    2378:	4510                	lw	a2,8(a0)
    237a:	078e                	slli	a5,a5,0x3
    237c:	060a                	slli	a2,a2,0x2
    237e:	8fd1                	or	a5,a5,a2
    2380:	4550                	lw	a2,12(a0)
    2382:	0606                	slli	a2,a2,0x1
    2384:	8fd1                	or	a5,a5,a2
    2386:	00d797b3          	sll	a5,a5,a3
    238a:	8fd9                	or	a5,a5,a4
    238c:	80f5a223          	sw	a5,-2044(a1)
    2390:	8082                	ret

00002392 <OPA_Cmd>:
    2392:	050a                	slli	a0,a0,0x2
    2394:	4785                	li	a5,1
    2396:	00a79533          	sll	a0,a5,a0
    239a:	00f59a63          	bne	a1,a5,23ae <OPA_Cmd+0x1c>
    239e:	400247b7          	lui	a5,0x40024
    23a2:	8047a703          	lw	a4,-2044(a5) # 40023804 <_eusrstack+0x2001e804>
    23a6:	8d59                	or	a0,a0,a4
    23a8:	80a7a223          	sw	a0,-2044(a5)
    23ac:	8082                	ret
    23ae:	400247b7          	lui	a5,0x40024
    23b2:	8047a703          	lw	a4,-2044(a5) # 40023804 <_eusrstack+0x2001e804>
    23b6:	fff54513          	not	a0,a0
    23ba:	8d79                	and	a0,a0,a4
    23bc:	b7f5                	j	23a8 <OPA_Cmd+0x16>

000023be <PWR_BackupAccessCmd>:
    23be:	40007737          	lui	a4,0x40007
    23c2:	431c                	lw	a5,0(a4)
    23c4:	c509                	beqz	a0,23ce <PWR_BackupAccessCmd+0x10>
    23c6:	1007e793          	ori	a5,a5,256
    23ca:	c31c                	sw	a5,0(a4)
    23cc:	8082                	ret
    23ce:	eff7f793          	andi	a5,a5,-257
    23d2:	bfe5                	j	23ca <PWR_BackupAccessCmd+0xc>

000023d4 <RCC_ADCCLKConfig>:
    23d4:	400216b7          	lui	a3,0x40021
    23d8:	42dc                	lw	a5,4(a3)
    23da:	7751                	lui	a4,0xffff4
    23dc:	177d                	addi	a4,a4,-1
    23de:	8ff9                	and	a5,a5,a4
    23e0:	8d5d                	or	a0,a0,a5
    23e2:	c2c8                	sw	a0,4(a3)
    23e4:	8082                	ret

000023e6 <RCC_LSICmd>:
    23e6:	40021737          	lui	a4,0x40021
    23ea:	535c                	lw	a5,36(a4)
    23ec:	c509                	beqz	a0,23f6 <RCC_LSICmd+0x10>
    23ee:	0017e793          	ori	a5,a5,1
    23f2:	d35c                	sw	a5,36(a4)
    23f4:	8082                	ret
    23f6:	9bf9                	andi	a5,a5,-2
    23f8:	bfed                	j	23f2 <RCC_LSICmd+0xc>

000023fa <RCC_RTCCLKConfig>:
    23fa:	40021737          	lui	a4,0x40021
    23fe:	531c                	lw	a5,32(a4)
    2400:	8d5d                	or	a0,a0,a5
    2402:	d308                	sw	a0,32(a4)
    2404:	8082                	ret

00002406 <RCC_RTCCLKCmd>:
    2406:	c901                	beqz	a0,2416 <RCC_RTCCLKCmd+0x10>
    2408:	40021737          	lui	a4,0x40021
    240c:	531c                	lw	a5,32(a4)
    240e:	66a1                	lui	a3,0x8
    2410:	8fd5                	or	a5,a5,a3
    2412:	d31c                	sw	a5,32(a4)
    2414:	8082                	ret
    2416:	400216b7          	lui	a3,0x40021
    241a:	529c                	lw	a5,32(a3)
    241c:	7761                	lui	a4,0xffff8
    241e:	177d                	addi	a4,a4,-1
    2420:	8ff9                	and	a5,a5,a4
    2422:	d29c                	sw	a5,32(a3)
    2424:	8082                	ret

00002426 <RCC_GetClocksFreq>:
    2426:	40021737          	lui	a4,0x40021
    242a:	435c                	lw	a5,4(a4)
    242c:	4691                	li	a3,4
    242e:	8bb1                	andi	a5,a5,12
    2430:	00d78563          	beq	a5,a3,243a <RCC_GetClocksFreq+0x14>
    2434:	46a1                	li	a3,8
    2436:	06d78263          	beq	a5,a3,249a <RCC_GetClocksFreq+0x74>
    243a:	007a17b7          	lui	a5,0x7a1
    243e:	20078793          	addi	a5,a5,512 # 7a1200 <_data_lma+0x79c74c>
    2442:	c11c                	sw	a5,0(a0)
    2444:	40021637          	lui	a2,0x40021
    2448:	425c                	lw	a5,4(a2)
    244a:	20000737          	lui	a4,0x20000
    244e:	01870713          	addi	a4,a4,24 # 20000018 <APBAHBPrescTable>
    2452:	8391                	srli	a5,a5,0x4
    2454:	8bbd                	andi	a5,a5,15
    2456:	97ba                	add	a5,a5,a4
    2458:	2394                	lbu	a3,0(a5)
    245a:	411c                	lw	a5,0(a0)
    245c:	00d7d7b3          	srl	a5,a5,a3
    2460:	c15c                	sw	a5,4(a0)
    2462:	4254                	lw	a3,4(a2)
    2464:	82a1                	srli	a3,a3,0x8
    2466:	8a9d                	andi	a3,a3,7
    2468:	96ba                	add	a3,a3,a4
    246a:	2294                	lbu	a3,0(a3)
    246c:	00d7d6b3          	srl	a3,a5,a3
    2470:	c514                	sw	a3,8(a0)
    2472:	4254                	lw	a3,4(a2)
    2474:	82ad                	srli	a3,a3,0xb
    2476:	8a9d                	andi	a3,a3,7
    2478:	9736                	add	a4,a4,a3
    247a:	2318                	lbu	a4,0(a4)
    247c:	00e7d7b3          	srl	a5,a5,a4
    2480:	c55c                	sw	a5,12(a0)
    2482:	4258                	lw	a4,4(a2)
    2484:	8339                	srli	a4,a4,0xe
    2486:	00377693          	andi	a3,a4,3
    248a:	80818713          	addi	a4,gp,-2040 # 20000090 <ADCPrescTable>
    248e:	9736                	add	a4,a4,a3
    2490:	2318                	lbu	a4,0(a4)
    2492:	02e7d7b3          	divu	a5,a5,a4
    2496:	c91c                	sw	a5,16(a0)
    2498:	8082                	ret
    249a:	435c                	lw	a5,4(a4)
    249c:	4358                	lw	a4,4(a4)
    249e:	66c1                	lui	a3,0x10
    24a0:	83c9                	srli	a5,a5,0x12
    24a2:	8bbd                	andi	a5,a5,15
    24a4:	8f75                	and	a4,a4,a3
    24a6:	0789                	addi	a5,a5,2
    24a8:	46c5                	li	a3,17
    24aa:	00d79363          	bne	a5,a3,24b0 <RCC_GetClocksFreq+0x8a>
    24ae:	47c9                	li	a5,18
    24b0:	ef01                	bnez	a4,24c8 <RCC_GetClocksFreq+0xa2>
    24b2:	40024737          	lui	a4,0x40024
    24b6:	80072703          	lw	a4,-2048(a4) # 40023800 <_eusrstack+0x2001e800>
    24ba:	8b41                	andi	a4,a4,16
    24bc:	cf09                	beqz	a4,24d6 <RCC_GetClocksFreq+0xb0>
    24be:	007a1737          	lui	a4,0x7a1
    24c2:	20070713          	addi	a4,a4,512 # 7a1200 <_data_lma+0x79c74c>
    24c6:	a821                	j	24de <RCC_GetClocksFreq+0xb8>
    24c8:	40021737          	lui	a4,0x40021
    24cc:	4358                	lw	a4,4(a4)
    24ce:	00e71693          	slli	a3,a4,0xe
    24d2:	fe06d6e3          	bgez	a3,24be <RCC_GetClocksFreq+0x98>
    24d6:	003d1737          	lui	a4,0x3d1
    24da:	90070713          	addi	a4,a4,-1792 # 3d0900 <_data_lma+0x3cbe4c>
    24de:	02e787b3          	mul	a5,a5,a4
    24e2:	b785                	j	2442 <RCC_GetClocksFreq+0x1c>

000024e4 <RCC_AHBPeriphClockCmd>:
    24e4:	c599                	beqz	a1,24f2 <RCC_AHBPeriphClockCmd+0xe>
    24e6:	40021737          	lui	a4,0x40021
    24ea:	4b5c                	lw	a5,20(a4)
    24ec:	8d5d                	or	a0,a0,a5
    24ee:	cb48                	sw	a0,20(a4)
    24f0:	8082                	ret
    24f2:	400217b7          	lui	a5,0x40021
    24f6:	4bd8                	lw	a4,20(a5)
    24f8:	fff54513          	not	a0,a0
    24fc:	8d79                	and	a0,a0,a4
    24fe:	cbc8                	sw	a0,20(a5)
    2500:	8082                	ret

00002502 <RCC_APB2PeriphClockCmd>:
    2502:	c599                	beqz	a1,2510 <RCC_APB2PeriphClockCmd+0xe>
    2504:	40021737          	lui	a4,0x40021
    2508:	4f1c                	lw	a5,24(a4)
    250a:	8d5d                	or	a0,a0,a5
    250c:	cf08                	sw	a0,24(a4)
    250e:	8082                	ret
    2510:	400217b7          	lui	a5,0x40021
    2514:	4f98                	lw	a4,24(a5)
    2516:	fff54513          	not	a0,a0
    251a:	8d79                	and	a0,a0,a4
    251c:	cf88                	sw	a0,24(a5)
    251e:	8082                	ret

00002520 <RCC_APB1PeriphClockCmd>:
    2520:	c599                	beqz	a1,252e <RCC_APB1PeriphClockCmd+0xe>
    2522:	40021737          	lui	a4,0x40021
    2526:	4f5c                	lw	a5,28(a4)
    2528:	8d5d                	or	a0,a0,a5
    252a:	cf48                	sw	a0,28(a4)
    252c:	8082                	ret
    252e:	400217b7          	lui	a5,0x40021
    2532:	4fd8                	lw	a4,28(a5)
    2534:	fff54513          	not	a0,a0
    2538:	8d79                	and	a0,a0,a4
    253a:	cfc8                	sw	a0,28(a5)
    253c:	8082                	ret

0000253e <RCC_APB2PeriphResetCmd>:
    253e:	c599                	beqz	a1,254c <RCC_APB2PeriphResetCmd+0xe>
    2540:	40021737          	lui	a4,0x40021
    2544:	475c                	lw	a5,12(a4)
    2546:	8d5d                	or	a0,a0,a5
    2548:	c748                	sw	a0,12(a4)
    254a:	8082                	ret
    254c:	400217b7          	lui	a5,0x40021
    2550:	47d8                	lw	a4,12(a5)
    2552:	fff54513          	not	a0,a0
    2556:	8d79                	and	a0,a0,a4
    2558:	c7c8                	sw	a0,12(a5)
    255a:	8082                	ret

0000255c <RCC_BackupResetCmd>:
    255c:	c901                	beqz	a0,256c <RCC_BackupResetCmd+0x10>
    255e:	40021737          	lui	a4,0x40021
    2562:	531c                	lw	a5,32(a4)
    2564:	66c1                	lui	a3,0x10
    2566:	8fd5                	or	a5,a5,a3
    2568:	d31c                	sw	a5,32(a4)
    256a:	8082                	ret
    256c:	400216b7          	lui	a3,0x40021
    2570:	529c                	lw	a5,32(a3)
    2572:	7741                	lui	a4,0xffff0
    2574:	177d                	addi	a4,a4,-1
    2576:	8ff9                	and	a5,a5,a4
    2578:	d29c                	sw	a5,32(a3)
    257a:	8082                	ret

0000257c <RCC_GetFlagStatus>:
    257c:	00555793          	srli	a5,a0,0x5
    2580:	4705                	li	a4,1
    2582:	00e79963          	bne	a5,a4,2594 <RCC_GetFlagStatus+0x18>
    2586:	400217b7          	lui	a5,0x40021
    258a:	439c                	lw	a5,0(a5)
    258c:	00a7d533          	srl	a0,a5,a0
    2590:	8905                	andi	a0,a0,1
    2592:	8082                	ret
    2594:	4709                	li	a4,2
    2596:	00e79663          	bne	a5,a4,25a2 <RCC_GetFlagStatus+0x26>
    259a:	400217b7          	lui	a5,0x40021
    259e:	539c                	lw	a5,32(a5)
    25a0:	b7f5                	j	258c <RCC_GetFlagStatus+0x10>
    25a2:	400217b7          	lui	a5,0x40021
    25a6:	53dc                	lw	a5,36(a5)
    25a8:	b7d5                	j	258c <RCC_GetFlagStatus+0x10>

000025aa <RTC_ITConfig>:
    25aa:	400037b7          	lui	a5,0x40003
    25ae:	8007d703          	lhu	a4,-2048(a5) # 40002800 <_eusrstack+0x1fffd800>
    25b2:	c589                	beqz	a1,25bc <RTC_ITConfig+0x12>
    25b4:	8d59                	or	a0,a0,a4
    25b6:	80a79023          	sh	a0,-2048(a5)
    25ba:	8082                	ret
    25bc:	fff54513          	not	a0,a0
    25c0:	8d79                	and	a0,a0,a4
    25c2:	bfd5                	j	25b6 <RTC_ITConfig+0xc>

000025c4 <RTC_EnterConfigMode>:
    25c4:	400037b7          	lui	a5,0x40003
    25c8:	8047d703          	lhu	a4,-2044(a5) # 40002804 <_eusrstack+0x1fffd804>
    25cc:	01076713          	ori	a4,a4,16
    25d0:	80e79223          	sh	a4,-2044(a5)
    25d4:	8082                	ret

000025d6 <RTC_ExitConfigMode>:
    25d6:	40003737          	lui	a4,0x40003
    25da:	80475783          	lhu	a5,-2044(a4) # 40002804 <_eusrstack+0x1fffd804>
    25de:	07c2                	slli	a5,a5,0x10
    25e0:	83c1                	srli	a5,a5,0x10
    25e2:	9bbd                	andi	a5,a5,-17
    25e4:	07c2                	slli	a5,a5,0x10
    25e6:	83c1                	srli	a5,a5,0x10
    25e8:	80f71223          	sh	a5,-2044(a4)
    25ec:	8082                	ret

000025ee <RTC_GetCounter>:
    25ee:	40003637          	lui	a2,0x40003
    25f2:	81865683          	lhu	a3,-2024(a2) # 40002818 <_eusrstack+0x1fffd818>
    25f6:	81865703          	lhu	a4,-2024(a2)
    25fa:	0742                	slli	a4,a4,0x10
    25fc:	8341                	srli	a4,a4,0x10
    25fe:	fed71ae3          	bne	a4,a3,25f2 <RTC_GetCounter+0x4>
    2602:	40003637          	lui	a2,0x40003
    2606:	81c65683          	lhu	a3,-2020(a2) # 4000281c <_eusrstack+0x1fffd81c>
    260a:	81c65783          	lhu	a5,-2020(a2)
    260e:	07c2                	slli	a5,a5,0x10
    2610:	83c1                	srli	a5,a5,0x10
    2612:	fed79ae3          	bne	a5,a3,2606 <RTC_GetCounter+0x18>
    2616:	400035b7          	lui	a1,0x40003
    261a:	8185d603          	lhu	a2,-2024(a1) # 40002818 <_eusrstack+0x1fffd818>
    261e:	8185d503          	lhu	a0,-2024(a1)
    2622:	0542                	slli	a0,a0,0x10
    2624:	8141                	srli	a0,a0,0x10
    2626:	fec51ae3          	bne	a0,a2,261a <RTC_GetCounter+0x2c>
    262a:	00a70c63          	beq	a4,a0,2642 <RTC_GetCounter+0x54>
    262e:	400036b7          	lui	a3,0x40003
    2632:	81c6d703          	lhu	a4,-2020(a3) # 4000281c <_eusrstack+0x1fffd81c>
    2636:	81c6d783          	lhu	a5,-2020(a3)
    263a:	07c2                	slli	a5,a5,0x10
    263c:	83c1                	srli	a5,a5,0x10
    263e:	fee79ae3          	bne	a5,a4,2632 <RTC_GetCounter+0x44>
    2642:	0542                	slli	a0,a0,0x10
    2644:	8d5d                	or	a0,a0,a5
    2646:	8082                	ret

00002648 <RTC_SetCounter>:
    2648:	ae9fd2ef          	jal	t0,130 <__riscv_save_0>
    264c:	1141                	addi	sp,sp,-16
    264e:	c62a                	sw	a0,12(sp)
    2650:	f75ff0ef          	jal	ra,25c4 <RTC_EnterConfigMode>
    2654:	4532                	lw	a0,12(sp)
    2656:	400037b7          	lui	a5,0x40003
    265a:	01055713          	srli	a4,a0,0x10
    265e:	0542                	slli	a0,a0,0x10
    2660:	80e79c23          	sh	a4,-2024(a5) # 40002818 <_eusrstack+0x1fffd818>
    2664:	8141                	srli	a0,a0,0x10
    2666:	80a79e23          	sh	a0,-2020(a5)
    266a:	f6dff0ef          	jal	ra,25d6 <RTC_ExitConfigMode>
    266e:	0141                	addi	sp,sp,16
    2670:	ae5fd06f          	j	154 <__riscv_restore_0>

00002674 <RTC_SetPrescaler>:
    2674:	abdfd2ef          	jal	t0,130 <__riscv_save_0>
    2678:	1141                	addi	sp,sp,-16
    267a:	c62a                	sw	a0,12(sp)
    267c:	f49ff0ef          	jal	ra,25c4 <RTC_EnterConfigMode>
    2680:	4532                	lw	a0,12(sp)
    2682:	400037b7          	lui	a5,0x40003
    2686:	01055713          	srli	a4,a0,0x10
    268a:	8b3d                	andi	a4,a4,15
    268c:	0542                	slli	a0,a0,0x10
    268e:	80e79423          	sh	a4,-2040(a5) # 40002808 <_eusrstack+0x1fffd808>
    2692:	8141                	srli	a0,a0,0x10
    2694:	80a79623          	sh	a0,-2036(a5)
    2698:	f3fff0ef          	jal	ra,25d6 <RTC_ExitConfigMode>
    269c:	0141                	addi	sp,sp,16
    269e:	ab7fd06f          	j	154 <__riscv_restore_0>

000026a2 <RTC_WaitForLastTask>:
    26a2:	40003737          	lui	a4,0x40003
    26a6:	80475783          	lhu	a5,-2044(a4) # 40002804 <_eusrstack+0x1fffd804>
    26aa:	0207f793          	andi	a5,a5,32
    26ae:	dfe5                	beqz	a5,26a6 <RTC_WaitForLastTask+0x4>
    26b0:	8082                	ret

000026b2 <RTC_WaitForSynchro>:
    26b2:	40003737          	lui	a4,0x40003
    26b6:	80475783          	lhu	a5,-2044(a4) # 40002804 <_eusrstack+0x1fffd804>
    26ba:	07c2                	slli	a5,a5,0x10
    26bc:	83c1                	srli	a5,a5,0x10
    26be:	9bdd                	andi	a5,a5,-9
    26c0:	07c2                	slli	a5,a5,0x10
    26c2:	83c1                	srli	a5,a5,0x10
    26c4:	80f71223          	sh	a5,-2044(a4)
    26c8:	40003737          	lui	a4,0x40003
    26cc:	80475783          	lhu	a5,-2044(a4) # 40002804 <_eusrstack+0x1fffd804>
    26d0:	8ba1                	andi	a5,a5,8
    26d2:	dfed                	beqz	a5,26cc <RTC_WaitForSynchro+0x1a>
    26d4:	8082                	ret

000026d6 <TIM_TimeBaseInit>:
    26d6:	211e                	lhu	a5,0(a0)
    26d8:	40013737          	lui	a4,0x40013
    26dc:	c0070713          	addi	a4,a4,-1024 # 40012c00 <_eusrstack+0x2000dc00>
    26e0:	07c2                	slli	a5,a5,0x10
    26e2:	83c1                	srli	a5,a5,0x10
    26e4:	02e50463          	beq	a0,a4,270c <TIM_TimeBaseInit+0x36>
    26e8:	40000737          	lui	a4,0x40000
    26ec:	02e50063          	beq	a0,a4,270c <TIM_TimeBaseInit+0x36>
    26f0:	40070713          	addi	a4,a4,1024 # 40000400 <_eusrstack+0x1fffb400>
    26f4:	00e50c63          	beq	a0,a4,270c <TIM_TimeBaseInit+0x36>
    26f8:	40001737          	lui	a4,0x40001
    26fc:	80070693          	addi	a3,a4,-2048 # 40000800 <_eusrstack+0x1fffb800>
    2700:	00d50663          	beq	a0,a3,270c <TIM_TimeBaseInit+0x36>
    2704:	c0070713          	addi	a4,a4,-1024
    2708:	00e51663          	bne	a0,a4,2714 <TIM_TimeBaseInit+0x3e>
    270c:	21ba                	lhu	a4,2(a1)
    270e:	f8f7f793          	andi	a5,a5,-113
    2712:	8fd9                	or	a5,a5,a4
    2714:	21fa                	lhu	a4,6(a1)
    2716:	cff7f793          	andi	a5,a5,-769
    271a:	07c2                	slli	a5,a5,0x10
    271c:	83c1                	srli	a5,a5,0x10
    271e:	8fd9                	or	a5,a5,a4
    2720:	a11e                	sh	a5,0(a0)
    2722:	21de                	lhu	a5,4(a1)
    2724:	b55e                	sh	a5,44(a0)
    2726:	219e                	lhu	a5,0(a1)
    2728:	b51e                	sh	a5,40(a0)
    272a:	400137b7          	lui	a5,0x40013
    272e:	c0078793          	addi	a5,a5,-1024 # 40012c00 <_eusrstack+0x2000dc00>
    2732:	00f51463          	bne	a0,a5,273a <TIM_TimeBaseInit+0x64>
    2736:	259c                	lbu	a5,8(a1)
    2738:	b91e                	sh	a5,48(a0)
    273a:	4785                	li	a5,1
    273c:	a95e                	sh	a5,20(a0)
    273e:	8082                	ret

00002740 <TIM_OC3Init>:
    2740:	311e                	lhu	a5,32(a0)
    2742:	0085d803          	lhu	a6,8(a1)
    2746:	07c2                	slli	a5,a5,0x10
    2748:	83c1                	srli	a5,a5,0x10
    274a:	eff7f793          	andi	a5,a5,-257
    274e:	07c2                	slli	a5,a5,0x10
    2750:	83c1                	srli	a5,a5,0x10
    2752:	b11e                	sh	a5,32(a0)
    2754:	311e                	lhu	a5,32(a0)
    2756:	2156                	lhu	a3,4(a0)
    2758:	2d5a                	lhu	a4,28(a0)
    275a:	07c2                	slli	a5,a5,0x10
    275c:	01069613          	slli	a2,a3,0x10
    2760:	0742                	slli	a4,a4,0x10
    2762:	2196                	lhu	a3,0(a1)
    2764:	8341                	srli	a4,a4,0x10
    2766:	f8c77713          	andi	a4,a4,-116
    276a:	8f55                	or	a4,a4,a3
    276c:	21b6                	lhu	a3,2(a1)
    276e:	83c1                	srli	a5,a5,0x10
    2770:	dff7f793          	andi	a5,a5,-513
    2774:	0106e6b3          	or	a3,a3,a6
    2778:	06a2                	slli	a3,a3,0x8
    277a:	8fd5                	or	a5,a5,a3
    277c:	400136b7          	lui	a3,0x40013
    2780:	07c2                	slli	a5,a5,0x10
    2782:	c0068693          	addi	a3,a3,-1024 # 40012c00 <_eusrstack+0x2000dc00>
    2786:	8241                	srli	a2,a2,0x10
    2788:	83c1                	srli	a5,a5,0x10
    278a:	02d51f63          	bne	a0,a3,27c8 <TIM_OC3Init+0x88>
    278e:	76fd                	lui	a3,0xfffff
    2790:	7ff68693          	addi	a3,a3,2047 # fffff7ff <_eusrstack+0xdfffa7ff>
    2794:	8ff5                	and	a5,a5,a3
    2796:	25b6                	lhu	a3,10(a1)
    2798:	00c5d803          	lhu	a6,12(a1)
    279c:	06a2                	slli	a3,a3,0x8
    279e:	8fd5                	or	a5,a5,a3
    27a0:	21d6                	lhu	a3,4(a1)
    27a2:	07c2                	slli	a5,a5,0x10
    27a4:	83c1                	srli	a5,a5,0x10
    27a6:	06a2                	slli	a3,a3,0x8
    27a8:	bff7f793          	andi	a5,a5,-1025
    27ac:	8fd5                	or	a5,a5,a3
    27ae:	76f5                	lui	a3,0xffffd
    27b0:	16fd                	addi	a3,a3,-1
    27b2:	8ef1                	and	a3,a3,a2
    27b4:	25f2                	lhu	a2,14(a1)
    27b6:	07c2                	slli	a5,a5,0x10
    27b8:	83c1                	srli	a5,a5,0x10
    27ba:	01066633          	or	a2,a2,a6
    27be:	0612                	slli	a2,a2,0x4
    27c0:	8ed1                	or	a3,a3,a2
    27c2:	01069613          	slli	a2,a3,0x10
    27c6:	8241                	srli	a2,a2,0x10
    27c8:	a152                	sh	a2,4(a0)
    27ca:	ad5a                	sh	a4,28(a0)
    27cc:	21fa                	lhu	a4,6(a1)
    27ce:	bd5a                	sh	a4,60(a0)
    27d0:	b11e                	sh	a5,32(a0)
    27d2:	8082                	ret

000027d4 <TIM_BDTRConfig>:
    27d4:	21ba                	lhu	a4,2(a1)
    27d6:	219e                	lhu	a5,0(a1)
    27d8:	8fd9                	or	a5,a5,a4
    27da:	21da                	lhu	a4,4(a1)
    27dc:	8fd9                	or	a5,a5,a4
    27de:	21fa                	lhu	a4,6(a1)
    27e0:	8fd9                	or	a5,a5,a4
    27e2:	259a                	lhu	a4,8(a1)
    27e4:	8fd9                	or	a5,a5,a4
    27e6:	25ba                	lhu	a4,10(a1)
    27e8:	8fd9                	or	a5,a5,a4
    27ea:	25da                	lhu	a4,12(a1)
    27ec:	8fd9                	or	a5,a5,a4
    27ee:	04f51223          	sh	a5,68(a0)
    27f2:	8082                	ret

000027f4 <TIM_Cmd>:
    27f4:	211e                	lhu	a5,0(a0)
    27f6:	c589                	beqz	a1,2800 <TIM_Cmd+0xc>
    27f8:	0017e793          	ori	a5,a5,1
    27fc:	a11e                	sh	a5,0(a0)
    27fe:	8082                	ret
    2800:	07c2                	slli	a5,a5,0x10
    2802:	83c1                	srli	a5,a5,0x10
    2804:	9bf9                	andi	a5,a5,-2
    2806:	07c2                	slli	a5,a5,0x10
    2808:	83c1                	srli	a5,a5,0x10
    280a:	bfcd                	j	27fc <TIM_Cmd+0x8>

0000280c <TIM_CtrlPWMOutputs>:
    280c:	04455783          	lhu	a5,68(a0)
    2810:	c591                	beqz	a1,281c <TIM_CtrlPWMOutputs+0x10>
    2812:	6721                	lui	a4,0x8
    2814:	8fd9                	or	a5,a5,a4
    2816:	04f51223          	sh	a5,68(a0)
    281a:	8082                	ret
    281c:	07c6                	slli	a5,a5,0x11
    281e:	83c5                	srli	a5,a5,0x11
    2820:	bfdd                	j	2816 <TIM_CtrlPWMOutputs+0xa>

00002822 <TIM_ARRPreloadConfig>:
    2822:	211e                	lhu	a5,0(a0)
    2824:	c589                	beqz	a1,282e <TIM_ARRPreloadConfig+0xc>
    2826:	0807e793          	ori	a5,a5,128
    282a:	a11e                	sh	a5,0(a0)
    282c:	8082                	ret
    282e:	07c2                	slli	a5,a5,0x10
    2830:	83c1                	srli	a5,a5,0x10
    2832:	f7f7f793          	andi	a5,a5,-129
    2836:	07c2                	slli	a5,a5,0x10
    2838:	83c1                	srli	a5,a5,0x10
    283a:	bfc5                	j	282a <TIM_ARRPreloadConfig+0x8>

0000283c <TIM_OC3PreloadConfig>:
    283c:	2d5e                	lhu	a5,28(a0)
    283e:	07c2                	slli	a5,a5,0x10
    2840:	83c1                	srli	a5,a5,0x10
    2842:	9bdd                	andi	a5,a5,-9
    2844:	8ddd                	or	a1,a1,a5
    2846:	ad4e                	sh	a1,28(a0)
    2848:	8082                	ret

0000284a <TIM_SetCompare3>:
    284a:	bd4e                	sh	a1,60(a0)
    284c:	8082                	ret

0000284e <USART_Init>:
    284e:	8e3fd2ef          	jal	t0,130 <__riscv_save_0>
    2852:	2916                	lhu	a3,16(a0)
    2854:	77f5                	lui	a5,0xffffd
    2856:	17fd                	addi	a5,a5,-1
    2858:	8ff5                	and	a5,a5,a3
    285a:	21f6                	lhu	a3,6(a1)
    285c:	25da                	lhu	a4,12(a1)
    285e:	7179                	addi	sp,sp,-48
    2860:	8fd5                	or	a5,a5,a3
    2862:	a91e                	sh	a5,16(a0)
    2864:	2556                	lhu	a3,12(a0)
    2866:	77fd                	lui	a5,0xfffff
    2868:	9f378793          	addi	a5,a5,-1549 # ffffe9f3 <_eusrstack+0xdfff99f3>
    286c:	8ff5                	and	a5,a5,a3
    286e:	21d6                	lhu	a3,4(a1)
    2870:	842a                	mv	s0,a0
    2872:	c62e                	sw	a1,12(sp)
    2874:	8fd5                	or	a5,a5,a3
    2876:	2596                	lhu	a3,8(a1)
    2878:	8fd5                	or	a5,a5,a3
    287a:	25b6                	lhu	a3,10(a1)
    287c:	8fd5                	or	a5,a5,a3
    287e:	a55e                	sh	a5,12(a0)
    2880:	295e                	lhu	a5,20(a0)
    2882:	07c2                	slli	a5,a5,0x10
    2884:	83c1                	srli	a5,a5,0x10
    2886:	cff7f793          	andi	a5,a5,-769
    288a:	8fd9                	or	a5,a5,a4
    288c:	a95e                	sh	a5,20(a0)
    288e:	0868                	addi	a0,sp,28
    2890:	b97ff0ef          	jal	ra,2426 <RCC_GetClocksFreq>
    2894:	400147b7          	lui	a5,0x40014
    2898:	80078793          	addi	a5,a5,-2048 # 40013800 <_eusrstack+0x2000e800>
    289c:	45b2                	lw	a1,12(sp)
    289e:	02f41e63          	bne	s0,a5,28da <USART_Init+0x8c>
    28a2:	57a2                	lw	a5,40(sp)
    28a4:	4765                	li	a4,25
    28a6:	02e787b3          	mul	a5,a5,a4
    28aa:	4198                	lw	a4,0(a1)
    28ac:	06400693          	li	a3,100
    28b0:	070a                	slli	a4,a4,0x2
    28b2:	02e7d7b3          	divu	a5,a5,a4
    28b6:	02d7d733          	divu	a4,a5,a3
    28ba:	02d7f7b3          	remu	a5,a5,a3
    28be:	0712                	slli	a4,a4,0x4
    28c0:	0792                	slli	a5,a5,0x4
    28c2:	03278793          	addi	a5,a5,50
    28c6:	02d7d7b3          	divu	a5,a5,a3
    28ca:	8bbd                	andi	a5,a5,15
    28cc:	8fd9                	or	a5,a5,a4
    28ce:	07c2                	slli	a5,a5,0x10
    28d0:	83c1                	srli	a5,a5,0x10
    28d2:	a41e                	sh	a5,8(s0)
    28d4:	6145                	addi	sp,sp,48
    28d6:	87ffd06f          	j	154 <__riscv_restore_0>
    28da:	5792                	lw	a5,36(sp)
    28dc:	b7e1                	j	28a4 <USART_Init+0x56>

000028de <USART_Cmd>:
    28de:	c591                	beqz	a1,28ea <USART_Cmd+0xc>
    28e0:	255e                	lhu	a5,12(a0)
    28e2:	6709                	lui	a4,0x2
    28e4:	8fd9                	or	a5,a5,a4
    28e6:	a55e                	sh	a5,12(a0)
    28e8:	8082                	ret
    28ea:	255a                	lhu	a4,12(a0)
    28ec:	77f9                	lui	a5,0xffffe
    28ee:	17fd                	addi	a5,a5,-1
    28f0:	8ff9                	and	a5,a5,a4
    28f2:	bfd5                	j	28e6 <USART_Cmd+0x8>

000028f4 <USART_ITConfig>:
    28f4:	0ff5f713          	andi	a4,a1,255
    28f8:	4785                	li	a5,1
    28fa:	8315                	srli	a4,a4,0x5
    28fc:	00b795b3          	sll	a1,a5,a1
    2900:	00f71963          	bne	a4,a5,2912 <USART_ITConfig+0x1e>
    2904:	00c50793          	addi	a5,a0,12
    2908:	4398                	lw	a4,0(a5)
    290a:	ce01                	beqz	a2,2922 <USART_ITConfig+0x2e>
    290c:	8dd9                	or	a1,a1,a4
    290e:	c38c                	sw	a1,0(a5)
    2910:	8082                	ret
    2912:	4689                	li	a3,2
    2914:	01450793          	addi	a5,a0,20
    2918:	fed718e3          	bne	a4,a3,2908 <USART_ITConfig+0x14>
    291c:	01050793          	addi	a5,a0,16
    2920:	b7e5                	j	2908 <USART_ITConfig+0x14>
    2922:	fff5c593          	not	a1,a1
    2926:	8df9                	and	a1,a1,a4
    2928:	b7dd                	j	290e <USART_ITConfig+0x1a>

0000292a <USART_DMACmd>:
    292a:	295e                	lhu	a5,20(a0)
    292c:	c601                	beqz	a2,2934 <USART_DMACmd+0xa>
    292e:	8ddd                	or	a1,a1,a5
    2930:	a94e                	sh	a1,20(a0)
    2932:	8082                	ret
    2934:	fff5c593          	not	a1,a1
    2938:	8dfd                	and	a1,a1,a5
    293a:	bfdd                	j	2930 <USART_DMACmd+0x6>

0000293c <USART_SendData>:
    293c:	1ff5f593          	andi	a1,a1,511
    2940:	a14e                	sh	a1,4(a0)
    2942:	8082                	ret

00002944 <USART_ReceiveData>:
    2944:	214a                	lhu	a0,4(a0)
    2946:	1ff57513          	andi	a0,a0,511
    294a:	8082                	ret

0000294c <USART_GetFlagStatus>:
    294c:	210a                	lhu	a0,0(a0)
    294e:	8d6d                	and	a0,a0,a1
    2950:	00a03533          	snez	a0,a0
    2954:	8082                	ret

00002956 <USART_GetITStatus>:
    2956:	0ff5f713          	andi	a4,a1,255
    295a:	4685                	li	a3,1
    295c:	8315                	srli	a4,a4,0x5
    295e:	00b697b3          	sll	a5,a3,a1
    2962:	02d71163          	bne	a4,a3,2984 <USART_GetITStatus+0x2e>
    2966:	255a                	lhu	a4,12(a0)
    2968:	8ff9                	and	a5,a5,a4
    296a:	211a                	lhu	a4,0(a0)
    296c:	4501                	li	a0,0
    296e:	0742                	slli	a4,a4,0x10
    2970:	8341                	srli	a4,a4,0x10
    2972:	cb81                	beqz	a5,2982 <USART_GetITStatus+0x2c>
    2974:	4505                	li	a0,1
    2976:	81a1                	srli	a1,a1,0x8
    2978:	00b515b3          	sll	a1,a0,a1
    297c:	8f6d                	and	a4,a4,a1
    297e:	00e03533          	snez	a0,a4
    2982:	8082                	ret
    2984:	4689                	li	a3,2
    2986:	00d71463          	bne	a4,a3,298e <USART_GetITStatus+0x38>
    298a:	291a                	lhu	a4,16(a0)
    298c:	bff1                	j	2968 <USART_GetITStatus+0x12>
    298e:	295a                	lhu	a4,20(a0)
    2990:	bfe1                	j	2968 <USART_GetITStatus+0x12>

00002992 <Delay_Init>:
    2992:	200007b7          	lui	a5,0x20000
    2996:	0887a783          	lw	a5,136(a5) # 20000088 <SystemCoreClock>
    299a:	007a1737          	lui	a4,0x7a1
    299e:	20070713          	addi	a4,a4,512 # 7a1200 <_data_lma+0x79c74c>
    29a2:	02e7d7b3          	divu	a5,a5,a4
    29a6:	0ff7f793          	andi	a5,a5,255
    29aa:	82f18d23          	sb	a5,-1990(gp) # 200000c2 <p_us>
    29ae:	3e800713          	li	a4,1000
    29b2:	02e787b3          	mul	a5,a5,a4
    29b6:	82f19c23          	sh	a5,-1992(gp) # 200000c0 <p_ms>
    29ba:	8082                	ret

000029bc <Delay_Ms>:
    29bc:	e000f7b7          	lui	a5,0xe000f
    29c0:	43d8                	lw	a4,4(a5)
    29c2:	4681                	li	a3,0
    29c4:	9b79                	andi	a4,a4,-2
    29c6:	c3d8                	sw	a4,4(a5)
    29c8:	8381d703          	lhu	a4,-1992(gp) # 200000c0 <p_ms>
    29cc:	02a70633          	mul	a2,a4,a0
    29d0:	cb90                	sw	a2,16(a5)
    29d2:	cbd4                	sw	a3,20(a5)
    29d4:	4398                	lw	a4,0(a5)
    29d6:	01076713          	ori	a4,a4,16
    29da:	c398                	sw	a4,0(a5)
    29dc:	4398                	lw	a4,0(a5)
    29de:	02176713          	ori	a4,a4,33
    29e2:	c398                	sw	a4,0(a5)
    29e4:	43d8                	lw	a4,4(a5)
    29e6:	8b05                	andi	a4,a4,1
    29e8:	df75                	beqz	a4,29e4 <Delay_Ms+0x28>
    29ea:	4398                	lw	a4,0(a5)
    29ec:	9b79                	andi	a4,a4,-2
    29ee:	c398                	sw	a4,0(a5)
    29f0:	8082                	ret

000029f2 <USART_Printf_Init>:
    29f2:	f3efd2ef          	jal	t0,130 <__riscv_save_0>
    29f6:	842a                	mv	s0,a0
    29f8:	6511                	lui	a0,0x4
    29fa:	1101                	addi	sp,sp,-32
    29fc:	4585                	li	a1,1
    29fe:	0511                	addi	a0,a0,4
    2a00:	b03ff0ef          	jal	ra,2502 <RCC_APB2PeriphClockCmd>
    2a04:	20000793          	li	a5,512
    2a08:	827c                	sh	a5,4(sp)
    2a0a:	40011537          	lui	a0,0x40011
    2a0e:	478d                	li	a5,3
    2a10:	c43e                	sw	a5,8(sp)
    2a12:	004c                	addi	a1,sp,4
    2a14:	47e1                	li	a5,24
    2a16:	80050513          	addi	a0,a0,-2048 # 40010800 <_eusrstack+0x2000b800>
    2a1a:	c63e                	sw	a5,12(sp)
    2a1c:	fccff0ef          	jal	ra,21e8 <GPIO_Init>
    2a20:	c822                	sw	s0,16(sp)
    2a22:	40014437          	lui	s0,0x40014
    2a26:	000807b7          	lui	a5,0x80
    2a2a:	080c                	addi	a1,sp,16
    2a2c:	80040513          	addi	a0,s0,-2048 # 40013800 <_eusrstack+0x2000e800>
    2a30:	cc3e                	sw	a5,24(sp)
    2a32:	ca02                	sw	zero,20(sp)
    2a34:	00011e23          	sh	zero,28(sp)
    2a38:	e17ff0ef          	jal	ra,284e <USART_Init>
    2a3c:	4585                	li	a1,1
    2a3e:	80040513          	addi	a0,s0,-2048
    2a42:	e9dff0ef          	jal	ra,28de <USART_Cmd>
    2a46:	6105                	addi	sp,sp,32
    2a48:	f0cfd06f          	j	154 <__riscv_restore_0>

00002a4c <_write>:
    2a4c:	ecafd2ef          	jal	t0,116 <__riscv_save_4>
    2a50:	400144b7          	lui	s1,0x40014
    2a54:	89ae                	mv	s3,a1
    2a56:	8932                	mv	s2,a2
    2a58:	4401                	li	s0,0
    2a5a:	80048493          	addi	s1,s1,-2048 # 40013800 <_eusrstack+0x2000e800>
    2a5e:	01244563          	blt	s0,s2,2a68 <_write+0x1c>
    2a62:	854a                	mv	a0,s2
    2a64:	ee6fd06f          	j	14a <__riscv_restore_4>
    2a68:	04000593          	li	a1,64
    2a6c:	8526                	mv	a0,s1
    2a6e:	edfff0ef          	jal	ra,294c <USART_GetFlagStatus>
    2a72:	d97d                	beqz	a0,2a68 <_write+0x1c>
    2a74:	008987b3          	add	a5,s3,s0
    2a78:	00078583          	lb	a1,0(a5) # 80000 <_data_lma+0x7b54c>
    2a7c:	8526                	mv	a0,s1
    2a7e:	0405                	addi	s0,s0,1
    2a80:	05c2                	slli	a1,a1,0x10
    2a82:	81c1                	srli	a1,a1,0x10
    2a84:	eb9ff0ef          	jal	ra,293c <USART_SendData>
    2a88:	bfd9                	j	2a5e <_write+0x12>

00002a8a <_sbrk>:
    2a8a:	80c18713          	addi	a4,gp,-2036 # 20000094 <curbrk.4652>
    2a8e:	431c                	lw	a5,0(a4)
    2a90:	0d418693          	addi	a3,gp,212 # 2000095c <_ebss>
    2a94:	953e                	add	a0,a0,a5
    2a96:	00d56b63          	bltu	a0,a3,2aac <_sbrk+0x22>
    2a9a:	200056b7          	lui	a3,0x20005
    2a9e:	80068693          	addi	a3,a3,-2048 # 20004800 <_heap_end>
    2aa2:	00a6e563          	bltu	a3,a0,2aac <_sbrk+0x22>
    2aa6:	c308                	sw	a0,0(a4)
    2aa8:	853e                	mv	a0,a5
    2aaa:	8082                	ret
    2aac:	57fd                	li	a5,-1
    2aae:	bfed                	j	2aa8 <_sbrk+0x1e>

00002ab0 <__gesf2>:
    2ab0:	01755693          	srli	a3,a0,0x17
    2ab4:	008007b7          	lui	a5,0x800
    2ab8:	17fd                	addi	a5,a5,-1
    2aba:	0175d613          	srli	a2,a1,0x17
    2abe:	0ff6f693          	andi	a3,a3,255
    2ac2:	0ff00813          	li	a6,255
    2ac6:	00a7f8b3          	and	a7,a5,a0
    2aca:	01f55713          	srli	a4,a0,0x1f
    2ace:	8fed                	and	a5,a5,a1
    2ad0:	0ff67613          	andi	a2,a2,255
    2ad4:	81fd                	srli	a1,a1,0x1f
    2ad6:	03068163          	beq	a3,a6,2af8 <__gesf2+0x48>
    2ada:	01060c63          	beq	a2,a6,2af2 <__gesf2+0x42>
    2ade:	e28d                	bnez	a3,2b00 <__gesf2+0x50>
    2ae0:	e211                	bnez	a2,2ae4 <__gesf2+0x34>
    2ae2:	c3b1                	beqz	a5,2b26 <__gesf2+0x76>
    2ae4:	02088e63          	beqz	a7,2b20 <__gesf2+0x70>
    2ae8:	04b70563          	beq	a4,a1,2b32 <__gesf2+0x82>
    2aec:	4505                	li	a0,1
    2aee:	e71d                	bnez	a4,2b1c <__gesf2+0x6c>
    2af0:	8082                	ret
    2af2:	d7f5                	beqz	a5,2ade <__gesf2+0x2e>
    2af4:	5579                	li	a0,-2
    2af6:	8082                	ret
    2af8:	fe089ee3          	bnez	a7,2af4 <__gesf2+0x44>
    2afc:	02d60963          	beq	a2,a3,2b2e <__gesf2+0x7e>
    2b00:	e211                	bnez	a2,2b04 <__gesf2+0x54>
    2b02:	d7ed                	beqz	a5,2aec <__gesf2+0x3c>
    2b04:	feb714e3          	bne	a4,a1,2aec <__gesf2+0x3c>
    2b08:	fed642e3          	blt	a2,a3,2aec <__gesf2+0x3c>
    2b0c:	00c6c763          	blt	a3,a2,2b1a <__gesf2+0x6a>
    2b10:	fd17eee3          	bltu	a5,a7,2aec <__gesf2+0x3c>
    2b14:	4501                	li	a0,0
    2b16:	fcf8fde3          	bgeu	a7,a5,2af0 <__gesf2+0x40>
    2b1a:	e701                	bnez	a4,2b22 <__gesf2+0x72>
    2b1c:	557d                	li	a0,-1
    2b1e:	8082                	ret
    2b20:	ddf5                	beqz	a1,2b1c <__gesf2+0x6c>
    2b22:	4505                	li	a0,1
    2b24:	8082                	ret
    2b26:	4501                	li	a0,0
    2b28:	fc0892e3          	bnez	a7,2aec <__gesf2+0x3c>
    2b2c:	8082                	ret
    2b2e:	dbf9                	beqz	a5,2b04 <__gesf2+0x54>
    2b30:	b7d1                	j	2af4 <__gesf2+0x44>
    2b32:	4681                	li	a3,0
    2b34:	bfe1                	j	2b0c <__gesf2+0x5c>

00002b36 <__mulsf3>:
    2b36:	7179                	addi	sp,sp,-48
    2b38:	d422                	sw	s0,40(sp)
    2b3a:	01755413          	srli	s0,a0,0x17
    2b3e:	ce4e                	sw	s3,28(sp)
    2b40:	cc52                	sw	s4,24(sp)
    2b42:	00951993          	slli	s3,a0,0x9
    2b46:	d606                	sw	ra,44(sp)
    2b48:	d226                	sw	s1,36(sp)
    2b4a:	d04a                	sw	s2,32(sp)
    2b4c:	ca56                	sw	s5,20(sp)
    2b4e:	c85a                	sw	s6,16(sp)
    2b50:	0ff47413          	andi	s0,s0,255
    2b54:	0099d993          	srli	s3,s3,0x9
    2b58:	01f55a13          	srli	s4,a0,0x1f
    2b5c:	c469                	beqz	s0,2c26 <__mulsf3+0xf0>
    2b5e:	0ff00793          	li	a5,255
    2b62:	0ef40863          	beq	s0,a5,2c52 <__mulsf3+0x11c>
    2b66:	00399793          	slli	a5,s3,0x3
    2b6a:	04000737          	lui	a4,0x4000
    2b6e:	00e7e9b3          	or	s3,a5,a4
    2b72:	f8140413          	addi	s0,s0,-127
    2b76:	4481                	li	s1,0
    2b78:	4b01                	li	s6,0
    2b7a:	0175d713          	srli	a4,a1,0x17
    2b7e:	00959a93          	slli	s5,a1,0x9
    2b82:	0ff77713          	andi	a4,a4,255
    2b86:	009ada93          	srli	s5,s5,0x9
    2b8a:	01f5d913          	srli	s2,a1,0x1f
    2b8e:	cf45                	beqz	a4,2c46 <__mulsf3+0x110>
    2b90:	0ff00793          	li	a5,255
    2b94:	02f70c63          	beq	a4,a5,2bcc <__mulsf3+0x96>
    2b98:	0a8e                	slli	s5,s5,0x3
    2b9a:	f8170713          	addi	a4,a4,-127 # 3ffff81 <_data_lma+0x3ffb4cd>
    2b9e:	040007b7          	lui	a5,0x4000
    2ba2:	00faeab3          	or	s5,s5,a5
    2ba6:	943a                	add	s0,s0,a4
    2ba8:	4601                	li	a2,0
    2baa:	012a4533          	xor	a0,s4,s2
    2bae:	47bd                	li	a5,15
    2bb0:	86aa                	mv	a3,a0
    2bb2:	00140593          	addi	a1,s0,1
    2bb6:	1097e063          	bltu	a5,s1,2cb6 <__mulsf3+0x180>
    2bba:	00002717          	auipc	a4,0x2
    2bbe:	d1e70713          	addi	a4,a4,-738 # 48d8 <CSWTCH.5+0x474>
    2bc2:	048a                	slli	s1,s1,0x2
    2bc4:	94ba                	add	s1,s1,a4
    2bc6:	409c                	lw	a5,0(s1)
    2bc8:	97ba                	add	a5,a5,a4
    2bca:	8782                	jr	a5
    2bcc:	0ff40413          	addi	s0,s0,255
    2bd0:	0c0a9663          	bnez	s5,2c9c <__mulsf3+0x166>
    2bd4:	0024e493          	ori	s1,s1,2
    2bd8:	4609                	li	a2,2
    2bda:	bfc1                	j	2baa <__mulsf3+0x74>
    2bdc:	4501                	li	a0,0
    2bde:	0ff00713          	li	a4,255
    2be2:	004007b7          	lui	a5,0x400
    2be6:	50b2                	lw	ra,44(sp)
    2be8:	5422                	lw	s0,40(sp)
    2bea:	07a6                	slli	a5,a5,0x9
    2bec:	075e                	slli	a4,a4,0x17
    2bee:	83a5                	srli	a5,a5,0x9
    2bf0:	057e                	slli	a0,a0,0x1f
    2bf2:	8fd9                	or	a5,a5,a4
    2bf4:	5492                	lw	s1,36(sp)
    2bf6:	5902                	lw	s2,32(sp)
    2bf8:	49f2                	lw	s3,28(sp)
    2bfa:	4a62                	lw	s4,24(sp)
    2bfc:	4ad2                	lw	s5,20(sp)
    2bfe:	4b42                	lw	s6,16(sp)
    2c00:	8d5d                	or	a0,a0,a5
    2c02:	6145                	addi	sp,sp,48
    2c04:	8082                	ret
    2c06:	86ca                	mv	a3,s2
    2c08:	89d6                	mv	s3,s5
    2c0a:	8b32                	mv	s6,a2
    2c0c:	4789                	li	a5,2
    2c0e:	08fb0f63          	beq	s6,a5,2cac <__mulsf3+0x176>
    2c12:	478d                	li	a5,3
    2c14:	fcfb04e3          	beq	s6,a5,2bdc <__mulsf3+0xa6>
    2c18:	4785                	li	a5,1
    2c1a:	8536                	mv	a0,a3
    2c1c:	1afb1063          	bne	s6,a5,2dbc <__mulsf3+0x286>
    2c20:	4701                	li	a4,0
    2c22:	4781                	li	a5,0
    2c24:	b7c9                	j	2be6 <__mulsf3+0xb0>
    2c26:	04099d63          	bnez	s3,2c80 <__mulsf3+0x14a>
    2c2a:	0175d713          	srli	a4,a1,0x17
    2c2e:	00959a93          	slli	s5,a1,0x9
    2c32:	0ff77713          	andi	a4,a4,255
    2c36:	4491                	li	s1,4
    2c38:	4401                	li	s0,0
    2c3a:	4b05                	li	s6,1
    2c3c:	009ada93          	srli	s5,s5,0x9
    2c40:	01f5d913          	srli	s2,a1,0x1f
    2c44:	f731                	bnez	a4,2b90 <__mulsf3+0x5a>
    2c46:	000a9d63          	bnez	s5,2c60 <__mulsf3+0x12a>
    2c4a:	0014e493          	ori	s1,s1,1
    2c4e:	4605                	li	a2,1
    2c50:	bfa9                	j	2baa <__mulsf3+0x74>
    2c52:	02099263          	bnez	s3,2c76 <__mulsf3+0x140>
    2c56:	44a1                	li	s1,8
    2c58:	0ff00413          	li	s0,255
    2c5c:	4b09                	li	s6,2
    2c5e:	bf31                	j	2b7a <__mulsf3+0x44>
    2c60:	8556                	mv	a0,s5
    2c62:	2cf9                	jal	2f40 <__clzsi2>
    2c64:	ffb50793          	addi	a5,a0,-5
    2c68:	8c09                	sub	s0,s0,a0
    2c6a:	00fa9ab3          	sll	s5,s5,a5
    2c6e:	f8a40413          	addi	s0,s0,-118
    2c72:	4601                	li	a2,0
    2c74:	bf1d                	j	2baa <__mulsf3+0x74>
    2c76:	44b1                	li	s1,12
    2c78:	0ff00413          	li	s0,255
    2c7c:	4b0d                	li	s6,3
    2c7e:	bdf5                	j	2b7a <__mulsf3+0x44>
    2c80:	854e                	mv	a0,s3
    2c82:	c62e                	sw	a1,12(sp)
    2c84:	2c75                	jal	2f40 <__clzsi2>
    2c86:	ffb50793          	addi	a5,a0,-5
    2c8a:	f8a00413          	li	s0,-118
    2c8e:	00f999b3          	sll	s3,s3,a5
    2c92:	8c09                	sub	s0,s0,a0
    2c94:	4481                	li	s1,0
    2c96:	4b01                	li	s6,0
    2c98:	45b2                	lw	a1,12(sp)
    2c9a:	b5c5                	j	2b7a <__mulsf3+0x44>
    2c9c:	0034e493          	ori	s1,s1,3
    2ca0:	460d                	li	a2,3
    2ca2:	b721                	j	2baa <__mulsf3+0x74>
    2ca4:	4789                	li	a5,2
    2ca6:	86d2                	mv	a3,s4
    2ca8:	f6fb15e3          	bne	s6,a5,2c12 <__mulsf3+0xdc>
    2cac:	8536                	mv	a0,a3
    2cae:	0ff00713          	li	a4,255
    2cb2:	4781                	li	a5,0
    2cb4:	bf0d                	j	2be6 <__mulsf3+0xb0>
    2cb6:	6341                	lui	t1,0x10
    2cb8:	fff30693          	addi	a3,t1,-1 # ffff <_data_lma+0xb54b>
    2cbc:	0109d613          	srli	a2,s3,0x10
    2cc0:	010ad893          	srli	a7,s5,0x10
    2cc4:	00d9f7b3          	and	a5,s3,a3
    2cc8:	00dafab3          	and	s5,s5,a3
    2ccc:	03578833          	mul	a6,a5,s5
    2cd0:	02f889b3          	mul	s3,a7,a5
    2cd4:	01085713          	srli	a4,a6,0x10
    2cd8:	03560ab3          	mul	s5,a2,s5
    2cdc:	99d6                	add	s3,s3,s5
    2cde:	974e                	add	a4,a4,s3
    2ce0:	03160633          	mul	a2,a2,a7
    2ce4:	01577363          	bgeu	a4,s5,2cea <__mulsf3+0x1b4>
    2ce8:	961a                	add	a2,a2,t1
    2cea:	67c1                	lui	a5,0x10
    2cec:	17fd                	addi	a5,a5,-1
    2cee:	00f776b3          	and	a3,a4,a5
    2cf2:	00f87833          	and	a6,a6,a5
    2cf6:	06c2                	slli	a3,a3,0x10
    2cf8:	96c2                	add	a3,a3,a6
    2cfa:	00669993          	slli	s3,a3,0x6
    2cfe:	01075793          	srli	a5,a4,0x10
    2d02:	013039b3          	snez	s3,s3
    2d06:	82e9                	srli	a3,a3,0x1a
    2d08:	97b2                	add	a5,a5,a2
    2d0a:	079a                	slli	a5,a5,0x6
    2d0c:	00d9e6b3          	or	a3,s3,a3
    2d10:	00d7e9b3          	or	s3,a5,a3
    2d14:	00499793          	slli	a5,s3,0x4
    2d18:	0007d963          	bgez	a5,2d2a <__mulsf3+0x1f4>
    2d1c:	0019d713          	srli	a4,s3,0x1
    2d20:	0019f793          	andi	a5,s3,1
    2d24:	00f769b3          	or	s3,a4,a5
    2d28:	842e                	mv	s0,a1
    2d2a:	07f40713          	addi	a4,s0,127
    2d2e:	04e05063          	blez	a4,2d6e <__mulsf3+0x238>
    2d32:	0079f793          	andi	a5,s3,7
    2d36:	c799                	beqz	a5,2d44 <__mulsf3+0x20e>
    2d38:	00f9f793          	andi	a5,s3,15
    2d3c:	4691                	li	a3,4
    2d3e:	00d78363          	beq	a5,a3,2d44 <__mulsf3+0x20e>
    2d42:	0991                	addi	s3,s3,4
    2d44:	00499793          	slli	a5,s3,0x4
    2d48:	0007d963          	bgez	a5,2d5a <__mulsf3+0x224>
    2d4c:	f80007b7          	lui	a5,0xf8000
    2d50:	17fd                	addi	a5,a5,-1
    2d52:	00f9f9b3          	and	s3,s3,a5
    2d56:	08040713          	addi	a4,s0,128
    2d5a:	0fe00793          	li	a5,254
    2d5e:	04e7cb63          	blt	a5,a4,2db4 <__mulsf3+0x27e>
    2d62:	00699793          	slli	a5,s3,0x6
    2d66:	83a5                	srli	a5,a5,0x9
    2d68:	0ff77713          	andi	a4,a4,255
    2d6c:	bdad                	j	2be6 <__mulsf3+0xb0>
    2d6e:	4785                	li	a5,1
    2d70:	40e786b3          	sub	a3,a5,a4
    2d74:	c711                	beqz	a4,2d80 <__mulsf3+0x24a>
    2d76:	466d                	li	a2,27
    2d78:	4701                	li	a4,0
    2d7a:	4781                	li	a5,0
    2d7c:	e6d645e3          	blt	a2,a3,2be6 <__mulsf3+0xb0>
    2d80:	09e40713          	addi	a4,s0,158
    2d84:	00e99733          	sll	a4,s3,a4
    2d88:	00e03733          	snez	a4,a4
    2d8c:	00d9d7b3          	srl	a5,s3,a3
    2d90:	8fd9                	or	a5,a5,a4
    2d92:	0077f713          	andi	a4,a5,7
    2d96:	c719                	beqz	a4,2da4 <__mulsf3+0x26e>
    2d98:	00f7f713          	andi	a4,a5,15
    2d9c:	4691                	li	a3,4
    2d9e:	00d70363          	beq	a4,a3,2da4 <__mulsf3+0x26e>
    2da2:	0791                	addi	a5,a5,4
    2da4:	00579713          	slli	a4,a5,0x5
    2da8:	00074c63          	bltz	a4,2dc0 <__mulsf3+0x28a>
    2dac:	079a                	slli	a5,a5,0x6
    2dae:	83a5                	srli	a5,a5,0x9
    2db0:	4701                	li	a4,0
    2db2:	bd15                	j	2be6 <__mulsf3+0xb0>
    2db4:	0ff00713          	li	a4,255
    2db8:	4781                	li	a5,0
    2dba:	b535                	j	2be6 <__mulsf3+0xb0>
    2dbc:	842e                	mv	s0,a1
    2dbe:	b7b5                	j	2d2a <__mulsf3+0x1f4>
    2dc0:	4705                	li	a4,1
    2dc2:	4781                	li	a5,0
    2dc4:	b50d                	j	2be6 <__mulsf3+0xb0>

00002dc6 <__floatunsisf>:
    2dc6:	1141                	addi	sp,sp,-16
    2dc8:	c606                	sw	ra,12(sp)
    2dca:	c422                	sw	s0,8(sp)
    2dcc:	cd15                	beqz	a0,2e08 <__floatunsisf+0x42>
    2dce:	842a                	mv	s0,a0
    2dd0:	2a85                	jal	2f40 <__clzsi2>
    2dd2:	09e00793          	li	a5,158
    2dd6:	40a78733          	sub	a4,a5,a0
    2dda:	09600793          	li	a5,150
    2dde:	04e7c063          	blt	a5,a4,2e1e <__floatunsisf+0x58>
    2de2:	46a1                	li	a3,8
    2de4:	0ff77793          	andi	a5,a4,255
    2de8:	00a6d563          	bge	a3,a0,2df2 <__floatunsisf+0x2c>
    2dec:	1561                	addi	a0,a0,-8
    2dee:	00a41433          	sll	s0,s0,a0
    2df2:	0426                	slli	s0,s0,0x9
    2df4:	8025                	srli	s0,s0,0x9
    2df6:	0426                	slli	s0,s0,0x9
    2df8:	00945513          	srli	a0,s0,0x9
    2dfc:	40b2                	lw	ra,12(sp)
    2dfe:	4422                	lw	s0,8(sp)
    2e00:	07de                	slli	a5,a5,0x17
    2e02:	8d5d                	or	a0,a0,a5
    2e04:	0141                	addi	sp,sp,16
    2e06:	8082                	ret
    2e08:	4401                	li	s0,0
    2e0a:	0426                	slli	s0,s0,0x9
    2e0c:	00945513          	srli	a0,s0,0x9
    2e10:	40b2                	lw	ra,12(sp)
    2e12:	4422                	lw	s0,8(sp)
    2e14:	4781                	li	a5,0
    2e16:	07de                	slli	a5,a5,0x17
    2e18:	8d5d                	or	a0,a0,a5
    2e1a:	0141                	addi	sp,sp,16
    2e1c:	8082                	ret
    2e1e:	09900793          	li	a5,153
    2e22:	00e7dd63          	bge	a5,a4,2e3c <__floatunsisf+0x76>
    2e26:	01b50793          	addi	a5,a0,27
    2e2a:	4695                	li	a3,5
    2e2c:	00f417b3          	sll	a5,s0,a5
    2e30:	8e89                	sub	a3,a3,a0
    2e32:	00f037b3          	snez	a5,a5
    2e36:	00d45433          	srl	s0,s0,a3
    2e3a:	8c5d                	or	s0,s0,a5
    2e3c:	4795                	li	a5,5
    2e3e:	00a7d663          	bge	a5,a0,2e4a <__floatunsisf+0x84>
    2e42:	ffb50793          	addi	a5,a0,-5
    2e46:	00f41433          	sll	s0,s0,a5
    2e4a:	fc0006b7          	lui	a3,0xfc000
    2e4e:	16fd                	addi	a3,a3,-1
    2e50:	00747793          	andi	a5,s0,7
    2e54:	00d47633          	and	a2,s0,a3
    2e58:	c385                	beqz	a5,2e78 <__floatunsisf+0xb2>
    2e5a:	00f47793          	andi	a5,s0,15
    2e5e:	4591                	li	a1,4
    2e60:	00b78c63          	beq	a5,a1,2e78 <__floatunsisf+0xb2>
    2e64:	0611                	addi	a2,a2,4
    2e66:	00561793          	slli	a5,a2,0x5
    2e6a:	0007d763          	bgez	a5,2e78 <__floatunsisf+0xb2>
    2e6e:	09f00793          	li	a5,159
    2e72:	8e75                	and	a2,a2,a3
    2e74:	40a78733          	sub	a4,a5,a0
    2e78:	00661413          	slli	s0,a2,0x6
    2e7c:	8025                	srli	s0,s0,0x9
    2e7e:	0426                	slli	s0,s0,0x9
    2e80:	00945513          	srli	a0,s0,0x9
    2e84:	40b2                	lw	ra,12(sp)
    2e86:	4422                	lw	s0,8(sp)
    2e88:	0ff77793          	andi	a5,a4,255
    2e8c:	07de                	slli	a5,a5,0x17
    2e8e:	8d5d                	or	a0,a0,a5
    2e90:	0141                	addi	sp,sp,16
    2e92:	8082                	ret

00002e94 <__extendsfdf2>:
    2e94:	01755713          	srli	a4,a0,0x17
    2e98:	0ff77713          	andi	a4,a4,255
    2e9c:	1141                	addi	sp,sp,-16
    2e9e:	00170793          	addi	a5,a4,1
    2ea2:	c422                	sw	s0,8(sp)
    2ea4:	c226                	sw	s1,4(sp)
    2ea6:	00951413          	slli	s0,a0,0x9
    2eaa:	c606                	sw	ra,12(sp)
    2eac:	0fe7f793          	andi	a5,a5,254
    2eb0:	8025                	srli	s0,s0,0x9
    2eb2:	01f55493          	srli	s1,a0,0x1f
    2eb6:	c785                	beqz	a5,2ede <__extendsfdf2+0x4a>
    2eb8:	00345793          	srli	a5,s0,0x3
    2ebc:	38070713          	addi	a4,a4,896
    2ec0:	0476                	slli	s0,s0,0x1d
    2ec2:	07b2                	slli	a5,a5,0xc
    2ec4:	0752                	slli	a4,a4,0x14
    2ec6:	83b1                	srli	a5,a5,0xc
    2ec8:	01f49513          	slli	a0,s1,0x1f
    2ecc:	8fd9                	or	a5,a5,a4
    2ece:	8fc9                	or	a5,a5,a0
    2ed0:	40b2                	lw	ra,12(sp)
    2ed2:	8522                	mv	a0,s0
    2ed4:	4422                	lw	s0,8(sp)
    2ed6:	4492                	lw	s1,4(sp)
    2ed8:	85be                	mv	a1,a5
    2eda:	0141                	addi	sp,sp,16
    2edc:	8082                	ret
    2ede:	eb05                	bnez	a4,2f0e <__extendsfdf2+0x7a>
    2ee0:	c439                	beqz	s0,2f2e <__extendsfdf2+0x9a>
    2ee2:	8522                	mv	a0,s0
    2ee4:	28b1                	jal	2f40 <__clzsi2>
    2ee6:	47a9                	li	a5,10
    2ee8:	04a7c663          	blt	a5,a0,2f34 <__extendsfdf2+0xa0>
    2eec:	472d                	li	a4,11
    2eee:	8f09                	sub	a4,a4,a0
    2ef0:	01550793          	addi	a5,a0,21
    2ef4:	00e45733          	srl	a4,s0,a4
    2ef8:	00f41433          	sll	s0,s0,a5
    2efc:	00c71793          	slli	a5,a4,0xc
    2f00:	38900713          	li	a4,905
    2f04:	8f09                	sub	a4,a4,a0
    2f06:	83b1                	srli	a5,a5,0xc
    2f08:	7ff77713          	andi	a4,a4,2047
    2f0c:	bf5d                	j	2ec2 <__extendsfdf2+0x2e>
    2f0e:	cc01                	beqz	s0,2f26 <__extendsfdf2+0x92>
    2f10:	00345713          	srli	a4,s0,0x3
    2f14:	000807b7          	lui	a5,0x80
    2f18:	8fd9                	or	a5,a5,a4
    2f1a:	07b2                	slli	a5,a5,0xc
    2f1c:	0476                	slli	s0,s0,0x1d
    2f1e:	83b1                	srli	a5,a5,0xc
    2f20:	7ff00713          	li	a4,2047
    2f24:	bf79                	j	2ec2 <__extendsfdf2+0x2e>
    2f26:	7ff00713          	li	a4,2047
    2f2a:	4781                	li	a5,0
    2f2c:	bf59                	j	2ec2 <__extendsfdf2+0x2e>
    2f2e:	4701                	li	a4,0
    2f30:	4781                	li	a5,0
    2f32:	bf41                	j	2ec2 <__extendsfdf2+0x2e>
    2f34:	ff550713          	addi	a4,a0,-11
    2f38:	00e41733          	sll	a4,s0,a4
    2f3c:	4401                	li	s0,0
    2f3e:	bf7d                	j	2efc <__extendsfdf2+0x68>

00002f40 <__clzsi2>:
    2f40:	67c1                	lui	a5,0x10
    2f42:	02f57c63          	bgeu	a0,a5,2f7a <__clzsi2+0x3a>
    2f46:	0ff00793          	li	a5,255
    2f4a:	02000713          	li	a4,32
    2f4e:	00a7eb63          	bltu	a5,a0,2f64 <__clzsi2+0x24>
    2f52:	00002797          	auipc	a5,0x2
    2f56:	9c678793          	addi	a5,a5,-1594 # 4918 <__clz_tab>
    2f5a:	97aa                	add	a5,a5,a0
    2f5c:	2388                	lbu	a0,0(a5)
    2f5e:	40a70533          	sub	a0,a4,a0
    2f62:	8082                	ret
    2f64:	8121                	srli	a0,a0,0x8
    2f66:	00002797          	auipc	a5,0x2
    2f6a:	9b278793          	addi	a5,a5,-1614 # 4918 <__clz_tab>
    2f6e:	97aa                	add	a5,a5,a0
    2f70:	2388                	lbu	a0,0(a5)
    2f72:	4761                	li	a4,24
    2f74:	40a70533          	sub	a0,a4,a0
    2f78:	8082                	ret
    2f7a:	010007b7          	lui	a5,0x1000
    2f7e:	00f56d63          	bltu	a0,a5,2f98 <__clzsi2+0x58>
    2f82:	8161                	srli	a0,a0,0x18
    2f84:	00002797          	auipc	a5,0x2
    2f88:	99478793          	addi	a5,a5,-1644 # 4918 <__clz_tab>
    2f8c:	97aa                	add	a5,a5,a0
    2f8e:	2388                	lbu	a0,0(a5)
    2f90:	4721                	li	a4,8
    2f92:	40a70533          	sub	a0,a4,a0
    2f96:	8082                	ret
    2f98:	8141                	srli	a0,a0,0x10
    2f9a:	00002797          	auipc	a5,0x2
    2f9e:	97e78793          	addi	a5,a5,-1666 # 4918 <__clz_tab>
    2fa2:	97aa                	add	a5,a5,a0
    2fa4:	2388                	lbu	a0,0(a5)
    2fa6:	4741                	li	a4,16
    2fa8:	40a70533          	sub	a0,a4,a0
    2fac:	8082                	ret

00002fae <memcpy>:
    2fae:	00a5c7b3          	xor	a5,a1,a0
    2fb2:	8b8d                	andi	a5,a5,3
    2fb4:	00c50733          	add	a4,a0,a2
    2fb8:	e781                	bnez	a5,2fc0 <memcpy+0x12>
    2fba:	478d                	li	a5,3
    2fbc:	00c7ed63          	bltu	a5,a2,2fd6 <memcpy+0x28>
    2fc0:	87aa                	mv	a5,a0
    2fc2:	08e57e63          	bgeu	a0,a4,305e <memcpy+0xb0>
    2fc6:	2194                	lbu	a3,0(a1)
    2fc8:	0785                	addi	a5,a5,1
    2fca:	0585                	addi	a1,a1,1
    2fcc:	fed78fa3          	sb	a3,-1(a5)
    2fd0:	fee7ebe3          	bltu	a5,a4,2fc6 <memcpy+0x18>
    2fd4:	8082                	ret
    2fd6:	00357693          	andi	a3,a0,3
    2fda:	87aa                	mv	a5,a0
    2fdc:	ca89                	beqz	a3,2fee <memcpy+0x40>
    2fde:	2194                	lbu	a3,0(a1)
    2fe0:	0785                	addi	a5,a5,1
    2fe2:	0585                	addi	a1,a1,1
    2fe4:	fed78fa3          	sb	a3,-1(a5)
    2fe8:	0037f693          	andi	a3,a5,3
    2fec:	bfc5                	j	2fdc <memcpy+0x2e>
    2fee:	ffc77693          	andi	a3,a4,-4
    2ff2:	fe068613          	addi	a2,a3,-32 # fbffffe0 <_eusrstack+0xdbffafe0>
    2ff6:	06c7f063          	bgeu	a5,a2,3056 <memcpy+0xa8>
    2ffa:	0005a383          	lw	t2,0(a1)
    2ffe:	0045a283          	lw	t0,4(a1)
    3002:	0085af83          	lw	t6,8(a1)
    3006:	00c5af03          	lw	t5,12(a1)
    300a:	0105ae83          	lw	t4,16(a1)
    300e:	0145ae03          	lw	t3,20(a1)
    3012:	0185a303          	lw	t1,24(a1)
    3016:	01c5a883          	lw	a7,28(a1)
    301a:	02458593          	addi	a1,a1,36
    301e:	0077a023          	sw	t2,0(a5)
    3022:	ffc5a803          	lw	a6,-4(a1)
    3026:	0057a223          	sw	t0,4(a5)
    302a:	01f7a423          	sw	t6,8(a5)
    302e:	01e7a623          	sw	t5,12(a5)
    3032:	01d7a823          	sw	t4,16(a5)
    3036:	01c7aa23          	sw	t3,20(a5)
    303a:	0067ac23          	sw	t1,24(a5)
    303e:	0117ae23          	sw	a7,28(a5)
    3042:	02478793          	addi	a5,a5,36
    3046:	ff07ae23          	sw	a6,-4(a5)
    304a:	b775                	j	2ff6 <memcpy+0x48>
    304c:	4190                	lw	a2,0(a1)
    304e:	0791                	addi	a5,a5,4
    3050:	0591                	addi	a1,a1,4
    3052:	fec7ae23          	sw	a2,-4(a5)
    3056:	fed7ebe3          	bltu	a5,a3,304c <memcpy+0x9e>
    305a:	f6e7e6e3          	bltu	a5,a4,2fc6 <memcpy+0x18>
    305e:	8082                	ret

00003060 <iprintf>:
    3060:	7139                	addi	sp,sp,-64
    3062:	da3e                	sw	a5,52(sp)
    3064:	d22e                	sw	a1,36(sp)
    3066:	d432                	sw	a2,40(sp)
    3068:	d636                	sw	a3,44(sp)
    306a:	d83a                	sw	a4,48(sp)
    306c:	dc42                	sw	a6,56(sp)
    306e:	de46                	sw	a7,60(sp)
    3070:	81018793          	addi	a5,gp,-2032 # 20000098 <_impure_ptr>
    3074:	cc22                	sw	s0,24(sp)
    3076:	4380                	lw	s0,0(a5)
    3078:	ca26                	sw	s1,20(sp)
    307a:	ce06                	sw	ra,28(sp)
    307c:	84aa                	mv	s1,a0
    307e:	c409                	beqz	s0,3088 <iprintf+0x28>
    3080:	4c1c                	lw	a5,24(s0)
    3082:	e399                	bnez	a5,3088 <iprintf+0x28>
    3084:	8522                	mv	a0,s0
    3086:	29fd                	jal	3584 <__sinit>
    3088:	440c                	lw	a1,8(s0)
    308a:	1054                	addi	a3,sp,36
    308c:	8626                	mv	a2,s1
    308e:	8522                	mv	a0,s0
    3090:	c636                	sw	a3,12(sp)
    3092:	139000ef          	jal	ra,39ca <_vfiprintf_r>
    3096:	40f2                	lw	ra,28(sp)
    3098:	4462                	lw	s0,24(sp)
    309a:	44d2                	lw	s1,20(sp)
    309c:	6121                	addi	sp,sp,64
    309e:	8082                	ret

000030a0 <_puts_r>:
    30a0:	1101                	addi	sp,sp,-32
    30a2:	ca26                	sw	s1,20(sp)
    30a4:	c84a                	sw	s2,16(sp)
    30a6:	ce06                	sw	ra,28(sp)
    30a8:	cc22                	sw	s0,24(sp)
    30aa:	c64e                	sw	s3,12(sp)
    30ac:	c452                	sw	s4,8(sp)
    30ae:	84aa                	mv	s1,a0
    30b0:	892e                	mv	s2,a1
    30b2:	c501                	beqz	a0,30ba <_puts_r+0x1a>
    30b4:	4d1c                	lw	a5,24(a0)
    30b6:	e391                	bnez	a5,30ba <_puts_r+0x1a>
    30b8:	21f1                	jal	3584 <__sinit>
    30ba:	4c9c                	lw	a5,24(s1)
    30bc:	4480                	lw	s0,8(s1)
    30be:	e399                	bnez	a5,30c4 <_puts_r+0x24>
    30c0:	8526                	mv	a0,s1
    30c2:	21c9                	jal	3584 <__sinit>
    30c4:	00002797          	auipc	a5,0x2
    30c8:	97478793          	addi	a5,a5,-1676 # 4a38 <__sf_fake_stdin>
    30cc:	02f41b63          	bne	s0,a5,3102 <_puts_r+0x62>
    30d0:	40c0                	lw	s0,4(s1)
    30d2:	245e                	lhu	a5,12(s0)
    30d4:	8ba1                	andi	a5,a5,8
    30d6:	c7b1                	beqz	a5,3122 <_puts_r+0x82>
    30d8:	481c                	lw	a5,16(s0)
    30da:	c7a1                	beqz	a5,3122 <_puts_r+0x82>
    30dc:	59fd                	li	s3,-1
    30de:	4a29                	li	s4,10
    30e0:	441c                	lw	a5,8(s0)
    30e2:	00094583          	lbu	a1,0(s2)
    30e6:	17fd                	addi	a5,a5,-1
    30e8:	e9b1                	bnez	a1,313c <_puts_r+0x9c>
    30ea:	c41c                	sw	a5,8(s0)
    30ec:	0607dd63          	bgez	a5,3166 <_puts_r+0xc6>
    30f0:	8622                	mv	a2,s0
    30f2:	45a9                	li	a1,10
    30f4:	8526                	mv	a0,s1
    30f6:	2069                	jal	3180 <__swbuf_r>
    30f8:	57fd                	li	a5,-1
    30fa:	02f50863          	beq	a0,a5,312a <_puts_r+0x8a>
    30fe:	4529                	li	a0,10
    3100:	a035                	j	312c <_puts_r+0x8c>
    3102:	00002797          	auipc	a5,0x2
    3106:	95678793          	addi	a5,a5,-1706 # 4a58 <__sf_fake_stdout>
    310a:	00f41463          	bne	s0,a5,3112 <_puts_r+0x72>
    310e:	4480                	lw	s0,8(s1)
    3110:	b7c9                	j	30d2 <_puts_r+0x32>
    3112:	00002797          	auipc	a5,0x2
    3116:	90678793          	addi	a5,a5,-1786 # 4a18 <__sf_fake_stderr>
    311a:	faf41ce3          	bne	s0,a5,30d2 <_puts_r+0x32>
    311e:	44c0                	lw	s0,12(s1)
    3120:	bf4d                	j	30d2 <_puts_r+0x32>
    3122:	85a2                	mv	a1,s0
    3124:	8526                	mv	a0,s1
    3126:	2a19                	jal	323c <__swsetup_r>
    3128:	d955                	beqz	a0,30dc <_puts_r+0x3c>
    312a:	557d                	li	a0,-1
    312c:	40f2                	lw	ra,28(sp)
    312e:	4462                	lw	s0,24(sp)
    3130:	44d2                	lw	s1,20(sp)
    3132:	4942                	lw	s2,16(sp)
    3134:	49b2                	lw	s3,12(sp)
    3136:	4a22                	lw	s4,8(sp)
    3138:	6105                	addi	sp,sp,32
    313a:	8082                	ret
    313c:	c41c                	sw	a5,8(s0)
    313e:	0905                	addi	s2,s2,1
    3140:	0007d763          	bgez	a5,314e <_puts_r+0xae>
    3144:	4c18                	lw	a4,24(s0)
    3146:	00e7ca63          	blt	a5,a4,315a <_puts_r+0xba>
    314a:	01458863          	beq	a1,s4,315a <_puts_r+0xba>
    314e:	401c                	lw	a5,0(s0)
    3150:	00178713          	addi	a4,a5,1
    3154:	c018                	sw	a4,0(s0)
    3156:	a38c                	sb	a1,0(a5)
    3158:	b761                	j	30e0 <_puts_r+0x40>
    315a:	8622                	mv	a2,s0
    315c:	8526                	mv	a0,s1
    315e:	200d                	jal	3180 <__swbuf_r>
    3160:	f93510e3          	bne	a0,s3,30e0 <_puts_r+0x40>
    3164:	b7d9                	j	312a <_puts_r+0x8a>
    3166:	401c                	lw	a5,0(s0)
    3168:	00178713          	addi	a4,a5,1
    316c:	c018                	sw	a4,0(s0)
    316e:	4729                	li	a4,10
    3170:	a398                	sb	a4,0(a5)
    3172:	b771                	j	30fe <_puts_r+0x5e>

00003174 <puts>:
    3174:	81018793          	addi	a5,gp,-2032 # 20000098 <_impure_ptr>
    3178:	85aa                	mv	a1,a0
    317a:	4388                	lw	a0,0(a5)
    317c:	f25ff06f          	j	30a0 <_puts_r>

00003180 <__swbuf_r>:
    3180:	1101                	addi	sp,sp,-32
    3182:	cc22                	sw	s0,24(sp)
    3184:	ca26                	sw	s1,20(sp)
    3186:	c84a                	sw	s2,16(sp)
    3188:	ce06                	sw	ra,28(sp)
    318a:	c64e                	sw	s3,12(sp)
    318c:	84aa                	mv	s1,a0
    318e:	892e                	mv	s2,a1
    3190:	8432                	mv	s0,a2
    3192:	c501                	beqz	a0,319a <__swbuf_r+0x1a>
    3194:	4d1c                	lw	a5,24(a0)
    3196:	e391                	bnez	a5,319a <__swbuf_r+0x1a>
    3198:	26f5                	jal	3584 <__sinit>
    319a:	00002797          	auipc	a5,0x2
    319e:	89e78793          	addi	a5,a5,-1890 # 4a38 <__sf_fake_stdin>
    31a2:	06f41763          	bne	s0,a5,3210 <__swbuf_r+0x90>
    31a6:	40c0                	lw	s0,4(s1)
    31a8:	4c1c                	lw	a5,24(s0)
    31aa:	c41c                	sw	a5,8(s0)
    31ac:	245e                	lhu	a5,12(s0)
    31ae:	8ba1                	andi	a5,a5,8
    31b0:	c3c1                	beqz	a5,3230 <__swbuf_r+0xb0>
    31b2:	481c                	lw	a5,16(s0)
    31b4:	cfb5                	beqz	a5,3230 <__swbuf_r+0xb0>
    31b6:	481c                	lw	a5,16(s0)
    31b8:	4008                	lw	a0,0(s0)
    31ba:	0ff97993          	andi	s3,s2,255
    31be:	0ff97913          	andi	s2,s2,255
    31c2:	8d1d                	sub	a0,a0,a5
    31c4:	485c                	lw	a5,20(s0)
    31c6:	00f54663          	blt	a0,a5,31d2 <__swbuf_r+0x52>
    31ca:	85a2                	mv	a1,s0
    31cc:	8526                	mv	a0,s1
    31ce:	2c69                	jal	3468 <_fflush_r>
    31d0:	e525                	bnez	a0,3238 <__swbuf_r+0xb8>
    31d2:	441c                	lw	a5,8(s0)
    31d4:	0505                	addi	a0,a0,1
    31d6:	17fd                	addi	a5,a5,-1
    31d8:	c41c                	sw	a5,8(s0)
    31da:	401c                	lw	a5,0(s0)
    31dc:	00178713          	addi	a4,a5,1
    31e0:	c018                	sw	a4,0(s0)
    31e2:	01378023          	sb	s3,0(a5)
    31e6:	485c                	lw	a5,20(s0)
    31e8:	00a78863          	beq	a5,a0,31f8 <__swbuf_r+0x78>
    31ec:	245e                	lhu	a5,12(s0)
    31ee:	8b85                	andi	a5,a5,1
    31f0:	cb81                	beqz	a5,3200 <__swbuf_r+0x80>
    31f2:	47a9                	li	a5,10
    31f4:	00f91663          	bne	s2,a5,3200 <__swbuf_r+0x80>
    31f8:	85a2                	mv	a1,s0
    31fa:	8526                	mv	a0,s1
    31fc:	24b5                	jal	3468 <_fflush_r>
    31fe:	ed0d                	bnez	a0,3238 <__swbuf_r+0xb8>
    3200:	40f2                	lw	ra,28(sp)
    3202:	4462                	lw	s0,24(sp)
    3204:	854a                	mv	a0,s2
    3206:	44d2                	lw	s1,20(sp)
    3208:	4942                	lw	s2,16(sp)
    320a:	49b2                	lw	s3,12(sp)
    320c:	6105                	addi	sp,sp,32
    320e:	8082                	ret
    3210:	00002797          	auipc	a5,0x2
    3214:	84878793          	addi	a5,a5,-1976 # 4a58 <__sf_fake_stdout>
    3218:	00f41463          	bne	s0,a5,3220 <__swbuf_r+0xa0>
    321c:	4480                	lw	s0,8(s1)
    321e:	b769                	j	31a8 <__swbuf_r+0x28>
    3220:	00001797          	auipc	a5,0x1
    3224:	7f878793          	addi	a5,a5,2040 # 4a18 <__sf_fake_stderr>
    3228:	f8f410e3          	bne	s0,a5,31a8 <__swbuf_r+0x28>
    322c:	44c0                	lw	s0,12(s1)
    322e:	bfad                	j	31a8 <__swbuf_r+0x28>
    3230:	85a2                	mv	a1,s0
    3232:	8526                	mv	a0,s1
    3234:	2021                	jal	323c <__swsetup_r>
    3236:	d141                	beqz	a0,31b6 <__swbuf_r+0x36>
    3238:	597d                	li	s2,-1
    323a:	b7d9                	j	3200 <__swbuf_r+0x80>

0000323c <__swsetup_r>:
    323c:	1141                	addi	sp,sp,-16
    323e:	81018793          	addi	a5,gp,-2032 # 20000098 <_impure_ptr>
    3242:	c226                	sw	s1,4(sp)
    3244:	4384                	lw	s1,0(a5)
    3246:	c422                	sw	s0,8(sp)
    3248:	c04a                	sw	s2,0(sp)
    324a:	c606                	sw	ra,12(sp)
    324c:	892a                	mv	s2,a0
    324e:	842e                	mv	s0,a1
    3250:	c489                	beqz	s1,325a <__swsetup_r+0x1e>
    3252:	4c9c                	lw	a5,24(s1)
    3254:	e399                	bnez	a5,325a <__swsetup_r+0x1e>
    3256:	8526                	mv	a0,s1
    3258:	2635                	jal	3584 <__sinit>
    325a:	00001797          	auipc	a5,0x1
    325e:	7de78793          	addi	a5,a5,2014 # 4a38 <__sf_fake_stdin>
    3262:	02f41b63          	bne	s0,a5,3298 <__swsetup_r+0x5c>
    3266:	40c0                	lw	s0,4(s1)
    3268:	00c41703          	lh	a4,12(s0)
    326c:	01071793          	slli	a5,a4,0x10
    3270:	83c1                	srli	a5,a5,0x10
    3272:	0087f693          	andi	a3,a5,8
    3276:	eaad                	bnez	a3,32e8 <__swsetup_r+0xac>
    3278:	0107f693          	andi	a3,a5,16
    327c:	ee95                	bnez	a3,32b8 <__swsetup_r+0x7c>
    327e:	47a5                	li	a5,9
    3280:	00f92023          	sw	a5,0(s2)
    3284:	04076713          	ori	a4,a4,64
    3288:	a45a                	sh	a4,12(s0)
    328a:	557d                	li	a0,-1
    328c:	40b2                	lw	ra,12(sp)
    328e:	4422                	lw	s0,8(sp)
    3290:	4492                	lw	s1,4(sp)
    3292:	4902                	lw	s2,0(sp)
    3294:	0141                	addi	sp,sp,16
    3296:	8082                	ret
    3298:	00001797          	auipc	a5,0x1
    329c:	7c078793          	addi	a5,a5,1984 # 4a58 <__sf_fake_stdout>
    32a0:	00f41463          	bne	s0,a5,32a8 <__swsetup_r+0x6c>
    32a4:	4480                	lw	s0,8(s1)
    32a6:	b7c9                	j	3268 <__swsetup_r+0x2c>
    32a8:	00001797          	auipc	a5,0x1
    32ac:	77078793          	addi	a5,a5,1904 # 4a18 <__sf_fake_stderr>
    32b0:	faf41ce3          	bne	s0,a5,3268 <__swsetup_r+0x2c>
    32b4:	44c0                	lw	s0,12(s1)
    32b6:	bf4d                	j	3268 <__swsetup_r+0x2c>
    32b8:	8b91                	andi	a5,a5,4
    32ba:	c39d                	beqz	a5,32e0 <__swsetup_r+0xa4>
    32bc:	584c                	lw	a1,52(s0)
    32be:	c989                	beqz	a1,32d0 <__swsetup_r+0x94>
    32c0:	04440793          	addi	a5,s0,68
    32c4:	00f58463          	beq	a1,a5,32cc <__swsetup_r+0x90>
    32c8:	854a                	mv	a0,s2
    32ca:	2b29                	jal	37e4 <_free_r>
    32cc:	02042a23          	sw	zero,52(s0)
    32d0:	245e                	lhu	a5,12(s0)
    32d2:	00042223          	sw	zero,4(s0)
    32d6:	fdb7f793          	andi	a5,a5,-37
    32da:	a45e                	sh	a5,12(s0)
    32dc:	481c                	lw	a5,16(s0)
    32de:	c01c                	sw	a5,0(s0)
    32e0:	245e                	lhu	a5,12(s0)
    32e2:	0087e793          	ori	a5,a5,8
    32e6:	a45e                	sh	a5,12(s0)
    32e8:	481c                	lw	a5,16(s0)
    32ea:	eb99                	bnez	a5,3300 <__swsetup_r+0xc4>
    32ec:	245e                	lhu	a5,12(s0)
    32ee:	20000713          	li	a4,512
    32f2:	2807f793          	andi	a5,a5,640
    32f6:	00e78563          	beq	a5,a4,3300 <__swsetup_r+0xc4>
    32fa:	85a2                	mv	a1,s0
    32fc:	854a                	mv	a0,s2
    32fe:	2991                	jal	3752 <__smakebuf_r>
    3300:	245e                	lhu	a5,12(s0)
    3302:	0017f713          	andi	a4,a5,1
    3306:	c31d                	beqz	a4,332c <__swsetup_r+0xf0>
    3308:	485c                	lw	a5,20(s0)
    330a:	00042423          	sw	zero,8(s0)
    330e:	40f007b3          	neg	a5,a5
    3312:	cc1c                	sw	a5,24(s0)
    3314:	481c                	lw	a5,16(s0)
    3316:	4501                	li	a0,0
    3318:	fbb5                	bnez	a5,328c <__swsetup_r+0x50>
    331a:	00c41783          	lh	a5,12(s0)
    331e:	0807f713          	andi	a4,a5,128
    3322:	d72d                	beqz	a4,328c <__swsetup_r+0x50>
    3324:	0407e793          	ori	a5,a5,64
    3328:	a45e                	sh	a5,12(s0)
    332a:	b785                	j	328a <__swsetup_r+0x4e>
    332c:	8b89                	andi	a5,a5,2
    332e:	4701                	li	a4,0
    3330:	e391                	bnez	a5,3334 <__swsetup_r+0xf8>
    3332:	4858                	lw	a4,20(s0)
    3334:	c418                	sw	a4,8(s0)
    3336:	bff9                	j	3314 <__swsetup_r+0xd8>

00003338 <__sflush_r>:
    3338:	25de                	lhu	a5,12(a1)
    333a:	1101                	addi	sp,sp,-32
    333c:	cc22                	sw	s0,24(sp)
    333e:	ca26                	sw	s1,20(sp)
    3340:	ce06                	sw	ra,28(sp)
    3342:	c84a                	sw	s2,16(sp)
    3344:	c64e                	sw	s3,12(sp)
    3346:	0087f713          	andi	a4,a5,8
    334a:	84aa                	mv	s1,a0
    334c:	842e                	mv	s0,a1
    334e:	eb79                	bnez	a4,3424 <__sflush_r+0xec>
    3350:	41d8                	lw	a4,4(a1)
    3352:	00e04d63          	bgtz	a4,336c <__sflush_r+0x34>
    3356:	41b8                	lw	a4,64(a1)
    3358:	00e04a63          	bgtz	a4,336c <__sflush_r+0x34>
    335c:	4501                	li	a0,0
    335e:	40f2                	lw	ra,28(sp)
    3360:	4462                	lw	s0,24(sp)
    3362:	44d2                	lw	s1,20(sp)
    3364:	4942                	lw	s2,16(sp)
    3366:	49b2                	lw	s3,12(sp)
    3368:	6105                	addi	sp,sp,32
    336a:	8082                	ret
    336c:	5458                	lw	a4,44(s0)
    336e:	d77d                	beqz	a4,335c <__sflush_r+0x24>
    3370:	0004a903          	lw	s2,0(s1)
    3374:	01379693          	slli	a3,a5,0x13
    3378:	0004a023          	sw	zero,0(s1)
    337c:	0606db63          	bgez	a3,33f2 <__sflush_r+0xba>
    3380:	4870                	lw	a2,84(s0)
    3382:	245e                	lhu	a5,12(s0)
    3384:	8b91                	andi	a5,a5,4
    3386:	c799                	beqz	a5,3394 <__sflush_r+0x5c>
    3388:	405c                	lw	a5,4(s0)
    338a:	8e1d                	sub	a2,a2,a5
    338c:	585c                	lw	a5,52(s0)
    338e:	c399                	beqz	a5,3394 <__sflush_r+0x5c>
    3390:	403c                	lw	a5,64(s0)
    3392:	8e1d                	sub	a2,a2,a5
    3394:	545c                	lw	a5,44(s0)
    3396:	500c                	lw	a1,32(s0)
    3398:	4681                	li	a3,0
    339a:	8526                	mv	a0,s1
    339c:	9782                	jalr	a5
    339e:	57fd                	li	a5,-1
    33a0:	245a                	lhu	a4,12(s0)
    33a2:	00f51d63          	bne	a0,a5,33bc <__sflush_r+0x84>
    33a6:	4094                	lw	a3,0(s1)
    33a8:	47f5                	li	a5,29
    33aa:	06d7e863          	bltu	a5,a3,341a <__sflush_r+0xe2>
    33ae:	204007b7          	lui	a5,0x20400
    33b2:	0785                	addi	a5,a5,1
    33b4:	00d7d7b3          	srl	a5,a5,a3
    33b8:	8b85                	andi	a5,a5,1
    33ba:	c3a5                	beqz	a5,341a <__sflush_r+0xe2>
    33bc:	481c                	lw	a5,16(s0)
    33be:	00042223          	sw	zero,4(s0)
    33c2:	c01c                	sw	a5,0(s0)
    33c4:	01371793          	slli	a5,a4,0x13
    33c8:	0007d863          	bgez	a5,33d8 <__sflush_r+0xa0>
    33cc:	57fd                	li	a5,-1
    33ce:	00f51463          	bne	a0,a5,33d6 <__sflush_r+0x9e>
    33d2:	409c                	lw	a5,0(s1)
    33d4:	e391                	bnez	a5,33d8 <__sflush_r+0xa0>
    33d6:	c868                	sw	a0,84(s0)
    33d8:	584c                	lw	a1,52(s0)
    33da:	0124a023          	sw	s2,0(s1)
    33de:	ddbd                	beqz	a1,335c <__sflush_r+0x24>
    33e0:	04440793          	addi	a5,s0,68
    33e4:	00f58463          	beq	a1,a5,33ec <__sflush_r+0xb4>
    33e8:	8526                	mv	a0,s1
    33ea:	2eed                	jal	37e4 <_free_r>
    33ec:	02042a23          	sw	zero,52(s0)
    33f0:	b7b5                	j	335c <__sflush_r+0x24>
    33f2:	500c                	lw	a1,32(s0)
    33f4:	4601                	li	a2,0
    33f6:	4685                	li	a3,1
    33f8:	8526                	mv	a0,s1
    33fa:	9702                	jalr	a4
    33fc:	57fd                	li	a5,-1
    33fe:	862a                	mv	a2,a0
    3400:	f8f511e3          	bne	a0,a5,3382 <__sflush_r+0x4a>
    3404:	409c                	lw	a5,0(s1)
    3406:	dfb5                	beqz	a5,3382 <__sflush_r+0x4a>
    3408:	4775                	li	a4,29
    340a:	00e78563          	beq	a5,a4,3414 <__sflush_r+0xdc>
    340e:	4759                	li	a4,22
    3410:	04e79363          	bne	a5,a4,3456 <__sflush_r+0x11e>
    3414:	0124a023          	sw	s2,0(s1)
    3418:	b791                	j	335c <__sflush_r+0x24>
    341a:	04076713          	ori	a4,a4,64
    341e:	a45a                	sh	a4,12(s0)
    3420:	557d                	li	a0,-1
    3422:	bf35                	j	335e <__sflush_r+0x26>
    3424:	0105a983          	lw	s3,16(a1)
    3428:	f2098ae3          	beqz	s3,335c <__sflush_r+0x24>
    342c:	0005a903          	lw	s2,0(a1)
    3430:	8b8d                	andi	a5,a5,3
    3432:	0135a023          	sw	s3,0(a1)
    3436:	41390933          	sub	s2,s2,s3
    343a:	4701                	li	a4,0
    343c:	e391                	bnez	a5,3440 <__sflush_r+0x108>
    343e:	49d8                	lw	a4,20(a1)
    3440:	c418                	sw	a4,8(s0)
    3442:	f1205de3          	blez	s2,335c <__sflush_r+0x24>
    3446:	541c                	lw	a5,40(s0)
    3448:	500c                	lw	a1,32(s0)
    344a:	86ca                	mv	a3,s2
    344c:	864e                	mv	a2,s3
    344e:	8526                	mv	a0,s1
    3450:	9782                	jalr	a5
    3452:	00a04763          	bgtz	a0,3460 <__sflush_r+0x128>
    3456:	245e                	lhu	a5,12(s0)
    3458:	0407e793          	ori	a5,a5,64
    345c:	a45e                	sh	a5,12(s0)
    345e:	b7c9                	j	3420 <__sflush_r+0xe8>
    3460:	99aa                	add	s3,s3,a0
    3462:	40a90933          	sub	s2,s2,a0
    3466:	bff1                	j	3442 <__sflush_r+0x10a>

00003468 <_fflush_r>:
    3468:	499c                	lw	a5,16(a1)
    346a:	c3a5                	beqz	a5,34ca <_fflush_r+0x62>
    346c:	1101                	addi	sp,sp,-32
    346e:	cc22                	sw	s0,24(sp)
    3470:	ce06                	sw	ra,28(sp)
    3472:	842a                	mv	s0,a0
    3474:	c511                	beqz	a0,3480 <_fflush_r+0x18>
    3476:	4d1c                	lw	a5,24(a0)
    3478:	e781                	bnez	a5,3480 <_fflush_r+0x18>
    347a:	c62e                	sw	a1,12(sp)
    347c:	2221                	jal	3584 <__sinit>
    347e:	45b2                	lw	a1,12(sp)
    3480:	00001797          	auipc	a5,0x1
    3484:	5b878793          	addi	a5,a5,1464 # 4a38 <__sf_fake_stdin>
    3488:	00f59c63          	bne	a1,a5,34a0 <_fflush_r+0x38>
    348c:	404c                	lw	a1,4(s0)
    348e:	00c59783          	lh	a5,12(a1)
    3492:	c79d                	beqz	a5,34c0 <_fflush_r+0x58>
    3494:	8522                	mv	a0,s0
    3496:	4462                	lw	s0,24(sp)
    3498:	40f2                	lw	ra,28(sp)
    349a:	6105                	addi	sp,sp,32
    349c:	e9dff06f          	j	3338 <__sflush_r>
    34a0:	00001797          	auipc	a5,0x1
    34a4:	5b878793          	addi	a5,a5,1464 # 4a58 <__sf_fake_stdout>
    34a8:	00f59463          	bne	a1,a5,34b0 <_fflush_r+0x48>
    34ac:	440c                	lw	a1,8(s0)
    34ae:	b7c5                	j	348e <_fflush_r+0x26>
    34b0:	00001797          	auipc	a5,0x1
    34b4:	56878793          	addi	a5,a5,1384 # 4a18 <__sf_fake_stderr>
    34b8:	fcf59be3          	bne	a1,a5,348e <_fflush_r+0x26>
    34bc:	444c                	lw	a1,12(s0)
    34be:	bfc1                	j	348e <_fflush_r+0x26>
    34c0:	40f2                	lw	ra,28(sp)
    34c2:	4462                	lw	s0,24(sp)
    34c4:	4501                	li	a0,0
    34c6:	6105                	addi	sp,sp,32
    34c8:	8082                	ret
    34ca:	4501                	li	a0,0
    34cc:	8082                	ret

000034ce <std>:
    34ce:	1141                	addi	sp,sp,-16
    34d0:	c422                	sw	s0,8(sp)
    34d2:	c606                	sw	ra,12(sp)
    34d4:	842a                	mv	s0,a0
    34d6:	a54e                	sh	a1,12(a0)
    34d8:	a572                	sh	a2,14(a0)
    34da:	00052023          	sw	zero,0(a0)
    34de:	00052223          	sw	zero,4(a0)
    34e2:	00052423          	sw	zero,8(a0)
    34e6:	06052223          	sw	zero,100(a0)
    34ea:	00052823          	sw	zero,16(a0)
    34ee:	00052a23          	sw	zero,20(a0)
    34f2:	00052c23          	sw	zero,24(a0)
    34f6:	4621                	li	a2,8
    34f8:	4581                	li	a1,0
    34fa:	05c50513          	addi	a0,a0,92
    34fe:	c63fc0ef          	jal	ra,160 <memset>
    3502:	00001797          	auipc	a5,0x1
    3506:	b2878793          	addi	a5,a5,-1240 # 402a <__sread>
    350a:	d05c                	sw	a5,36(s0)
    350c:	00001797          	auipc	a5,0x1
    3510:	b4a78793          	addi	a5,a5,-1206 # 4056 <__swrite>
    3514:	d41c                	sw	a5,40(s0)
    3516:	00001797          	auipc	a5,0x1
    351a:	b8878793          	addi	a5,a5,-1144 # 409e <__sseek>
    351e:	d45c                	sw	a5,44(s0)
    3520:	00001797          	auipc	a5,0x1
    3524:	bae78793          	addi	a5,a5,-1106 # 40ce <__sclose>
    3528:	d000                	sw	s0,32(s0)
    352a:	d81c                	sw	a5,48(s0)
    352c:	40b2                	lw	ra,12(sp)
    352e:	4422                	lw	s0,8(sp)
    3530:	0141                	addi	sp,sp,16
    3532:	8082                	ret

00003534 <_cleanup_r>:
    3534:	00000597          	auipc	a1,0x0
    3538:	f3458593          	addi	a1,a1,-204 # 3468 <_fflush_r>
    353c:	aa91                	j	3690 <_fwalk_reent>

0000353e <__sfmoreglue>:
    353e:	1141                	addi	sp,sp,-16
    3540:	c226                	sw	s1,4(sp)
    3542:	06800613          	li	a2,104
    3546:	fff58493          	addi	s1,a1,-1
    354a:	02c484b3          	mul	s1,s1,a2
    354e:	c04a                	sw	s2,0(sp)
    3550:	892e                	mv	s2,a1
    3552:	c422                	sw	s0,8(sp)
    3554:	c606                	sw	ra,12(sp)
    3556:	07448593          	addi	a1,s1,116
    355a:	2e0d                	jal	388c <_malloc_r>
    355c:	842a                	mv	s0,a0
    355e:	cd01                	beqz	a0,3576 <__sfmoreglue+0x38>
    3560:	00052023          	sw	zero,0(a0)
    3564:	01252223          	sw	s2,4(a0)
    3568:	0531                	addi	a0,a0,12
    356a:	c408                	sw	a0,8(s0)
    356c:	06848613          	addi	a2,s1,104
    3570:	4581                	li	a1,0
    3572:	beffc0ef          	jal	ra,160 <memset>
    3576:	8522                	mv	a0,s0
    3578:	40b2                	lw	ra,12(sp)
    357a:	4422                	lw	s0,8(sp)
    357c:	4492                	lw	s1,4(sp)
    357e:	4902                	lw	s2,0(sp)
    3580:	0141                	addi	sp,sp,16
    3582:	8082                	ret

00003584 <__sinit>:
    3584:	4d1c                	lw	a5,24(a0)
    3586:	e7a5                	bnez	a5,35ee <__sinit+0x6a>
    3588:	1141                	addi	sp,sp,-16
    358a:	c606                	sw	ra,12(sp)
    358c:	c422                	sw	s0,8(sp)
    358e:	00000797          	auipc	a5,0x0
    3592:	fa678793          	addi	a5,a5,-90 # 3534 <_cleanup_r>
    3596:	d51c                	sw	a5,40(a0)
    3598:	81418793          	addi	a5,gp,-2028 # 2000009c <_global_impure_ptr>
    359c:	439c                	lw	a5,0(a5)
    359e:	04052423          	sw	zero,72(a0)
    35a2:	04052623          	sw	zero,76(a0)
    35a6:	04052823          	sw	zero,80(a0)
    35aa:	00f51463          	bne	a0,a5,35b2 <__sinit+0x2e>
    35ae:	4785                	li	a5,1
    35b0:	cd1c                	sw	a5,24(a0)
    35b2:	842a                	mv	s0,a0
    35b4:	2835                	jal	35f0 <__sfp>
    35b6:	c048                	sw	a0,4(s0)
    35b8:	8522                	mv	a0,s0
    35ba:	281d                	jal	35f0 <__sfp>
    35bc:	c408                	sw	a0,8(s0)
    35be:	8522                	mv	a0,s0
    35c0:	2805                	jal	35f0 <__sfp>
    35c2:	c448                	sw	a0,12(s0)
    35c4:	4048                	lw	a0,4(s0)
    35c6:	4601                	li	a2,0
    35c8:	4591                	li	a1,4
    35ca:	f05ff0ef          	jal	ra,34ce <std>
    35ce:	4408                	lw	a0,8(s0)
    35d0:	4605                	li	a2,1
    35d2:	45a5                	li	a1,9
    35d4:	efbff0ef          	jal	ra,34ce <std>
    35d8:	4448                	lw	a0,12(s0)
    35da:	4609                	li	a2,2
    35dc:	45c9                	li	a1,18
    35de:	ef1ff0ef          	jal	ra,34ce <std>
    35e2:	4785                	li	a5,1
    35e4:	cc1c                	sw	a5,24(s0)
    35e6:	40b2                	lw	ra,12(sp)
    35e8:	4422                	lw	s0,8(sp)
    35ea:	0141                	addi	sp,sp,16
    35ec:	8082                	ret
    35ee:	8082                	ret

000035f0 <__sfp>:
    35f0:	1141                	addi	sp,sp,-16
    35f2:	81418793          	addi	a5,gp,-2028 # 2000009c <_global_impure_ptr>
    35f6:	c226                	sw	s1,4(sp)
    35f8:	4384                	lw	s1,0(a5)
    35fa:	c04a                	sw	s2,0(sp)
    35fc:	c606                	sw	ra,12(sp)
    35fe:	4c9c                	lw	a5,24(s1)
    3600:	c422                	sw	s0,8(sp)
    3602:	892a                	mv	s2,a0
    3604:	e781                	bnez	a5,360c <__sfp+0x1c>
    3606:	8526                	mv	a0,s1
    3608:	f7dff0ef          	jal	ra,3584 <__sinit>
    360c:	04848493          	addi	s1,s1,72
    3610:	4480                	lw	s0,8(s1)
    3612:	40dc                	lw	a5,4(s1)
    3614:	17fd                	addi	a5,a5,-1
    3616:	0007d663          	bgez	a5,3622 <__sfp+0x32>
    361a:	409c                	lw	a5,0(s1)
    361c:	cfb9                	beqz	a5,367a <__sfp+0x8a>
    361e:	4084                	lw	s1,0(s1)
    3620:	bfc5                	j	3610 <__sfp+0x20>
    3622:	00c41703          	lh	a4,12(s0)
    3626:	e739                	bnez	a4,3674 <__sfp+0x84>
    3628:	77c1                	lui	a5,0xffff0
    362a:	0785                	addi	a5,a5,1
    362c:	06042223          	sw	zero,100(s0)
    3630:	00042023          	sw	zero,0(s0)
    3634:	00042223          	sw	zero,4(s0)
    3638:	00042423          	sw	zero,8(s0)
    363c:	c45c                	sw	a5,12(s0)
    363e:	00042823          	sw	zero,16(s0)
    3642:	00042a23          	sw	zero,20(s0)
    3646:	00042c23          	sw	zero,24(s0)
    364a:	4621                	li	a2,8
    364c:	4581                	li	a1,0
    364e:	05c40513          	addi	a0,s0,92
    3652:	b0ffc0ef          	jal	ra,160 <memset>
    3656:	02042a23          	sw	zero,52(s0)
    365a:	02042c23          	sw	zero,56(s0)
    365e:	04042423          	sw	zero,72(s0)
    3662:	04042623          	sw	zero,76(s0)
    3666:	8522                	mv	a0,s0
    3668:	40b2                	lw	ra,12(sp)
    366a:	4422                	lw	s0,8(sp)
    366c:	4492                	lw	s1,4(sp)
    366e:	4902                	lw	s2,0(sp)
    3670:	0141                	addi	sp,sp,16
    3672:	8082                	ret
    3674:	06840413          	addi	s0,s0,104
    3678:	bf71                	j	3614 <__sfp+0x24>
    367a:	4591                	li	a1,4
    367c:	854a                	mv	a0,s2
    367e:	ec1ff0ef          	jal	ra,353e <__sfmoreglue>
    3682:	c088                	sw	a0,0(s1)
    3684:	fd49                	bnez	a0,361e <__sfp+0x2e>
    3686:	47b1                	li	a5,12
    3688:	00f92023          	sw	a5,0(s2)
    368c:	4401                	li	s0,0
    368e:	bfe1                	j	3666 <__sfp+0x76>

00003690 <_fwalk_reent>:
    3690:	7179                	addi	sp,sp,-48
    3692:	d422                	sw	s0,40(sp)
    3694:	d04a                	sw	s2,32(sp)
    3696:	cc52                	sw	s4,24(sp)
    3698:	ca56                	sw	s5,20(sp)
    369a:	c85a                	sw	s6,16(sp)
    369c:	c65e                	sw	s7,12(sp)
    369e:	d606                	sw	ra,44(sp)
    36a0:	d226                	sw	s1,36(sp)
    36a2:	ce4e                	sw	s3,28(sp)
    36a4:	8a2a                	mv	s4,a0
    36a6:	8aae                	mv	s5,a1
    36a8:	04850413          	addi	s0,a0,72
    36ac:	4901                	li	s2,0
    36ae:	4b05                	li	s6,1
    36b0:	5bfd                	li	s7,-1
    36b2:	ec09                	bnez	s0,36cc <_fwalk_reent+0x3c>
    36b4:	50b2                	lw	ra,44(sp)
    36b6:	5422                	lw	s0,40(sp)
    36b8:	854a                	mv	a0,s2
    36ba:	5492                	lw	s1,36(sp)
    36bc:	5902                	lw	s2,32(sp)
    36be:	49f2                	lw	s3,28(sp)
    36c0:	4a62                	lw	s4,24(sp)
    36c2:	4ad2                	lw	s5,20(sp)
    36c4:	4b42                	lw	s6,16(sp)
    36c6:	4bb2                	lw	s7,12(sp)
    36c8:	6145                	addi	sp,sp,48
    36ca:	8082                	ret
    36cc:	4404                	lw	s1,8(s0)
    36ce:	00442983          	lw	s3,4(s0)
    36d2:	19fd                	addi	s3,s3,-1
    36d4:	0009d463          	bgez	s3,36dc <_fwalk_reent+0x4c>
    36d8:	4000                	lw	s0,0(s0)
    36da:	bfe1                	j	36b2 <_fwalk_reent+0x22>
    36dc:	24de                	lhu	a5,12(s1)
    36de:	00fb7b63          	bgeu	s6,a5,36f4 <_fwalk_reent+0x64>
    36e2:	00e49783          	lh	a5,14(s1)
    36e6:	01778763          	beq	a5,s7,36f4 <_fwalk_reent+0x64>
    36ea:	85a6                	mv	a1,s1
    36ec:	8552                	mv	a0,s4
    36ee:	9a82                	jalr	s5
    36f0:	00a96933          	or	s2,s2,a0
    36f4:	06848493          	addi	s1,s1,104
    36f8:	bfe9                	j	36d2 <_fwalk_reent+0x42>

000036fa <__swhatbuf_r>:
    36fa:	7119                	addi	sp,sp,-128
    36fc:	daa6                	sw	s1,116(sp)
    36fe:	84ae                	mv	s1,a1
    3700:	00e59583          	lh	a1,14(a1)
    3704:	dca2                	sw	s0,120(sp)
    3706:	de86                	sw	ra,124(sp)
    3708:	8432                	mv	s0,a2
    370a:	0005db63          	bgez	a1,3720 <__swhatbuf_r+0x26>
    370e:	24de                	lhu	a5,12(s1)
    3710:	0006a023          	sw	zero,0(a3)
    3714:	0807f793          	andi	a5,a5,128
    3718:	e785                	bnez	a5,3740 <__swhatbuf_r+0x46>
    371a:	40000793          	li	a5,1024
    371e:	a01d                	j	3744 <__swhatbuf_r+0x4a>
    3720:	0830                	addi	a2,sp,24
    3722:	c636                	sw	a3,12(sp)
    3724:	207000ef          	jal	ra,412a <_fstat_r>
    3728:	46b2                	lw	a3,12(sp)
    372a:	fe0542e3          	bltz	a0,370e <__swhatbuf_r+0x14>
    372e:	4772                	lw	a4,28(sp)
    3730:	67bd                	lui	a5,0xf
    3732:	8ff9                	and	a5,a5,a4
    3734:	7779                	lui	a4,0xffffe
    3736:	97ba                	add	a5,a5,a4
    3738:	0017b793          	seqz	a5,a5
    373c:	c29c                	sw	a5,0(a3)
    373e:	bff1                	j	371a <__swhatbuf_r+0x20>
    3740:	04000793          	li	a5,64
    3744:	c01c                	sw	a5,0(s0)
    3746:	50f6                	lw	ra,124(sp)
    3748:	5466                	lw	s0,120(sp)
    374a:	54d6                	lw	s1,116(sp)
    374c:	4501                	li	a0,0
    374e:	6109                	addi	sp,sp,128
    3750:	8082                	ret

00003752 <__smakebuf_r>:
    3752:	25de                	lhu	a5,12(a1)
    3754:	1101                	addi	sp,sp,-32
    3756:	cc22                	sw	s0,24(sp)
    3758:	ce06                	sw	ra,28(sp)
    375a:	ca26                	sw	s1,20(sp)
    375c:	c84a                	sw	s2,16(sp)
    375e:	8b89                	andi	a5,a5,2
    3760:	842e                	mv	s0,a1
    3762:	cf89                	beqz	a5,377c <__smakebuf_r+0x2a>
    3764:	04740793          	addi	a5,s0,71
    3768:	c01c                	sw	a5,0(s0)
    376a:	c81c                	sw	a5,16(s0)
    376c:	4785                	li	a5,1
    376e:	c85c                	sw	a5,20(s0)
    3770:	40f2                	lw	ra,28(sp)
    3772:	4462                	lw	s0,24(sp)
    3774:	44d2                	lw	s1,20(sp)
    3776:	4942                	lw	s2,16(sp)
    3778:	6105                	addi	sp,sp,32
    377a:	8082                	ret
    377c:	0074                	addi	a3,sp,12
    377e:	0030                	addi	a2,sp,8
    3780:	84aa                	mv	s1,a0
    3782:	f79ff0ef          	jal	ra,36fa <__swhatbuf_r>
    3786:	45a2                	lw	a1,8(sp)
    3788:	892a                	mv	s2,a0
    378a:	8526                	mv	a0,s1
    378c:	2201                	jal	388c <_malloc_r>
    378e:	e919                	bnez	a0,37a4 <__smakebuf_r+0x52>
    3790:	00c41783          	lh	a5,12(s0)
    3794:	2007f713          	andi	a4,a5,512
    3798:	ff61                	bnez	a4,3770 <__smakebuf_r+0x1e>
    379a:	9bf1                	andi	a5,a5,-4
    379c:	0027e793          	ori	a5,a5,2
    37a0:	a45e                	sh	a5,12(s0)
    37a2:	b7c9                	j	3764 <__smakebuf_r+0x12>
    37a4:	00000797          	auipc	a5,0x0
    37a8:	d9078793          	addi	a5,a5,-624 # 3534 <_cleanup_r>
    37ac:	d49c                	sw	a5,40(s1)
    37ae:	245e                	lhu	a5,12(s0)
    37b0:	c008                	sw	a0,0(s0)
    37b2:	c808                	sw	a0,16(s0)
    37b4:	0807e793          	ori	a5,a5,128
    37b8:	a45e                	sh	a5,12(s0)
    37ba:	47a2                	lw	a5,8(sp)
    37bc:	c85c                	sw	a5,20(s0)
    37be:	47b2                	lw	a5,12(sp)
    37c0:	cf81                	beqz	a5,37d8 <__smakebuf_r+0x86>
    37c2:	00e41583          	lh	a1,14(s0)
    37c6:	8526                	mv	a0,s1
    37c8:	18d000ef          	jal	ra,4154 <_isatty_r>
    37cc:	c511                	beqz	a0,37d8 <__smakebuf_r+0x86>
    37ce:	245e                	lhu	a5,12(s0)
    37d0:	9bf1                	andi	a5,a5,-4
    37d2:	0017e793          	ori	a5,a5,1
    37d6:	a45e                	sh	a5,12(s0)
    37d8:	245e                	lhu	a5,12(s0)
    37da:	00f96933          	or	s2,s2,a5
    37de:	01241623          	sh	s2,12(s0)
    37e2:	b779                	j	3770 <__smakebuf_r+0x1e>

000037e4 <_free_r>:
    37e4:	c1dd                	beqz	a1,388a <_free_r+0xa6>
    37e6:	ffc5a783          	lw	a5,-4(a1)
    37ea:	1141                	addi	sp,sp,-16
    37ec:	c422                	sw	s0,8(sp)
    37ee:	c606                	sw	ra,12(sp)
    37f0:	c226                	sw	s1,4(sp)
    37f2:	ffc58413          	addi	s0,a1,-4
    37f6:	0007d363          	bgez	a5,37fc <_free_r+0x18>
    37fa:	943e                	add	s0,s0,a5
    37fc:	84aa                	mv	s1,a0
    37fe:	1c3000ef          	jal	ra,41c0 <__malloc_lock>
    3802:	83c18793          	addi	a5,gp,-1988 # 200000c4 <__malloc_free_list>
    3806:	439c                	lw	a5,0(a5)
    3808:	ef81                	bnez	a5,3820 <_free_r+0x3c>
    380a:	00042223          	sw	zero,4(s0)
    380e:	8281ae23          	sw	s0,-1988(gp) # 200000c4 <__malloc_free_list>
    3812:	4422                	lw	s0,8(sp)
    3814:	40b2                	lw	ra,12(sp)
    3816:	8526                	mv	a0,s1
    3818:	4492                	lw	s1,4(sp)
    381a:	0141                	addi	sp,sp,16
    381c:	1a70006f          	j	41c2 <__malloc_unlock>
    3820:	00f47e63          	bgeu	s0,a5,383c <_free_r+0x58>
    3824:	4014                	lw	a3,0(s0)
    3826:	00d40733          	add	a4,s0,a3
    382a:	00e79663          	bne	a5,a4,3836 <_free_r+0x52>
    382e:	4398                	lw	a4,0(a5)
    3830:	43dc                	lw	a5,4(a5)
    3832:	9736                	add	a4,a4,a3
    3834:	c018                	sw	a4,0(s0)
    3836:	c05c                	sw	a5,4(s0)
    3838:	bfd9                	j	380e <_free_r+0x2a>
    383a:	87ba                	mv	a5,a4
    383c:	43d8                	lw	a4,4(a5)
    383e:	c319                	beqz	a4,3844 <_free_r+0x60>
    3840:	fee47de3          	bgeu	s0,a4,383a <_free_r+0x56>
    3844:	4394                	lw	a3,0(a5)
    3846:	00d78633          	add	a2,a5,a3
    384a:	00861f63          	bne	a2,s0,3868 <_free_r+0x84>
    384e:	4010                	lw	a2,0(s0)
    3850:	96b2                	add	a3,a3,a2
    3852:	c394                	sw	a3,0(a5)
    3854:	00d78633          	add	a2,a5,a3
    3858:	fac71de3          	bne	a4,a2,3812 <_free_r+0x2e>
    385c:	4310                	lw	a2,0(a4)
    385e:	4358                	lw	a4,4(a4)
    3860:	96b2                	add	a3,a3,a2
    3862:	c394                	sw	a3,0(a5)
    3864:	c3d8                	sw	a4,4(a5)
    3866:	b775                	j	3812 <_free_r+0x2e>
    3868:	00c47563          	bgeu	s0,a2,3872 <_free_r+0x8e>
    386c:	47b1                	li	a5,12
    386e:	c09c                	sw	a5,0(s1)
    3870:	b74d                	j	3812 <_free_r+0x2e>
    3872:	4010                	lw	a2,0(s0)
    3874:	00c406b3          	add	a3,s0,a2
    3878:	00d71663          	bne	a4,a3,3884 <_free_r+0xa0>
    387c:	4314                	lw	a3,0(a4)
    387e:	4358                	lw	a4,4(a4)
    3880:	96b2                	add	a3,a3,a2
    3882:	c014                	sw	a3,0(s0)
    3884:	c058                	sw	a4,4(s0)
    3886:	c3c0                	sw	s0,4(a5)
    3888:	b769                	j	3812 <_free_r+0x2e>
    388a:	8082                	ret

0000388c <_malloc_r>:
    388c:	1101                	addi	sp,sp,-32
    388e:	ca26                	sw	s1,20(sp)
    3890:	00358493          	addi	s1,a1,3
    3894:	98f1                	andi	s1,s1,-4
    3896:	ce06                	sw	ra,28(sp)
    3898:	cc22                	sw	s0,24(sp)
    389a:	c84a                	sw	s2,16(sp)
    389c:	c64e                	sw	s3,12(sp)
    389e:	04a1                	addi	s1,s1,8
    38a0:	47b1                	li	a5,12
    38a2:	04f4f363          	bgeu	s1,a5,38e8 <_malloc_r+0x5c>
    38a6:	44b1                	li	s1,12
    38a8:	04b4e263          	bltu	s1,a1,38ec <_malloc_r+0x60>
    38ac:	892a                	mv	s2,a0
    38ae:	113000ef          	jal	ra,41c0 <__malloc_lock>
    38b2:	83c18793          	addi	a5,gp,-1988 # 200000c4 <__malloc_free_list>
    38b6:	4398                	lw	a4,0(a5)
    38b8:	843a                	mv	s0,a4
    38ba:	e039                	bnez	s0,3900 <_malloc_r+0x74>
    38bc:	84018793          	addi	a5,gp,-1984 # 200000c8 <__malloc_sbrk_start>
    38c0:	439c                	lw	a5,0(a5)
    38c2:	e791                	bnez	a5,38ce <_malloc_r+0x42>
    38c4:	4581                	li	a1,0
    38c6:	854a                	mv	a0,s2
    38c8:	2f25                	jal	4000 <_sbrk_r>
    38ca:	84a1a023          	sw	a0,-1984(gp) # 200000c8 <__malloc_sbrk_start>
    38ce:	85a6                	mv	a1,s1
    38d0:	854a                	mv	a0,s2
    38d2:	273d                	jal	4000 <_sbrk_r>
    38d4:	59fd                	li	s3,-1
    38d6:	07351963          	bne	a0,s3,3948 <_malloc_r+0xbc>
    38da:	47b1                	li	a5,12
    38dc:	00f92023          	sw	a5,0(s2)
    38e0:	854a                	mv	a0,s2
    38e2:	0e1000ef          	jal	ra,41c2 <__malloc_unlock>
    38e6:	a029                	j	38f0 <_malloc_r+0x64>
    38e8:	fc04d0e3          	bgez	s1,38a8 <_malloc_r+0x1c>
    38ec:	47b1                	li	a5,12
    38ee:	c11c                	sw	a5,0(a0)
    38f0:	4501                	li	a0,0
    38f2:	40f2                	lw	ra,28(sp)
    38f4:	4462                	lw	s0,24(sp)
    38f6:	44d2                	lw	s1,20(sp)
    38f8:	4942                	lw	s2,16(sp)
    38fa:	49b2                	lw	s3,12(sp)
    38fc:	6105                	addi	sp,sp,32
    38fe:	8082                	ret
    3900:	401c                	lw	a5,0(s0)
    3902:	8f85                	sub	a5,a5,s1
    3904:	0207cf63          	bltz	a5,3942 <_malloc_r+0xb6>
    3908:	46ad                	li	a3,11
    390a:	00f6f663          	bgeu	a3,a5,3916 <_malloc_r+0x8a>
    390e:	c01c                	sw	a5,0(s0)
    3910:	943e                	add	s0,s0,a5
    3912:	c004                	sw	s1,0(s0)
    3914:	a031                	j	3920 <_malloc_r+0x94>
    3916:	405c                	lw	a5,4(s0)
    3918:	02871363          	bne	a4,s0,393e <_malloc_r+0xb2>
    391c:	82f1ae23          	sw	a5,-1988(gp) # 200000c4 <__malloc_free_list>
    3920:	854a                	mv	a0,s2
    3922:	0a1000ef          	jal	ra,41c2 <__malloc_unlock>
    3926:	00b40513          	addi	a0,s0,11
    392a:	00440793          	addi	a5,s0,4
    392e:	9961                	andi	a0,a0,-8
    3930:	40f50733          	sub	a4,a0,a5
    3934:	df5d                	beqz	a4,38f2 <_malloc_r+0x66>
    3936:	943a                	add	s0,s0,a4
    3938:	8f89                	sub	a5,a5,a0
    393a:	c01c                	sw	a5,0(s0)
    393c:	bf5d                	j	38f2 <_malloc_r+0x66>
    393e:	c35c                	sw	a5,4(a4)
    3940:	b7c5                	j	3920 <_malloc_r+0x94>
    3942:	8722                	mv	a4,s0
    3944:	4040                	lw	s0,4(s0)
    3946:	bf95                	j	38ba <_malloc_r+0x2e>
    3948:	00350413          	addi	s0,a0,3
    394c:	9871                	andi	s0,s0,-4
    394e:	fc8502e3          	beq	a0,s0,3912 <_malloc_r+0x86>
    3952:	40a405b3          	sub	a1,s0,a0
    3956:	854a                	mv	a0,s2
    3958:	2565                	jal	4000 <_sbrk_r>
    395a:	fb351ce3          	bne	a0,s3,3912 <_malloc_r+0x86>
    395e:	bfb5                	j	38da <_malloc_r+0x4e>

00003960 <__sfputc_r>:
    3960:	461c                	lw	a5,8(a2)
    3962:	17fd                	addi	a5,a5,-1
    3964:	c61c                	sw	a5,8(a2)
    3966:	0007da63          	bgez	a5,397a <__sfputc_r+0x1a>
    396a:	4e18                	lw	a4,24(a2)
    396c:	00e7c563          	blt	a5,a4,3976 <__sfputc_r+0x16>
    3970:	47a9                	li	a5,10
    3972:	00f59463          	bne	a1,a5,397a <__sfputc_r+0x1a>
    3976:	80bff06f          	j	3180 <__swbuf_r>
    397a:	421c                	lw	a5,0(a2)
    397c:	852e                	mv	a0,a1
    397e:	00178713          	addi	a4,a5,1
    3982:	c218                	sw	a4,0(a2)
    3984:	a38c                	sb	a1,0(a5)
    3986:	8082                	ret

00003988 <__sfputs_r>:
    3988:	1101                	addi	sp,sp,-32
    398a:	cc22                	sw	s0,24(sp)
    398c:	ca26                	sw	s1,20(sp)
    398e:	c84a                	sw	s2,16(sp)
    3990:	c64e                	sw	s3,12(sp)
    3992:	c452                	sw	s4,8(sp)
    3994:	ce06                	sw	ra,28(sp)
    3996:	892a                	mv	s2,a0
    3998:	89ae                	mv	s3,a1
    399a:	8432                	mv	s0,a2
    399c:	00d604b3          	add	s1,a2,a3
    39a0:	5a7d                	li	s4,-1
    39a2:	00941463          	bne	s0,s1,39aa <__sfputs_r+0x22>
    39a6:	4501                	li	a0,0
    39a8:	a809                	j	39ba <__sfputs_r+0x32>
    39aa:	200c                	lbu	a1,0(s0)
    39ac:	864e                	mv	a2,s3
    39ae:	854a                	mv	a0,s2
    39b0:	fb1ff0ef          	jal	ra,3960 <__sfputc_r>
    39b4:	0405                	addi	s0,s0,1
    39b6:	ff4516e3          	bne	a0,s4,39a2 <__sfputs_r+0x1a>
    39ba:	40f2                	lw	ra,28(sp)
    39bc:	4462                	lw	s0,24(sp)
    39be:	44d2                	lw	s1,20(sp)
    39c0:	4942                	lw	s2,16(sp)
    39c2:	49b2                	lw	s3,12(sp)
    39c4:	4a22                	lw	s4,8(sp)
    39c6:	6105                	addi	sp,sp,32
    39c8:	8082                	ret

000039ca <_vfiprintf_r>:
    39ca:	7135                	addi	sp,sp,-160
    39cc:	cd22                	sw	s0,152(sp)
    39ce:	cb26                	sw	s1,148(sp)
    39d0:	c94a                	sw	s2,144(sp)
    39d2:	c74e                	sw	s3,140(sp)
    39d4:	cf06                	sw	ra,156(sp)
    39d6:	c552                	sw	s4,136(sp)
    39d8:	c356                	sw	s5,132(sp)
    39da:	c15a                	sw	s6,128(sp)
    39dc:	dede                	sw	s7,124(sp)
    39de:	dce2                	sw	s8,120(sp)
    39e0:	dae6                	sw	s9,116(sp)
    39e2:	89aa                	mv	s3,a0
    39e4:	84ae                	mv	s1,a1
    39e6:	8932                	mv	s2,a2
    39e8:	8436                	mv	s0,a3
    39ea:	c509                	beqz	a0,39f4 <_vfiprintf_r+0x2a>
    39ec:	4d1c                	lw	a5,24(a0)
    39ee:	e399                	bnez	a5,39f4 <_vfiprintf_r+0x2a>
    39f0:	b95ff0ef          	jal	ra,3584 <__sinit>
    39f4:	00001797          	auipc	a5,0x1
    39f8:	04478793          	addi	a5,a5,68 # 4a38 <__sf_fake_stdin>
    39fc:	0cf49863          	bne	s1,a5,3acc <_vfiprintf_r+0x102>
    3a00:	0049a483          	lw	s1,4(s3)
    3a04:	24de                	lhu	a5,12(s1)
    3a06:	8ba1                	andi	a5,a5,8
    3a08:	c7e5                	beqz	a5,3af0 <_vfiprintf_r+0x126>
    3a0a:	489c                	lw	a5,16(s1)
    3a0c:	c3f5                	beqz	a5,3af0 <_vfiprintf_r+0x126>
    3a0e:	02000793          	li	a5,32
    3a12:	02f104a3          	sb	a5,41(sp)
    3a16:	03000793          	li	a5,48
    3a1a:	d202                	sw	zero,36(sp)
    3a1c:	02f10523          	sb	a5,42(sp)
    3a20:	c622                	sw	s0,12(sp)
    3a22:	02500b93          	li	s7,37
    3a26:	00001a97          	auipc	s5,0x1
    3a2a:	052a8a93          	addi	s5,s5,82 # 4a78 <__sf_fake_stdout+0x20>
    3a2e:	4c05                	li	s8,1
    3a30:	4b29                	li	s6,10
    3a32:	844a                	mv	s0,s2
    3a34:	201c                	lbu	a5,0(s0)
    3a36:	c399                	beqz	a5,3a3c <_vfiprintf_r+0x72>
    3a38:	0d779f63          	bne	a5,s7,3b16 <_vfiprintf_r+0x14c>
    3a3c:	41240cb3          	sub	s9,s0,s2
    3a40:	000c8e63          	beqz	s9,3a5c <_vfiprintf_r+0x92>
    3a44:	86e6                	mv	a3,s9
    3a46:	864a                	mv	a2,s2
    3a48:	85a6                	mv	a1,s1
    3a4a:	854e                	mv	a0,s3
    3a4c:	f3dff0ef          	jal	ra,3988 <__sfputs_r>
    3a50:	57fd                	li	a5,-1
    3a52:	1cf50f63          	beq	a0,a5,3c30 <_vfiprintf_r+0x266>
    3a56:	5692                	lw	a3,36(sp)
    3a58:	96e6                	add	a3,a3,s9
    3a5a:	d236                	sw	a3,36(sp)
    3a5c:	201c                	lbu	a5,0(s0)
    3a5e:	1c078963          	beqz	a5,3c30 <_vfiprintf_r+0x266>
    3a62:	57fd                	li	a5,-1
    3a64:	00140913          	addi	s2,s0,1
    3a68:	c802                	sw	zero,16(sp)
    3a6a:	ce02                	sw	zero,28(sp)
    3a6c:	ca3e                	sw	a5,20(sp)
    3a6e:	cc02                	sw	zero,24(sp)
    3a70:	040109a3          	sb	zero,83(sp)
    3a74:	d482                	sw	zero,104(sp)
    3a76:	00094583          	lbu	a1,0(s2)
    3a7a:	4615                	li	a2,5
    3a7c:	8556                	mv	a0,s5
    3a7e:	272d                	jal	41a8 <memchr>
    3a80:	00190413          	addi	s0,s2,1
    3a84:	47c2                	lw	a5,16(sp)
    3a86:	e951                	bnez	a0,3b1a <_vfiprintf_r+0x150>
    3a88:	0107f713          	andi	a4,a5,16
    3a8c:	c709                	beqz	a4,3a96 <_vfiprintf_r+0xcc>
    3a8e:	02000713          	li	a4,32
    3a92:	04e109a3          	sb	a4,83(sp)
    3a96:	0087f713          	andi	a4,a5,8
    3a9a:	c709                	beqz	a4,3aa4 <_vfiprintf_r+0xda>
    3a9c:	02b00713          	li	a4,43
    3aa0:	04e109a3          	sb	a4,83(sp)
    3aa4:	00094683          	lbu	a3,0(s2)
    3aa8:	02a00713          	li	a4,42
    3aac:	06e68f63          	beq	a3,a4,3b2a <_vfiprintf_r+0x160>
    3ab0:	47f2                	lw	a5,28(sp)
    3ab2:	844a                	mv	s0,s2
    3ab4:	4681                	li	a3,0
    3ab6:	4625                	li	a2,9
    3ab8:	2018                	lbu	a4,0(s0)
    3aba:	00140593          	addi	a1,s0,1
    3abe:	fd070713          	addi	a4,a4,-48 # ffffdfd0 <_eusrstack+0xdfff8fd0>
    3ac2:	0ae67763          	bgeu	a2,a4,3b70 <_vfiprintf_r+0x1a6>
    3ac6:	cab5                	beqz	a3,3b3a <_vfiprintf_r+0x170>
    3ac8:	ce3e                	sw	a5,28(sp)
    3aca:	a885                	j	3b3a <_vfiprintf_r+0x170>
    3acc:	00001797          	auipc	a5,0x1
    3ad0:	f8c78793          	addi	a5,a5,-116 # 4a58 <__sf_fake_stdout>
    3ad4:	00f49563          	bne	s1,a5,3ade <_vfiprintf_r+0x114>
    3ad8:	0089a483          	lw	s1,8(s3)
    3adc:	b725                	j	3a04 <_vfiprintf_r+0x3a>
    3ade:	00001797          	auipc	a5,0x1
    3ae2:	f3a78793          	addi	a5,a5,-198 # 4a18 <__sf_fake_stderr>
    3ae6:	f0f49fe3          	bne	s1,a5,3a04 <_vfiprintf_r+0x3a>
    3aea:	00c9a483          	lw	s1,12(s3)
    3aee:	bf19                	j	3a04 <_vfiprintf_r+0x3a>
    3af0:	85a6                	mv	a1,s1
    3af2:	854e                	mv	a0,s3
    3af4:	f48ff0ef          	jal	ra,323c <__swsetup_r>
    3af8:	d919                	beqz	a0,3a0e <_vfiprintf_r+0x44>
    3afa:	557d                	li	a0,-1
    3afc:	40fa                	lw	ra,156(sp)
    3afe:	446a                	lw	s0,152(sp)
    3b00:	44da                	lw	s1,148(sp)
    3b02:	494a                	lw	s2,144(sp)
    3b04:	49ba                	lw	s3,140(sp)
    3b06:	4a2a                	lw	s4,136(sp)
    3b08:	4a9a                	lw	s5,132(sp)
    3b0a:	4b0a                	lw	s6,128(sp)
    3b0c:	5bf6                	lw	s7,124(sp)
    3b0e:	5c66                	lw	s8,120(sp)
    3b10:	5cd6                	lw	s9,116(sp)
    3b12:	610d                	addi	sp,sp,160
    3b14:	8082                	ret
    3b16:	0405                	addi	s0,s0,1
    3b18:	bf31                	j	3a34 <_vfiprintf_r+0x6a>
    3b1a:	41550533          	sub	a0,a0,s5
    3b1e:	00ac1533          	sll	a0,s8,a0
    3b22:	8fc9                	or	a5,a5,a0
    3b24:	c83e                	sw	a5,16(sp)
    3b26:	8922                	mv	s2,s0
    3b28:	b7b9                	j	3a76 <_vfiprintf_r+0xac>
    3b2a:	4732                	lw	a4,12(sp)
    3b2c:	00470693          	addi	a3,a4,4
    3b30:	4318                	lw	a4,0(a4)
    3b32:	c636                	sw	a3,12(sp)
    3b34:	02074763          	bltz	a4,3b62 <_vfiprintf_r+0x198>
    3b38:	ce3a                	sw	a4,28(sp)
    3b3a:	2018                	lbu	a4,0(s0)
    3b3c:	02e00793          	li	a5,46
    3b40:	04f71d63          	bne	a4,a5,3b9a <_vfiprintf_r+0x1d0>
    3b44:	3018                	lbu	a4,1(s0)
    3b46:	02a00793          	li	a5,42
    3b4a:	02f71b63          	bne	a4,a5,3b80 <_vfiprintf_r+0x1b6>
    3b4e:	47b2                	lw	a5,12(sp)
    3b50:	0409                	addi	s0,s0,2
    3b52:	00478713          	addi	a4,a5,4
    3b56:	439c                	lw	a5,0(a5)
    3b58:	c63a                	sw	a4,12(sp)
    3b5a:	0207c163          	bltz	a5,3b7c <_vfiprintf_r+0x1b2>
    3b5e:	ca3e                	sw	a5,20(sp)
    3b60:	a82d                	j	3b9a <_vfiprintf_r+0x1d0>
    3b62:	40e00733          	neg	a4,a4
    3b66:	0027e793          	ori	a5,a5,2
    3b6a:	ce3a                	sw	a4,28(sp)
    3b6c:	c83e                	sw	a5,16(sp)
    3b6e:	b7f1                	j	3b3a <_vfiprintf_r+0x170>
    3b70:	036787b3          	mul	a5,a5,s6
    3b74:	4685                	li	a3,1
    3b76:	842e                	mv	s0,a1
    3b78:	97ba                	add	a5,a5,a4
    3b7a:	bf3d                	j	3ab8 <_vfiprintf_r+0xee>
    3b7c:	57fd                	li	a5,-1
    3b7e:	b7c5                	j	3b5e <_vfiprintf_r+0x194>
    3b80:	0405                	addi	s0,s0,1
    3b82:	ca02                	sw	zero,20(sp)
    3b84:	4681                	li	a3,0
    3b86:	4781                	li	a5,0
    3b88:	4625                	li	a2,9
    3b8a:	2018                	lbu	a4,0(s0)
    3b8c:	00140593          	addi	a1,s0,1
    3b90:	fd070713          	addi	a4,a4,-48
    3b94:	06e67463          	bgeu	a2,a4,3bfc <_vfiprintf_r+0x232>
    3b98:	f2f9                	bnez	a3,3b5e <_vfiprintf_r+0x194>
    3b9a:	200c                	lbu	a1,0(s0)
    3b9c:	460d                	li	a2,3
    3b9e:	00001517          	auipc	a0,0x1
    3ba2:	ee250513          	addi	a0,a0,-286 # 4a80 <__sf_fake_stdout+0x28>
    3ba6:	2509                	jal	41a8 <memchr>
    3ba8:	cd11                	beqz	a0,3bc4 <_vfiprintf_r+0x1fa>
    3baa:	00001797          	auipc	a5,0x1
    3bae:	ed678793          	addi	a5,a5,-298 # 4a80 <__sf_fake_stdout+0x28>
    3bb2:	8d1d                	sub	a0,a0,a5
    3bb4:	04000793          	li	a5,64
    3bb8:	00a797b3          	sll	a5,a5,a0
    3bbc:	4542                	lw	a0,16(sp)
    3bbe:	0405                	addi	s0,s0,1
    3bc0:	8d5d                	or	a0,a0,a5
    3bc2:	c82a                	sw	a0,16(sp)
    3bc4:	200c                	lbu	a1,0(s0)
    3bc6:	4619                	li	a2,6
    3bc8:	00001517          	auipc	a0,0x1
    3bcc:	ebc50513          	addi	a0,a0,-324 # 4a84 <__sf_fake_stdout+0x2c>
    3bd0:	00140913          	addi	s2,s0,1
    3bd4:	02b10423          	sb	a1,40(sp)
    3bd8:	2bc1                	jal	41a8 <memchr>
    3bda:	c135                	beqz	a0,3c3e <_vfiprintf_r+0x274>
    3bdc:	ffffc797          	auipc	a5,0xffffc
    3be0:	42478793          	addi	a5,a5,1060 # 0 <_sinit>
    3be4:	e795                	bnez	a5,3c10 <_vfiprintf_r+0x246>
    3be6:	4742                	lw	a4,16(sp)
    3be8:	47b2                	lw	a5,12(sp)
    3bea:	10077713          	andi	a4,a4,256
    3bee:	cf09                	beqz	a4,3c08 <_vfiprintf_r+0x23e>
    3bf0:	0791                	addi	a5,a5,4
    3bf2:	c63e                	sw	a5,12(sp)
    3bf4:	5792                	lw	a5,36(sp)
    3bf6:	97d2                	add	a5,a5,s4
    3bf8:	d23e                	sw	a5,36(sp)
    3bfa:	bd25                	j	3a32 <_vfiprintf_r+0x68>
    3bfc:	036787b3          	mul	a5,a5,s6
    3c00:	4685                	li	a3,1
    3c02:	842e                	mv	s0,a1
    3c04:	97ba                	add	a5,a5,a4
    3c06:	b751                	j	3b8a <_vfiprintf_r+0x1c0>
    3c08:	079d                	addi	a5,a5,7
    3c0a:	9be1                	andi	a5,a5,-8
    3c0c:	07a1                	addi	a5,a5,8
    3c0e:	b7d5                	j	3bf2 <_vfiprintf_r+0x228>
    3c10:	0078                	addi	a4,sp,12
    3c12:	00000697          	auipc	a3,0x0
    3c16:	d7668693          	addi	a3,a3,-650 # 3988 <__sfputs_r>
    3c1a:	8626                	mv	a2,s1
    3c1c:	080c                	addi	a1,sp,16
    3c1e:	854e                	mv	a0,s3
    3c20:	00000097          	auipc	ra,0x0
    3c24:	000000e7          	jalr	zero # 0 <_sinit>
    3c28:	57fd                	li	a5,-1
    3c2a:	8a2a                	mv	s4,a0
    3c2c:	fcf514e3          	bne	a0,a5,3bf4 <_vfiprintf_r+0x22a>
    3c30:	24de                	lhu	a5,12(s1)
    3c32:	0407f793          	andi	a5,a5,64
    3c36:	ec0792e3          	bnez	a5,3afa <_vfiprintf_r+0x130>
    3c3a:	5512                	lw	a0,36(sp)
    3c3c:	b5c1                	j	3afc <_vfiprintf_r+0x132>
    3c3e:	0078                	addi	a4,sp,12
    3c40:	00000697          	auipc	a3,0x0
    3c44:	d4868693          	addi	a3,a3,-696 # 3988 <__sfputs_r>
    3c48:	8626                	mv	a2,s1
    3c4a:	080c                	addi	a1,sp,16
    3c4c:	854e                	mv	a0,s3
    3c4e:	2a01                	jal	3d5e <_printf_i>
    3c50:	bfe1                	j	3c28 <_vfiprintf_r+0x25e>

00003c52 <_printf_common>:
    3c52:	7179                	addi	sp,sp,-48
    3c54:	ca56                	sw	s5,20(sp)
    3c56:	499c                	lw	a5,16(a1)
    3c58:	8aba                	mv	s5,a4
    3c5a:	4598                	lw	a4,8(a1)
    3c5c:	d422                	sw	s0,40(sp)
    3c5e:	d226                	sw	s1,36(sp)
    3c60:	ce4e                	sw	s3,28(sp)
    3c62:	cc52                	sw	s4,24(sp)
    3c64:	d606                	sw	ra,44(sp)
    3c66:	d04a                	sw	s2,32(sp)
    3c68:	c85a                	sw	s6,16(sp)
    3c6a:	c65e                	sw	s7,12(sp)
    3c6c:	89aa                	mv	s3,a0
    3c6e:	842e                	mv	s0,a1
    3c70:	84b2                	mv	s1,a2
    3c72:	8a36                	mv	s4,a3
    3c74:	00e7d363          	bge	a5,a4,3c7a <_printf_common+0x28>
    3c78:	87ba                	mv	a5,a4
    3c7a:	c09c                	sw	a5,0(s1)
    3c7c:	04344703          	lbu	a4,67(s0)
    3c80:	c319                	beqz	a4,3c86 <_printf_common+0x34>
    3c82:	0785                	addi	a5,a5,1
    3c84:	c09c                	sw	a5,0(s1)
    3c86:	401c                	lw	a5,0(s0)
    3c88:	0207f793          	andi	a5,a5,32
    3c8c:	c781                	beqz	a5,3c94 <_printf_common+0x42>
    3c8e:	409c                	lw	a5,0(s1)
    3c90:	0789                	addi	a5,a5,2
    3c92:	c09c                	sw	a5,0(s1)
    3c94:	00042903          	lw	s2,0(s0)
    3c98:	00697913          	andi	s2,s2,6
    3c9c:	00091a63          	bnez	s2,3cb0 <_printf_common+0x5e>
    3ca0:	01940b13          	addi	s6,s0,25
    3ca4:	5bfd                	li	s7,-1
    3ca6:	445c                	lw	a5,12(s0)
    3ca8:	4098                	lw	a4,0(s1)
    3caa:	8f99                	sub	a5,a5,a4
    3cac:	04f94c63          	blt	s2,a5,3d04 <_printf_common+0xb2>
    3cb0:	401c                	lw	a5,0(s0)
    3cb2:	04344683          	lbu	a3,67(s0)
    3cb6:	0207f793          	andi	a5,a5,32
    3cba:	00d036b3          	snez	a3,a3
    3cbe:	eba5                	bnez	a5,3d2e <_printf_common+0xdc>
    3cc0:	04340613          	addi	a2,s0,67
    3cc4:	85d2                	mv	a1,s4
    3cc6:	854e                	mv	a0,s3
    3cc8:	9a82                	jalr	s5
    3cca:	57fd                	li	a5,-1
    3ccc:	04f50363          	beq	a0,a5,3d12 <_printf_common+0xc0>
    3cd0:	401c                	lw	a5,0(s0)
    3cd2:	4611                	li	a2,4
    3cd4:	4098                	lw	a4,0(s1)
    3cd6:	8b99                	andi	a5,a5,6
    3cd8:	4454                	lw	a3,12(s0)
    3cda:	4481                	li	s1,0
    3cdc:	00c79763          	bne	a5,a2,3cea <_printf_common+0x98>
    3ce0:	40e684b3          	sub	s1,a3,a4
    3ce4:	0004d363          	bgez	s1,3cea <_printf_common+0x98>
    3ce8:	4481                	li	s1,0
    3cea:	441c                	lw	a5,8(s0)
    3cec:	4818                	lw	a4,16(s0)
    3cee:	00f75463          	bge	a4,a5,3cf6 <_printf_common+0xa4>
    3cf2:	8f99                	sub	a5,a5,a4
    3cf4:	94be                	add	s1,s1,a5
    3cf6:	4901                	li	s2,0
    3cf8:	0469                	addi	s0,s0,26
    3cfa:	5b7d                	li	s6,-1
    3cfc:	05249863          	bne	s1,s2,3d4c <_printf_common+0xfa>
    3d00:	4501                	li	a0,0
    3d02:	a809                	j	3d14 <_printf_common+0xc2>
    3d04:	4685                	li	a3,1
    3d06:	865a                	mv	a2,s6
    3d08:	85d2                	mv	a1,s4
    3d0a:	854e                	mv	a0,s3
    3d0c:	9a82                	jalr	s5
    3d0e:	01751e63          	bne	a0,s7,3d2a <_printf_common+0xd8>
    3d12:	557d                	li	a0,-1
    3d14:	50b2                	lw	ra,44(sp)
    3d16:	5422                	lw	s0,40(sp)
    3d18:	5492                	lw	s1,36(sp)
    3d1a:	5902                	lw	s2,32(sp)
    3d1c:	49f2                	lw	s3,28(sp)
    3d1e:	4a62                	lw	s4,24(sp)
    3d20:	4ad2                	lw	s5,20(sp)
    3d22:	4b42                	lw	s6,16(sp)
    3d24:	4bb2                	lw	s7,12(sp)
    3d26:	6145                	addi	sp,sp,48
    3d28:	8082                	ret
    3d2a:	0905                	addi	s2,s2,1
    3d2c:	bfad                	j	3ca6 <_printf_common+0x54>
    3d2e:	00d40733          	add	a4,s0,a3
    3d32:	03000613          	li	a2,48
    3d36:	04c701a3          	sb	a2,67(a4)
    3d3a:	04544703          	lbu	a4,69(s0)
    3d3e:	00168793          	addi	a5,a3,1
    3d42:	97a2                	add	a5,a5,s0
    3d44:	0689                	addi	a3,a3,2
    3d46:	04e781a3          	sb	a4,67(a5)
    3d4a:	bf9d                	j	3cc0 <_printf_common+0x6e>
    3d4c:	4685                	li	a3,1
    3d4e:	8622                	mv	a2,s0
    3d50:	85d2                	mv	a1,s4
    3d52:	854e                	mv	a0,s3
    3d54:	9a82                	jalr	s5
    3d56:	fb650ee3          	beq	a0,s6,3d12 <_printf_common+0xc0>
    3d5a:	0905                	addi	s2,s2,1
    3d5c:	b745                	j	3cfc <_printf_common+0xaa>

00003d5e <_printf_i>:
    3d5e:	7179                	addi	sp,sp,-48
    3d60:	d422                	sw	s0,40(sp)
    3d62:	d226                	sw	s1,36(sp)
    3d64:	d04a                	sw	s2,32(sp)
    3d66:	ce4e                	sw	s3,28(sp)
    3d68:	d606                	sw	ra,44(sp)
    3d6a:	cc52                	sw	s4,24(sp)
    3d6c:	ca56                	sw	s5,20(sp)
    3d6e:	c85a                	sw	s6,16(sp)
    3d70:	89b6                	mv	s3,a3
    3d72:	2d94                	lbu	a3,24(a1)
    3d74:	06900793          	li	a5,105
    3d78:	8932                	mv	s2,a2
    3d7a:	84aa                	mv	s1,a0
    3d7c:	842e                	mv	s0,a1
    3d7e:	04358613          	addi	a2,a1,67
    3d82:	02f68d63          	beq	a3,a5,3dbc <_printf_i+0x5e>
    3d86:	06d7e263          	bltu	a5,a3,3dea <_printf_i+0x8c>
    3d8a:	05800793          	li	a5,88
    3d8e:	18f68663          	beq	a3,a5,3f1a <_printf_i+0x1bc>
    3d92:	00d7ed63          	bltu	a5,a3,3dac <_printf_i+0x4e>
    3d96:	20068e63          	beqz	a3,3fb2 <_printf_i+0x254>
    3d9a:	04300793          	li	a5,67
    3d9e:	0af68e63          	beq	a3,a5,3e5a <_printf_i+0xfc>
    3da2:	04240a93          	addi	s5,s0,66
    3da6:	04d40123          	sb	a3,66(s0)
    3daa:	a0c9                	j	3e6c <_printf_i+0x10e>
    3dac:	06300793          	li	a5,99
    3db0:	0af68563          	beq	a3,a5,3e5a <_printf_i+0xfc>
    3db4:	06400793          	li	a5,100
    3db8:	fef695e3          	bne	a3,a5,3da2 <_printf_i+0x44>
    3dbc:	401c                	lw	a5,0(s0)
    3dbe:	4308                	lw	a0,0(a4)
    3dc0:	0807f693          	andi	a3,a5,128
    3dc4:	00450593          	addi	a1,a0,4
    3dc8:	c6c5                	beqz	a3,3e70 <_printf_i+0x112>
    3dca:	411c                	lw	a5,0(a0)
    3dcc:	c30c                	sw	a1,0(a4)
    3dce:	0007d863          	bgez	a5,3dde <_printf_i+0x80>
    3dd2:	02d00713          	li	a4,45
    3dd6:	40f007b3          	neg	a5,a5
    3dda:	04e401a3          	sb	a4,67(s0)
    3dde:	00001697          	auipc	a3,0x1
    3de2:	cae68693          	addi	a3,a3,-850 # 4a8c <__sf_fake_stdout+0x34>
    3de6:	4729                	li	a4,10
    3de8:	a865                	j	3ea0 <_printf_i+0x142>
    3dea:	07000793          	li	a5,112
    3dee:	16f68263          	beq	a3,a5,3f52 <_printf_i+0x1f4>
    3df2:	02d7e563          	bltu	a5,a3,3e1c <_printf_i+0xbe>
    3df6:	06e00793          	li	a5,110
    3dfa:	18f68963          	beq	a3,a5,3f8c <_printf_i+0x22e>
    3dfe:	06f00793          	li	a5,111
    3e02:	faf690e3          	bne	a3,a5,3da2 <_printf_i+0x44>
    3e06:	400c                	lw	a1,0(s0)
    3e08:	431c                	lw	a5,0(a4)
    3e0a:	0805f813          	andi	a6,a1,128
    3e0e:	00478513          	addi	a0,a5,4
    3e12:	06080763          	beqz	a6,3e80 <_printf_i+0x122>
    3e16:	c308                	sw	a0,0(a4)
    3e18:	439c                	lw	a5,0(a5)
    3e1a:	a885                	j	3e8a <_printf_i+0x12c>
    3e1c:	07500793          	li	a5,117
    3e20:	fef683e3          	beq	a3,a5,3e06 <_printf_i+0xa8>
    3e24:	07800793          	li	a5,120
    3e28:	12f68963          	beq	a3,a5,3f5a <_printf_i+0x1fc>
    3e2c:	07300793          	li	a5,115
    3e30:	f6f699e3          	bne	a3,a5,3da2 <_printf_i+0x44>
    3e34:	431c                	lw	a5,0(a4)
    3e36:	41d0                	lw	a2,4(a1)
    3e38:	4581                	li	a1,0
    3e3a:	00478693          	addi	a3,a5,4
    3e3e:	c314                	sw	a3,0(a4)
    3e40:	0007aa83          	lw	s5,0(a5)
    3e44:	8556                	mv	a0,s5
    3e46:	268d                	jal	41a8 <memchr>
    3e48:	c501                	beqz	a0,3e50 <_printf_i+0xf2>
    3e4a:	41550533          	sub	a0,a0,s5
    3e4e:	c048                	sw	a0,4(s0)
    3e50:	405c                	lw	a5,4(s0)
    3e52:	c81c                	sw	a5,16(s0)
    3e54:	040401a3          	sb	zero,67(s0)
    3e58:	a861                	j	3ef0 <_printf_i+0x192>
    3e5a:	431c                	lw	a5,0(a4)
    3e5c:	04240a93          	addi	s5,s0,66
    3e60:	00478693          	addi	a3,a5,4
    3e64:	439c                	lw	a5,0(a5)
    3e66:	c314                	sw	a3,0(a4)
    3e68:	04f40123          	sb	a5,66(s0)
    3e6c:	4785                	li	a5,1
    3e6e:	b7d5                	j	3e52 <_printf_i+0xf4>
    3e70:	0407f693          	andi	a3,a5,64
    3e74:	411c                	lw	a5,0(a0)
    3e76:	c30c                	sw	a1,0(a4)
    3e78:	dab9                	beqz	a3,3dce <_printf_i+0x70>
    3e7a:	07c2                	slli	a5,a5,0x10
    3e7c:	87c1                	srai	a5,a5,0x10
    3e7e:	bf81                	j	3dce <_printf_i+0x70>
    3e80:	0405f593          	andi	a1,a1,64
    3e84:	c308                	sw	a0,0(a4)
    3e86:	d9c9                	beqz	a1,3e18 <_printf_i+0xba>
    3e88:	239e                	lhu	a5,0(a5)
    3e8a:	06f00713          	li	a4,111
    3e8e:	0ee68763          	beq	a3,a4,3f7c <_printf_i+0x21e>
    3e92:	00001697          	auipc	a3,0x1
    3e96:	bfa68693          	addi	a3,a3,-1030 # 4a8c <__sf_fake_stdout+0x34>
    3e9a:	4729                	li	a4,10
    3e9c:	040401a3          	sb	zero,67(s0)
    3ea0:	404c                	lw	a1,4(s0)
    3ea2:	c40c                	sw	a1,8(s0)
    3ea4:	0005c563          	bltz	a1,3eae <_printf_i+0x150>
    3ea8:	4008                	lw	a0,0(s0)
    3eaa:	996d                	andi	a0,a0,-5
    3eac:	c008                	sw	a0,0(s0)
    3eae:	e399                	bnez	a5,3eb4 <_printf_i+0x156>
    3eb0:	8ab2                	mv	s5,a2
    3eb2:	cd89                	beqz	a1,3ecc <_printf_i+0x16e>
    3eb4:	8ab2                	mv	s5,a2
    3eb6:	02e7f5b3          	remu	a1,a5,a4
    3eba:	1afd                	addi	s5,s5,-1
    3ebc:	95b6                	add	a1,a1,a3
    3ebe:	218c                	lbu	a1,0(a1)
    3ec0:	00ba8023          	sb	a1,0(s5)
    3ec4:	02e7d5b3          	divu	a1,a5,a4
    3ec8:	0ce7f063          	bgeu	a5,a4,3f88 <_printf_i+0x22a>
    3ecc:	47a1                	li	a5,8
    3ece:	00f71e63          	bne	a4,a5,3eea <_printf_i+0x18c>
    3ed2:	401c                	lw	a5,0(s0)
    3ed4:	8b85                	andi	a5,a5,1
    3ed6:	cb91                	beqz	a5,3eea <_printf_i+0x18c>
    3ed8:	4058                	lw	a4,4(s0)
    3eda:	481c                	lw	a5,16(s0)
    3edc:	00e7c763          	blt	a5,a4,3eea <_printf_i+0x18c>
    3ee0:	03000793          	li	a5,48
    3ee4:	fefa8fa3          	sb	a5,-1(s5)
    3ee8:	1afd                	addi	s5,s5,-1
    3eea:	41560633          	sub	a2,a2,s5
    3eee:	c810                	sw	a2,16(s0)
    3ef0:	874e                	mv	a4,s3
    3ef2:	86ca                	mv	a3,s2
    3ef4:	0070                	addi	a2,sp,12
    3ef6:	85a2                	mv	a1,s0
    3ef8:	8526                	mv	a0,s1
    3efa:	d59ff0ef          	jal	ra,3c52 <_printf_common>
    3efe:	5a7d                	li	s4,-1
    3f00:	0b451d63          	bne	a0,s4,3fba <_printf_i+0x25c>
    3f04:	557d                	li	a0,-1
    3f06:	50b2                	lw	ra,44(sp)
    3f08:	5422                	lw	s0,40(sp)
    3f0a:	5492                	lw	s1,36(sp)
    3f0c:	5902                	lw	s2,32(sp)
    3f0e:	49f2                	lw	s3,28(sp)
    3f10:	4a62                	lw	s4,24(sp)
    3f12:	4ad2                	lw	s5,20(sp)
    3f14:	4b42                	lw	s6,16(sp)
    3f16:	6145                	addi	sp,sp,48
    3f18:	8082                	ret
    3f1a:	04d582a3          	sb	a3,69(a1)
    3f1e:	00001697          	auipc	a3,0x1
    3f22:	b6e68693          	addi	a3,a3,-1170 # 4a8c <__sf_fake_stdout+0x34>
    3f26:	400c                	lw	a1,0(s0)
    3f28:	4308                	lw	a0,0(a4)
    3f2a:	0805f813          	andi	a6,a1,128
    3f2e:	411c                	lw	a5,0(a0)
    3f30:	0511                	addi	a0,a0,4
    3f32:	02080d63          	beqz	a6,3f6c <_printf_i+0x20e>
    3f36:	c308                	sw	a0,0(a4)
    3f38:	0015f713          	andi	a4,a1,1
    3f3c:	c701                	beqz	a4,3f44 <_printf_i+0x1e6>
    3f3e:	0205e593          	ori	a1,a1,32
    3f42:	c00c                	sw	a1,0(s0)
    3f44:	4741                	li	a4,16
    3f46:	fbb9                	bnez	a5,3e9c <_printf_i+0x13e>
    3f48:	400c                	lw	a1,0(s0)
    3f4a:	fdf5f593          	andi	a1,a1,-33
    3f4e:	c00c                	sw	a1,0(s0)
    3f50:	b7b1                	j	3e9c <_printf_i+0x13e>
    3f52:	419c                	lw	a5,0(a1)
    3f54:	0207e793          	ori	a5,a5,32
    3f58:	c19c                	sw	a5,0(a1)
    3f5a:	07800793          	li	a5,120
    3f5e:	04f402a3          	sb	a5,69(s0)
    3f62:	00001697          	auipc	a3,0x1
    3f66:	b3e68693          	addi	a3,a3,-1218 # 4aa0 <__sf_fake_stdout+0x48>
    3f6a:	bf75                	j	3f26 <_printf_i+0x1c8>
    3f6c:	0405f813          	andi	a6,a1,64
    3f70:	c308                	sw	a0,0(a4)
    3f72:	fc0803e3          	beqz	a6,3f38 <_printf_i+0x1da>
    3f76:	07c2                	slli	a5,a5,0x10
    3f78:	83c1                	srli	a5,a5,0x10
    3f7a:	bf7d                	j	3f38 <_printf_i+0x1da>
    3f7c:	00001697          	auipc	a3,0x1
    3f80:	b1068693          	addi	a3,a3,-1264 # 4a8c <__sf_fake_stdout+0x34>
    3f84:	4721                	li	a4,8
    3f86:	bf19                	j	3e9c <_printf_i+0x13e>
    3f88:	87ae                	mv	a5,a1
    3f8a:	b735                	j	3eb6 <_printf_i+0x158>
    3f8c:	4194                	lw	a3,0(a1)
    3f8e:	431c                	lw	a5,0(a4)
    3f90:	49cc                	lw	a1,20(a1)
    3f92:	0806f813          	andi	a6,a3,128
    3f96:	00478513          	addi	a0,a5,4
    3f9a:	00080663          	beqz	a6,3fa6 <_printf_i+0x248>
    3f9e:	c308                	sw	a0,0(a4)
    3fa0:	439c                	lw	a5,0(a5)
    3fa2:	c38c                	sw	a1,0(a5)
    3fa4:	a039                	j	3fb2 <_printf_i+0x254>
    3fa6:	c308                	sw	a0,0(a4)
    3fa8:	0406f693          	andi	a3,a3,64
    3fac:	439c                	lw	a5,0(a5)
    3fae:	daf5                	beqz	a3,3fa2 <_printf_i+0x244>
    3fb0:	a38e                	sh	a1,0(a5)
    3fb2:	00042823          	sw	zero,16(s0)
    3fb6:	8ab2                	mv	s5,a2
    3fb8:	bf25                	j	3ef0 <_printf_i+0x192>
    3fba:	4814                	lw	a3,16(s0)
    3fbc:	8656                	mv	a2,s5
    3fbe:	85ca                	mv	a1,s2
    3fc0:	8526                	mv	a0,s1
    3fc2:	9982                	jalr	s3
    3fc4:	f54500e3          	beq	a0,s4,3f04 <_printf_i+0x1a6>
    3fc8:	401c                	lw	a5,0(s0)
    3fca:	8b89                	andi	a5,a5,2
    3fcc:	e78d                	bnez	a5,3ff6 <_printf_i+0x298>
    3fce:	47b2                	lw	a5,12(sp)
    3fd0:	4448                	lw	a0,12(s0)
    3fd2:	f2f55ae3          	bge	a0,a5,3f06 <_printf_i+0x1a8>
    3fd6:	853e                	mv	a0,a5
    3fd8:	b73d                	j	3f06 <_printf_i+0x1a8>
    3fda:	4685                	li	a3,1
    3fdc:	8656                	mv	a2,s5
    3fde:	85ca                	mv	a1,s2
    3fe0:	8526                	mv	a0,s1
    3fe2:	9982                	jalr	s3
    3fe4:	f36500e3          	beq	a0,s6,3f04 <_printf_i+0x1a6>
    3fe8:	0a05                	addi	s4,s4,1
    3fea:	445c                	lw	a5,12(s0)
    3fec:	4732                	lw	a4,12(sp)
    3fee:	8f99                	sub	a5,a5,a4
    3ff0:	fefa45e3          	blt	s4,a5,3fda <_printf_i+0x27c>
    3ff4:	bfe9                	j	3fce <_printf_i+0x270>
    3ff6:	4a01                	li	s4,0
    3ff8:	01940a93          	addi	s5,s0,25
    3ffc:	5b7d                	li	s6,-1
    3ffe:	b7f5                	j	3fea <_printf_i+0x28c>

00004000 <_sbrk_r>:
    4000:	1141                	addi	sp,sp,-16
    4002:	c422                	sw	s0,8(sp)
    4004:	842a                	mv	s0,a0
    4006:	852e                	mv	a0,a1
    4008:	0c01a823          	sw	zero,208(gp) # 20000958 <errno>
    400c:	c606                	sw	ra,12(sp)
    400e:	a7dfe0ef          	jal	ra,2a8a <_sbrk>
    4012:	57fd                	li	a5,-1
    4014:	00f51763          	bne	a0,a5,4022 <_sbrk_r+0x22>
    4018:	0d018793          	addi	a5,gp,208 # 20000958 <errno>
    401c:	439c                	lw	a5,0(a5)
    401e:	c391                	beqz	a5,4022 <_sbrk_r+0x22>
    4020:	c01c                	sw	a5,0(s0)
    4022:	40b2                	lw	ra,12(sp)
    4024:	4422                	lw	s0,8(sp)
    4026:	0141                	addi	sp,sp,16
    4028:	8082                	ret

0000402a <__sread>:
    402a:	1141                	addi	sp,sp,-16
    402c:	c422                	sw	s0,8(sp)
    402e:	842e                	mv	s0,a1
    4030:	00e59583          	lh	a1,14(a1)
    4034:	c606                	sw	ra,12(sp)
    4036:	2279                	jal	41c4 <_read_r>
    4038:	00054963          	bltz	a0,404a <__sread+0x20>
    403c:	487c                	lw	a5,84(s0)
    403e:	97aa                	add	a5,a5,a0
    4040:	c87c                	sw	a5,84(s0)
    4042:	40b2                	lw	ra,12(sp)
    4044:	4422                	lw	s0,8(sp)
    4046:	0141                	addi	sp,sp,16
    4048:	8082                	ret
    404a:	245e                	lhu	a5,12(s0)
    404c:	777d                	lui	a4,0xfffff
    404e:	177d                	addi	a4,a4,-1
    4050:	8ff9                	and	a5,a5,a4
    4052:	a45e                	sh	a5,12(s0)
    4054:	b7fd                	j	4042 <__sread+0x18>

00004056 <__swrite>:
    4056:	25de                	lhu	a5,12(a1)
    4058:	1101                	addi	sp,sp,-32
    405a:	cc22                	sw	s0,24(sp)
    405c:	ca26                	sw	s1,20(sp)
    405e:	c84a                	sw	s2,16(sp)
    4060:	c64e                	sw	s3,12(sp)
    4062:	ce06                	sw	ra,28(sp)
    4064:	1007f793          	andi	a5,a5,256
    4068:	84aa                	mv	s1,a0
    406a:	842e                	mv	s0,a1
    406c:	8932                	mv	s2,a2
    406e:	89b6                	mv	s3,a3
    4070:	c791                	beqz	a5,407c <__swrite+0x26>
    4072:	00e59583          	lh	a1,14(a1)
    4076:	4689                	li	a3,2
    4078:	4601                	li	a2,0
    407a:	2209                	jal	417c <_lseek_r>
    407c:	245e                	lhu	a5,12(s0)
    407e:	777d                	lui	a4,0xfffff
    4080:	177d                	addi	a4,a4,-1
    4082:	8ff9                	and	a5,a5,a4
    4084:	a45e                	sh	a5,12(s0)
    4086:	00e41583          	lh	a1,14(s0)
    408a:	4462                	lw	s0,24(sp)
    408c:	40f2                	lw	ra,28(sp)
    408e:	86ce                	mv	a3,s3
    4090:	864a                	mv	a2,s2
    4092:	49b2                	lw	s3,12(sp)
    4094:	4942                	lw	s2,16(sp)
    4096:	8526                	mv	a0,s1
    4098:	44d2                	lw	s1,20(sp)
    409a:	6105                	addi	sp,sp,32
    409c:	a825                	j	40d4 <_write_r>

0000409e <__sseek>:
    409e:	1141                	addi	sp,sp,-16
    40a0:	c422                	sw	s0,8(sp)
    40a2:	842e                	mv	s0,a1
    40a4:	00e59583          	lh	a1,14(a1)
    40a8:	c606                	sw	ra,12(sp)
    40aa:	28c9                	jal	417c <_lseek_r>
    40ac:	57fd                	li	a5,-1
    40ae:	245a                	lhu	a4,12(s0)
    40b0:	00f51a63          	bne	a0,a5,40c4 <__sseek+0x26>
    40b4:	77fd                	lui	a5,0xfffff
    40b6:	17fd                	addi	a5,a5,-1
    40b8:	8ff9                	and	a5,a5,a4
    40ba:	a45e                	sh	a5,12(s0)
    40bc:	40b2                	lw	ra,12(sp)
    40be:	4422                	lw	s0,8(sp)
    40c0:	0141                	addi	sp,sp,16
    40c2:	8082                	ret
    40c4:	6785                	lui	a5,0x1
    40c6:	8fd9                	or	a5,a5,a4
    40c8:	a45e                	sh	a5,12(s0)
    40ca:	c868                	sw	a0,84(s0)
    40cc:	bfc5                	j	40bc <__sseek+0x1e>

000040ce <__sclose>:
    40ce:	00e59583          	lh	a1,14(a1)
    40d2:	a805                	j	4102 <_close_r>

000040d4 <_write_r>:
    40d4:	1141                	addi	sp,sp,-16
    40d6:	c422                	sw	s0,8(sp)
    40d8:	842a                	mv	s0,a0
    40da:	852e                	mv	a0,a1
    40dc:	85b2                	mv	a1,a2
    40de:	8636                	mv	a2,a3
    40e0:	0c01a823          	sw	zero,208(gp) # 20000958 <errno>
    40e4:	c606                	sw	ra,12(sp)
    40e6:	967fe0ef          	jal	ra,2a4c <_write>
    40ea:	57fd                	li	a5,-1
    40ec:	00f51763          	bne	a0,a5,40fa <_write_r+0x26>
    40f0:	0d018793          	addi	a5,gp,208 # 20000958 <errno>
    40f4:	439c                	lw	a5,0(a5)
    40f6:	c391                	beqz	a5,40fa <_write_r+0x26>
    40f8:	c01c                	sw	a5,0(s0)
    40fa:	40b2                	lw	ra,12(sp)
    40fc:	4422                	lw	s0,8(sp)
    40fe:	0141                	addi	sp,sp,16
    4100:	8082                	ret

00004102 <_close_r>:
    4102:	1141                	addi	sp,sp,-16
    4104:	c422                	sw	s0,8(sp)
    4106:	842a                	mv	s0,a0
    4108:	852e                	mv	a0,a1
    410a:	0c01a823          	sw	zero,208(gp) # 20000958 <errno>
    410e:	c606                	sw	ra,12(sp)
    4110:	20c5                	jal	41f0 <_close>
    4112:	57fd                	li	a5,-1
    4114:	00f51763          	bne	a0,a5,4122 <_close_r+0x20>
    4118:	0d018793          	addi	a5,gp,208 # 20000958 <errno>
    411c:	439c                	lw	a5,0(a5)
    411e:	c391                	beqz	a5,4122 <_close_r+0x20>
    4120:	c01c                	sw	a5,0(s0)
    4122:	40b2                	lw	ra,12(sp)
    4124:	4422                	lw	s0,8(sp)
    4126:	0141                	addi	sp,sp,16
    4128:	8082                	ret

0000412a <_fstat_r>:
    412a:	1141                	addi	sp,sp,-16
    412c:	c422                	sw	s0,8(sp)
    412e:	842a                	mv	s0,a0
    4130:	852e                	mv	a0,a1
    4132:	85b2                	mv	a1,a2
    4134:	0c01a823          	sw	zero,208(gp) # 20000958 <errno>
    4138:	c606                	sw	ra,12(sp)
    413a:	20c9                	jal	41fc <_fstat>
    413c:	57fd                	li	a5,-1
    413e:	00f51763          	bne	a0,a5,414c <_fstat_r+0x22>
    4142:	0d018793          	addi	a5,gp,208 # 20000958 <errno>
    4146:	439c                	lw	a5,0(a5)
    4148:	c391                	beqz	a5,414c <_fstat_r+0x22>
    414a:	c01c                	sw	a5,0(s0)
    414c:	40b2                	lw	ra,12(sp)
    414e:	4422                	lw	s0,8(sp)
    4150:	0141                	addi	sp,sp,16
    4152:	8082                	ret

00004154 <_isatty_r>:
    4154:	1141                	addi	sp,sp,-16
    4156:	c422                	sw	s0,8(sp)
    4158:	842a                	mv	s0,a0
    415a:	852e                	mv	a0,a1
    415c:	0c01a823          	sw	zero,208(gp) # 20000958 <errno>
    4160:	c606                	sw	ra,12(sp)
    4162:	205d                	jal	4208 <_isatty>
    4164:	57fd                	li	a5,-1
    4166:	00f51763          	bne	a0,a5,4174 <_isatty_r+0x20>
    416a:	0d018793          	addi	a5,gp,208 # 20000958 <errno>
    416e:	439c                	lw	a5,0(a5)
    4170:	c391                	beqz	a5,4174 <_isatty_r+0x20>
    4172:	c01c                	sw	a5,0(s0)
    4174:	40b2                	lw	ra,12(sp)
    4176:	4422                	lw	s0,8(sp)
    4178:	0141                	addi	sp,sp,16
    417a:	8082                	ret

0000417c <_lseek_r>:
    417c:	1141                	addi	sp,sp,-16
    417e:	c422                	sw	s0,8(sp)
    4180:	842a                	mv	s0,a0
    4182:	852e                	mv	a0,a1
    4184:	85b2                	mv	a1,a2
    4186:	8636                	mv	a2,a3
    4188:	0c01a823          	sw	zero,208(gp) # 20000958 <errno>
    418c:	c606                	sw	ra,12(sp)
    418e:	2059                	jal	4214 <_lseek>
    4190:	57fd                	li	a5,-1
    4192:	00f51763          	bne	a0,a5,41a0 <_lseek_r+0x24>
    4196:	0d018793          	addi	a5,gp,208 # 20000958 <errno>
    419a:	439c                	lw	a5,0(a5)
    419c:	c391                	beqz	a5,41a0 <_lseek_r+0x24>
    419e:	c01c                	sw	a5,0(s0)
    41a0:	40b2                	lw	ra,12(sp)
    41a2:	4422                	lw	s0,8(sp)
    41a4:	0141                	addi	sp,sp,16
    41a6:	8082                	ret

000041a8 <memchr>:
    41a8:	0ff5f593          	andi	a1,a1,255
    41ac:	962a                	add	a2,a2,a0
    41ae:	00c51463          	bne	a0,a2,41b6 <memchr+0xe>
    41b2:	4501                	li	a0,0
    41b4:	8082                	ret
    41b6:	211c                	lbu	a5,0(a0)
    41b8:	feb78ee3          	beq	a5,a1,41b4 <memchr+0xc>
    41bc:	0505                	addi	a0,a0,1
    41be:	bfc5                	j	41ae <memchr+0x6>

000041c0 <__malloc_lock>:
    41c0:	8082                	ret

000041c2 <__malloc_unlock>:
    41c2:	8082                	ret

000041c4 <_read_r>:
    41c4:	1141                	addi	sp,sp,-16
    41c6:	c422                	sw	s0,8(sp)
    41c8:	842a                	mv	s0,a0
    41ca:	852e                	mv	a0,a1
    41cc:	85b2                	mv	a1,a2
    41ce:	8636                	mv	a2,a3
    41d0:	0c01a823          	sw	zero,208(gp) # 20000958 <errno>
    41d4:	c606                	sw	ra,12(sp)
    41d6:	20a9                	jal	4220 <_read>
    41d8:	57fd                	li	a5,-1
    41da:	00f51763          	bne	a0,a5,41e8 <_read_r+0x24>
    41de:	0d018793          	addi	a5,gp,208 # 20000958 <errno>
    41e2:	439c                	lw	a5,0(a5)
    41e4:	c391                	beqz	a5,41e8 <_read_r+0x24>
    41e6:	c01c                	sw	a5,0(s0)
    41e8:	40b2                	lw	ra,12(sp)
    41ea:	4422                	lw	s0,8(sp)
    41ec:	0141                	addi	sp,sp,16
    41ee:	8082                	ret

000041f0 <_close>:
    41f0:	05800793          	li	a5,88
    41f4:	0cf1a823          	sw	a5,208(gp) # 20000958 <errno>
    41f8:	557d                	li	a0,-1
    41fa:	8082                	ret

000041fc <_fstat>:
    41fc:	05800793          	li	a5,88
    4200:	0cf1a823          	sw	a5,208(gp) # 20000958 <errno>
    4204:	557d                	li	a0,-1
    4206:	8082                	ret

00004208 <_isatty>:
    4208:	05800793          	li	a5,88
    420c:	0cf1a823          	sw	a5,208(gp) # 20000958 <errno>
    4210:	4501                	li	a0,0
    4212:	8082                	ret

00004214 <_lseek>:
    4214:	05800793          	li	a5,88
    4218:	0cf1a823          	sw	a5,208(gp) # 20000958 <errno>
    421c:	557d                	li	a0,-1
    421e:	8082                	ret

00004220 <_read>:
    4220:	05800793          	li	a5,88
    4224:	0cf1a823          	sw	a5,208(gp) # 20000958 <errno>
    4228:	557d                	li	a0,-1
    422a:	8082                	ret
    422c:	1f00                	addi	s0,sp,944
    422e:	1f1c                	addi	a5,sp,944
    4230:	1f1e                	slli	t5,t5,0x27
    4232:	1f1e                	slli	t5,t5,0x27
    4234:	1e1f 1e1f 001f      	0x1f1e1f1e1f
    423a:	0000                	unimp
    423c:	3241504f          	fnmadd.d	ft0,ft2,ft4,ft6,unknown
    4240:	4920                	lw	s0,80(a0)
    4242:	696e                	flw	fs2,216(sp)
    4244:	6974                	flw	fa3,84(a0)
    4246:	6c61                	lui	s8,0x18
    4248:	7a69                	lui	s4,0xffffa
    424a:	6465                	lui	s0,0x19
    424c:	000d                	c.nop	3
    424e:	0000                	unimp
    4250:	6c42                	flw	fs8,16(sp)
    4252:	20646f6f          	jal	t5,4a458 <_data_lma+0x459a4>
    4256:	6564                	flw	fs1,76(a0)
    4258:	6574                	flw	fa3,76(a0)
    425a:	64657463          	bgeu	a0,t1,48a2 <CSWTCH.5+0x43e>
    425e:	2021                	jal	4266 <_read+0x46>
    4260:	4441                	li	s0,16
    4262:	61762043          	fmadd.s	ft0,fa2,fs7,fa2,rdn
    4266:	756c                	flw	fa1,108(a0)
    4268:	3a65                	jal	3c20 <_vfiprintf_r+0x256>
    426a:	2520                	lbu	s0,10(a0)
    426c:	2c75                	jal	4528 <CSWTCH.5+0xc4>
    426e:	5420                	lw	s0,104(s0)
    4270:	7268                	flw	fa0,100(a2)
    4272:	7365                	lui	t1,0xffff9
    4274:	6f68                	flw	fa0,92(a4)
    4276:	646c                	flw	fa1,76(s0)
    4278:	203a                	lhu	a4,2(s0)
    427a:	7525                	lui	a0,0xfffe9
    427c:	0a0d                	addi	s4,s4,3
    427e:	0000                	unimp
    4280:	74737953          	0x74737953
    4284:	6d65                	lui	s10,0x19
    4286:	7320                	flw	fs0,96(a4)
    4288:	6174                	flw	fa3,68(a0)
    428a:	6574                	flw	fa3,76(a0)
    428c:	6320                	flw	fs0,64(a4)
    428e:	6168                	flw	fa0,68(a0)
    4290:	676e                	flw	fa4,216(sp)
    4292:	6465                	lui	s0,0x19
    4294:	7420                	flw	fs0,104(s0)
    4296:	5453206f          	j	36fda <_data_lma+0x32526>
    429a:	5441                	li	s0,-16
    429c:	5f45                	li	t5,-15
    429e:	454d                	li	a0,19
    42a0:	5341                	li	t1,-16
    42a2:	5255                	li	tp,-11
    42a4:	4e49                	li	t3,18
    42a6:	00000d47          	fmsub.s	fs10,ft0,ft0,ft0,rne
    42aa:	0000                	unimp
    42ac:	74696157          	0x74696157
    42b0:	6e69                	lui	t3,0x1a
    42b2:	6f662067          	0x6f662067
    42b6:	2072                	lhu	a2,6(s0)
    42b8:	6c62                	flw	fs8,24(sp)
    42ba:	2e646f6f          	jal	t5,4a5a0 <_data_lma+0x45aec>
    42be:	2e2e                	lhu	a1,26(a2)
    42c0:	4120                	lw	s0,64(a0)
    42c2:	4344                	lw	s1,4(a4)
    42c4:	7620                	flw	fs0,104(a2)
    42c6:	6c61                	lui	s8,0x18
    42c8:	6575                	lui	a0,0x1d
    42ca:	203a                	lhu	a4,2(s0)
    42cc:	7525                	lui	a0,0xfffe9
    42ce:	202c                	lbu	a1,2(s0)
    42d0:	6854                	flw	fa3,20(s0)
    42d2:	6572                	flw	fa0,28(sp)
    42d4:	6c6f6873          	csrrsi	a6,0x6c6,30
    42d8:	3a64                	lbu	s1,23(a2)
    42da:	2520                	lbu	s0,10(a0)
    42dc:	0d75                	addi	s10,s10,29
    42de:	000a                	c.slli	zero,0x2
    42e0:	7245                	lui	tp,0xffff1
    42e2:	6f72                	flw	ft10,28(sp)
    42e4:	3a72                	lhu	a2,54(a2)
    42e6:	4920                	lw	s0,80(a0)
    42e8:	766e                	flw	fa2,248(sp)
    42ea:	6c61                	lui	s8,0x18
    42ec:	6469                	lui	s0,0x1a
    42ee:	7320                	flw	fs0,96(a4)
    42f0:	7274                	flw	fa3,100(a2)
    42f2:	7069                	c.lui	zero,0xffffa
    42f4:	7420                	flw	fs0,104(s0)
    42f6:	7079                	c.lui	zero,0xffffe
    42f8:	2065                	jal	43a0 <_read+0x180>
    42fa:	6620726f          	jal	tp,b95c <_data_lma+0x6ea8>
    42fe:	6961                	lui	s2,0x18
    4300:	656c                	flw	fa1,76(a0)
    4302:	2064                	lbu	s1,6(s0)
    4304:	6f74                	flw	fa3,92(a4)
    4306:	6720                	flw	fs0,72(a4)
    4308:	7465                	lui	s0,0xffff9
    430a:	7020                	flw	fs0,96(s0)
    430c:	7261                	lui	tp,0xffff8
    430e:	6d61                	lui	s10,0x18
    4310:	7465                	lui	s0,0xffff9
    4312:	7265                	lui	tp,0xffff9
    4314:	00000d73          	0xd73
    4318:	4954                	lw	a3,20(a0)
    431a:	314d                	jal	3fbc <_printf_i+0x25e>
    431c:	5020                	lw	s0,96(s0)
    431e:	49204d57          	0x49204d57
    4322:	696e                	flw	fs2,216(sp)
    4324:	6974                	flw	fa3,84(a0)
    4326:	6c61                	lui	s8,0x18
    4328:	7a69                	lui	s4,0xffffa
    432a:	6465                	lui	s0,0x19
    432c:	2820                	lbu	s0,18(s0)
    432e:	3032                	lhu	a2,34(s0)
    4330:	2c7a484b          	0x2c7a484b
    4334:	3120                	lbu	s0,3(a0)
    4336:	3030                	lbu	a2,3(s0)
    4338:	2525                	jal	4960 <__clz_tab+0x48>
    433a:	6420                	flw	fs0,72(s0)
    433c:	7475                	lui	s0,0xffffd
    433e:	2979                	jal	47dc <CSWTCH.5+0x378>
    4340:	0a0d                	addi	s4,s4,3
    4342:	0000                	unimp
    4344:	74737953          	0x74737953
    4348:	6d65                	lui	s10,0x19
    434a:	3a6b6c43          	fmadd.d	fs8,fs6,ft6,ft7,unknown
    434e:	6425                	lui	s0,0x9
    4350:	0a0d                	addi	s4,s4,3
    4352:	0000                	unimp
    4354:	6854                	flw	fa3,20(s0)
    4356:	7369                	lui	t1,0xffffa
    4358:	6920                	flw	fs0,80(a0)
    435a:	6e612073          	csrs	0x6e6,sp
    435e:	6520                	flw	fs0,72(a0)
    4360:	6178                	flw	fa4,68(a0)
    4362:	706d                	c.lui	zero,0xffffb
    4364:	656c                	flw	fa1,76(a0)
    4366:	000d                	c.nop	3
    4368:	6150                	flw	fa2,4(a0)
    436a:	6172                	flw	ft2,28(sp)
    436c:	656d                	lui	a0,0x1b
    436e:	6574                	flw	fa3,76(a0)
    4370:	2072                	lhu	a2,6(s0)
    4372:	6154                	flw	fa3,4(a0)
    4374:	6c62                	flw	fs8,24(sp)
    4376:	2065                	jal	441e <_read+0x1fe>
    4378:	6e49                	lui	t3,0x12
    437a:	7469                	lui	s0,0xffffa
    437c:	6169                	addi	sp,sp,208
    437e:	696c                	flw	fa1,84(a0)
    4380:	657a                	flw	fa0,156(sp)
    4382:	0d64                	addi	s1,sp,668
    4384:	0000                	unimp
    4386:	0000                	unimp
    4388:	4155                	li	sp,21
    438a:	5452                	lw	s0,52(sp)
    438c:	5020                	lw	s0,96(s0)
    438e:	6f72                	flw	ft10,28(sp)
    4390:	6f74                	flw	fa3,92(a4)
    4392:	206c6f63          	bltu	s8,t1,45b0 <CSWTCH.5+0x14c>
    4396:	6e49                	lui	t3,0x12
    4398:	7469                	lui	s0,0xffffa
    439a:	6169                	addi	sp,sp,208
    439c:	696c                	flw	fa1,84(a0)
    439e:	657a                	flw	fa0,156(sp)
    43a0:	0d64                	addi	s1,sp,668
    43a2:	0000                	unimp
    43a4:	5452                	lw	s0,52(sp)
    43a6:	6f432043          	fmadd.q	ft0,ft6,fs4,fa3,rdn
    43aa:	666e                	flw	fa2,216(sp)
    43ac:	6769                	lui	a4,0x1a
    43ae:	7275                	lui	tp,0xffffd
    43b0:	6465                	lui	s0,0x19
    43b2:	000d                	c.nop	3
    43b4:	6f4d                	lui	t5,0x13
    43b6:	6564                	flw	fs1,76(a0)
    43b8:	206c                	lbu	a1,6(s0)
    43ba:	6f4e                	flw	ft10,208(sp)
    43bc:	203a                	lhu	a4,2(s0)
    43be:	6425                	lui	s0,0x9
    43c0:	0a0d                	addi	s4,s4,3
    43c2:	0000                	unimp
    43c4:	5746                	lw	a4,112(sp)
    43c6:	5620                	lw	s0,104(a2)
    43c8:	7265                	lui	tp,0xffff9
    43ca:	6e6f6973          	csrrsi	s2,0x6e6,30
    43ce:	203a                	lhu	a4,2(s0)
    43d0:	6425                	lui	s0,0x9
    43d2:	252e                	lhu	a1,10(a0)
    43d4:	0d64                	addi	s1,sp,668
    43d6:	000a                	c.slli	zero,0x2
    43d8:	6150                	flw	fa2,4(a0)
    43da:	6172                	flw	ft2,28(sp)
    43dc:	656d                	lui	a0,0x1b
    43de:	6574                	flw	fa3,76(a0)
    43e0:	2072                	lhu	a2,6(s0)
    43e2:	6154                	flw	fa3,4(a0)
    43e4:	6c62                	flw	fs8,24(sp)
    43e6:	2065                	jal	448e <CSWTCH.5+0x2a>
    43e8:	6556                	flw	fa0,84(sp)
    43ea:	7372                	flw	ft6,60(sp)
    43ec:	6f69                	lui	t5,0x1a
    43ee:	3a6e                	lhu	a1,54(a2)
    43f0:	2520                	lbu	s0,10(a0)
    43f2:	0d64                	addi	s1,sp,668
    43f4:	000a                	c.slli	zero,0x2
    43f6:	0000                	unimp
    43f8:	6554                	flw	fa3,12(a0)
    43fa:	43207473          	csrrci	s0,0x432,0
    43fe:	746e756f          	jal	a0,ebb44 <_data_lma+0xe7090>
    4402:	203a                	lhu	a4,2(s0)
    4404:	6425                	lui	s0,0x9
    4406:	0a0d                	addi	s4,s4,3
    4408:	0000                	unimp
    440a:	0000                	unimp
    440c:	69727453          	0x69727453
    4410:	2070                	lbu	a2,6(s0)
    4412:	7954                	flw	fa3,52(a0)
    4414:	6570                	flw	fa2,76(a0)
    4416:	203a                	lhu	a4,2(s0)
    4418:	7325                	lui	t1,0xfffe9
    441a:	0a0d                	addi	s4,s4,3
    441c:	0000                	unimp
    441e:	0000                	unimp
    4420:	6e55                	lui	t3,0x15
    4422:	7469                	lui	s0,0xffffa
    4424:	203a                	lhu	a4,2(s0)
    4426:	7325                	lui	t1,0xfffe9
    4428:	0a0d                	addi	s4,s4,3
	...

0000442c <CSWTCH.10>:
    442c:	0028 00d6 0164 01f2 0028 0000               (...d...(...

00004438 <CSWTCH.11>:
    4438:	002a 00d8 0166 01f4 002a 0000               *...f...*...

00004444 <CSWTCH.12>:
    4444:	002c 00da 0168 01f6 002c 0000               ,...h...,...

00004450 <CSWTCH.4>:
    4450:	44f0 0000 4500 0000 450c 0000 4518 0000     .D...E...E...E..
    4460:	4528 0000                                   (E..

00004464 <CSWTCH.5>:
    4464:	44d8 0000 44e0 0000 44e8 0000 6150 6172     .D...D...D..Para
    4474:	656d 6574 2072 6174 6c62 2065 6863 6365     meter table chec
    4484:	736b 6d75 6520 7272 726f 202c 6f6c 6461     ksum error, load
    4494:	6e69 2067 6564 6166 6c75 7374 0d2e 0000     ing defaults....
    44a4:	6150 6172 656d 6574 2072 6174 6c62 2065     Parameter table 
    44b4:	6f6c 6461 6465 7320 6375 6563 7373 7566     loaded successfu
    44c4:	6c6c 2e79 000d 0000 6e55 6e6b 776f 006e     lly.....Unknown.
    44d4:	003f 0000 6d6d 6c6f 4c2f 0000 676d 642f     ?...mmol/L..mg/d
    44e4:	004c 0000 6d67 642f 006c 0000 6c42 6f6f     L...gm/dl...Bloo
    44f4:	2064 6c47 6375 736f 0065 0000 7255 6369     d Glucose...Uric
    4504:	4120 6963 0064 0000 6843 6c6f 7365 6574      Acid...Choleste
    4514:	6f72 006c 7254 6769 796c 6563 6972 6564     rol.Triglyceride
    4524:	0073 0000 6c42 6f6f 2064 6c47 6375 736f     s...Blood Glucos
    4534:	2065 4728 5641 0029 6f50 6577 2072 6e4f     e (GAV).Power On
    4544:	5220 7365 7465 4f20 6363 7275 6572 2e64      Reset Occurred.
    4554:	2e2e 000d 7845 6574 6e72 6c61 5220 7365     ....External Res
    4564:	7465 4f20 6363 7275 6572 2e64 2e2e 000d     et Occurred.....
    4574:	6f4e 6e20 6565 2064 6f74 7220 6365 6e6f     No need to recon
    4584:	6966 7567 6572 5220 4354 2e2e 0d2e 0000     figure RTC......
    4594:	5452 2043 6e49 7469 6169 696c 657a 0d64     RTC Initialized.
    45a4:	0000 0000 5452 2043 6954 656d 5320 7465     ....RTC Time Set
    45b4:	203a 3025 6432 252f 3230 2f64 3025 6432     : %02d/%02d/%02d
    45c4:	2520 3230 3a64 3025 6432 253a 3230 0d64      %02d:%02d:%02d.
    45d4:	000a 0000 5452 2043 7953 636e 6465 7720     ....RTC Synced w
    45e4:	7469 2068 6150 6172 656d 6574 2072 6154     ith Parameter Ta
    45f4:	6c62 0d65 0000 0000 6146 6c69 6465 7420     ble.....Failed t
    4604:	206f 6567 2074 6974 656d 6620 6f72 206d     o get time from 
    4614:	6150 6172 656d 6574 2072 6154 6c62 0d65     Parameter Table.
    4624:	0000 0000 6150 6172 656d 6574 2072 6154     ....Parameter Ta
    4634:	6c62 2065 6954 656d 5520 6470 7461 6465     ble Time Updated
    4644:	203a 3025 6432 252f 3230 2f64 3025 6432     : %02d/%02d/%02d
    4654:	2520 3230 3a64 3025 6432 253a 3230 0d64      %02d:%02d:%02d.
    4664:	000a 0000 6146 6c69 6465 7420 206f 7075     ....Failed to up
    4674:	6164 6574 7420 6d69 2065 6e69 5020 7261     date time in Par
    4684:	6d61 7465 7265 5420 6261 656c 000d 0000     ameter Table....
    4694:	0f92 0000 0fc2 0000 0fc8 0000 0fce 0000     ................
    46a4:	0f92 0000 0000 4000 7453 6972 2070 6e49     .......@Strip In
    46b4:	6573 7472 6465 4520 6576 746e 5220 6365     serted Event Rec
    46c4:	6965 6576 0d64 0000 7453 6972 2070 6544     eived...Strip De
    46d4:	6574 7463 6465 6120 2073 7974 6570 203a     tected as type: 
    46e4:	7325 0a0d 0000 0000 7453 6972 2070 6544     %s......Strip De
    46f4:	6574 7463 6f69 206e 6f4d 7564 656c 4920     tection Module I
    4704:	696e 6974 6c61 7a69 6465 000d 3333 4053     nitialized..33S@
    4714:	0000 3980 7453 6972 2070 7954 6570 4420     ...9Strip Type D
    4724:	7465 6365 6574 3a64 2520 2073 5428 5631     etected: %s (T1V
    4734:	253d 322e 5666 202c 3350 253d 2c64 5020     =%.2fV, P3=%d, P
    4744:	3d35 6425 0d29 000a 6553 746e 5320 7274     5=%d)...Sent Str
    4754:	7069 5420 7079 2065 6f74 4220 454c 203a     ip Type to BLE: 
    4764:	6425 0a0d 0000 0000 7953 7473 6d65 6e20     %d......System n
    4774:	776f 7720 6961 6974 676e 6620 726f 6220     ow waiting for b
    4784:	6f6c 646f 7320 6d61 6c70 2e65 2e2e 000d     lood sample.....
    4794:	7953 7473 6d65 5320 6174 6574 203a 6425     System State: %d
    47a4:	2d20 203e 6425 0a0d 0000 0000 19e8 0000      -> %d..........
    47b4:	1a00 0000 1a24 0000 1a44 0000 1a6c 0000     ....$...D...l...
    47c4:	1a80 0000 7453 6972 2070 6e69 6573 7472     ....Strip insert
    47d4:	6465 6e20 746f 6669 6369 7461 6f69 206e     ed notification 
    47e4:	6572 6563 7669 6465 202e 6950 336e 253d     received. Pin3=%
    47f4:	2c64 5020 6e69 3d35 6425 202c 6142 7474     d, Pin5=%d, Batt
    4804:	7265 5679 6c6f 6174 6567 253d 6d64 0d56     eryVoltage=%dmV.
    4814:	000a 0000 7453 6972 2070 6e69 6573 7472     ....Strip insert
    4824:	6465 6e20 746f 6669 6369 7461 6f69 206e     ed notification 
    4834:	6572 6563 7669 6465 202e 6950 336e 253d     received. Pin3=%
    4844:	2c64 5020 6e69 3d35 6425 0a0d 0000 0000     d, Pin5=%d......
    4854:	7453 6972 2070 6e69 6573 7472 6465 6e20     Strip inserted n
    4864:	746f 6669 6369 7461 6f69 206e 6977 6874     otification with
    4874:	756f 2074 6970 206e 7473 7461 7375 000d     out pin status..
    4884:	4155 5452 5020 6f72 6f74 6f63 206c 6e69     UART Protocol in
    4894:	7469 6169 696c 657a 0d64 0000 6553 646e     itialized...Send
    48a4:	6e69 2067 7473 6972 2070 7974 6570 6120     ing strip type a
    48b4:	6b63 203a 7325 202c 6142 7474 7265 3a79     ck: %s, Battery:
    48c4:	2520 6d64 0d56 000a 3141 3332 3534 3736      %dmV...A1234567
    48d4:	3938 0000 e3de ffff e330 ffff e330 ffff     89......0...0...
    48e4:	e32e ffff e334 ffff e334 ffff e304 ffff     ....4...4.......
    48f4:	e32e ffff e334 ffff e304 ffff e334 ffff     ....4.......4...
    4904:	e32e ffff e3cc ffff e3cc ffff e3cc ffff     ................
    4914:	e304 ffff                                   ....

00004918 <__clz_tab>:
    4918:	0100 0202 0303 0303 0404 0404 0404 0404     ................
    4928:	0505 0505 0505 0505 0505 0505 0505 0505     ................
    4938:	0606 0606 0606 0606 0606 0606 0606 0606     ................
    4948:	0606 0606 0606 0606 0606 0606 0606 0606     ................
    4958:	0707 0707 0707 0707 0707 0707 0707 0707     ................
    4968:	0707 0707 0707 0707 0707 0707 0707 0707     ................
    4978:	0707 0707 0707 0707 0707 0707 0707 0707     ................
    4988:	0707 0707 0707 0707 0707 0707 0707 0707     ................
    4998:	0808 0808 0808 0808 0808 0808 0808 0808     ................
    49a8:	0808 0808 0808 0808 0808 0808 0808 0808     ................
    49b8:	0808 0808 0808 0808 0808 0808 0808 0808     ................
    49c8:	0808 0808 0808 0808 0808 0808 0808 0808     ................
    49d8:	0808 0808 0808 0808 0808 0808 0808 0808     ................
    49e8:	0808 0808 0808 0808 0808 0808 0808 0808     ................
    49f8:	0808 0808 0808 0808 0808 0808 0808 0808     ................
    4a08:	0808 0808 0808 0808 0808 0808 0808 0808     ................

00004a18 <__sf_fake_stderr>:
	...

00004a38 <__sf_fake_stdin>:
	...

00004a58 <__sf_fake_stdout>:
	...
    4a78:	2d23 2b30 0020 0000 6c68 004c 6665 4567     #-0+ ...hlL.efgE
    4a88:	4746 0000 3130 3332 3534 3736 3938 4241     FG..0123456789AB
    4a98:	4443 4645 0000 0000 3130 3332 3534 3736     CDEF....01234567
    4aa8:	3938 6261 6463 6665 0000 0000               89abcdef....
