
CH32V203G8R6.elf:     file format elf32-littleriscv
CH32V203G8R6.elf
architecture: riscv:rv32, flags 0x00000112:
EXEC_P, HAS_SYMS, D_PAGED
start address 0x00000000

Program Header:
    LOAD off    0x00001000 vaddr 0x00000000 paddr 0x00000000 align 2**12
         filesz 0x00002084 memsz 0x00002084 flags r-x
    LOAD off    0x00004000 vaddr 0x20000000 paddr 0x00002084 align 2**12
         filesz 0x00000088 memsz 0x000005ac flags rw-
    LOAD off    0x00004800 vaddr 0x20004800 paddr 0x20004800 align 2**12
         filesz 0x00000000 memsz 0x00000800 flags rw-

Sections:
Idx Name          Size      VMA       LMA       File off  Algn
  0 .init         00000004  00000000  00000000  00001000  2**1
                  CONTENTS, ALLOC, LOAD, READONLY, CODE
  1 .vector       000000fc  00000004  00000004  00001004  2**1
                  CONTENTS, ALLOC, LOAD, READONLY, CODE
  2 .text         00001f84  00000100  00000100  00001100  2**2
                  CONTENTS, ALLOC, LOAD, READONLY, CODE
  3 .fini         00000000  00002084  00002084  00004088  2**0
                  CONTENTS, ALLOC, LOAD, CODE
  4 .dalign       00000000  20000000  20000000  00004088  2**0
                  CONTENTS
  5 .dlalign      00000000  00002084  00002084  00004088  2**0
                  CONTENTS
  6 .data         00000088  20000000  00002084  00004000  2**2
                  CONTENTS, ALLOC, LOAD, DATA
  7 .bss          00000524  20000088  0000210c  00004088  2**2
                  ALLOC
  8 .stack        00000800  20004800  20004800  00004800  2**0
                  ALLOC
  9 .debug_info   000090f6  00000000  00000000  00004088  2**0
                  CONTENTS, READONLY, DEBUGGING
 10 .debug_abbrev 00001b0b  00000000  00000000  0000d17e  2**0
                  CONTENTS, READONLY, DEBUGGING
 11 .debug_aranges 00000478  00000000  00000000  0000ec90  2**3
                  CONTENTS, READONLY, DEBUGGING
 12 .debug_ranges 00000430  00000000  00000000  0000f108  2**3
                  CONTENTS, READONLY, DEBUGGING
 13 .debug_line   00006780  00000000  00000000  0000f538  2**0
                  CONTENTS, READONLY, DEBUGGING
 14 .debug_str    00001b9a  00000000  00000000  00015cb8  2**0
                  CONTENTS, READONLY, DEBUGGING
 15 .comment      00000032  00000000  00000000  00017852  2**0
                  CONTENTS, READONLY
 16 .debug_frame  000012ac  00000000  00000000  00017884  2**2
                  CONTENTS, READONLY, DEBUGGING
 17 .debug_loc    00001bbf  00000000  00000000  00018b30  2**0
                  CONTENTS, READONLY, DEBUGGING
 18 .stab         00000084  00000000  00000000  0001a6f0  2**2
                  CONTENTS, READONLY, DEBUGGING
 19 .stabstr      00000117  00000000  00000000  0001a774  2**0
                  CONTENTS, READONLY, DEBUGGING
SYMBOL TABLE:
00000000 l    d  .init	00000000 .init
00000004 l    d  .vector	00000000 .vector
00000100 l    d  .text	00000000 .text
00002084 l    d  .fini	00000000 .fini
20000000 l    d  .dalign	00000000 .dalign
00002084 l    d  .dlalign	00000000 .dlalign
20000000 l    d  .data	00000000 .data
20000088 l    d  .bss	00000000 .bss
20004800 l    d  .stack	00000000 .stack
00000000 l    d  .debug_info	00000000 .debug_info
00000000 l    d  .debug_abbrev	00000000 .debug_abbrev
00000000 l    d  .debug_aranges	00000000 .debug_aranges
00000000 l    d  .debug_ranges	00000000 .debug_ranges
00000000 l    d  .debug_line	00000000 .debug_line
00000000 l    d  .debug_str	00000000 .debug_str
00000000 l    d  .comment	00000000 .comment
00000000 l    d  .debug_frame	00000000 .debug_frame
00000000 l    d  .debug_loc	00000000 .debug_loc
00000000 l    d  .stab	00000000 .stab
00000000 l    d  .stabstr	00000000 .stabstr
00000000 l    df *ABS*	00000000 ./Startup/startup_ch32v20x_D6.o
00000004 l       .vector	00000000 _vector_base
00000000 l    df *ABS*	00000000 ch32v20x_it.c
00000000 l    df *ABS*	00000000 main.c
00000000 l    df *ABS*	00000000 system_ch32v20x.c
00000000 l    df *ABS*	00000000 ch32v20x_dma.c
00000000 l    df *ABS*	00000000 ch32v20x_gpio.c
00000000 l    df *ABS*	00000000 ch32v20x_misc.c
00000000 l    df *ABS*	00000000 ch32v20x_rcc.c
20000000 l     O .data	00000010 APBAHBPrescTable
20000074 l     O .data	00000004 ADCPrescTable
00000000 l    df *ABS*	00000000 ch32v20x_usart.c
00000000 l    df *ABS*	00000000 debug.c
20000090 l     O .bss	00000002 p_ms
20000092 l     O .bss	00000001 p_us
20000078 l     O .data	00000004 curbrk.4652
00000000 l    df *ABS*	00000000 memcpy.c
00000000 l    df *ABS*	00000000 printf.c
00000000 l    df *ABS*	00000000 putchar.c
00000000 l    df *ABS*	00000000 puts.c
00000000 l    df *ABS*	00000000 wbuf.c
00000000 l    df *ABS*	00000000 wsetup.c
00000000 l    df *ABS*	00000000 fflush.c
00000000 l    df *ABS*	00000000 findfp.c
000011d6 l     F .text	00000066 std
00000000 l    df *ABS*	00000000 fwalk.c
00000000 l    df *ABS*	00000000 makebuf.c
00000000 l    df *ABS*	00000000 nano-mallocr.c
00000000 l    df *ABS*	00000000 nano-mallocr.c
00000000 l    df *ABS*	00000000 nano-vfprintf.c
00001660 l     F .text	00000028 __sfputc_r
00000000 l    df *ABS*	00000000 nano-vfprintf_i.c
00000000 l    df *ABS*	00000000 putc.c
00000000 l    df *ABS*	00000000 sbrkr.c
00000000 l    df *ABS*	00000000 stdio.c
00000000 l    df *ABS*	00000000 writer.c
00000000 l    df *ABS*	00000000 closer.c
00000000 l    df *ABS*	00000000 fstatr.c
00000000 l    df *ABS*	00000000 isattyr.c
00000000 l    df *ABS*	00000000 lseekr.c
00000000 l    df *ABS*	00000000 memchr.c
00000000 l    df *ABS*	00000000 mlock.c
00000000 l    df *ABS*	00000000 readr.c
00000000 l    df *ABS*	00000000 close.c
00000000 l    df *ABS*	00000000 fstat.c
00000000 l    df *ABS*	00000000 isatty.c
00000000 l    df *ABS*	00000000 lseek.c
00000000 l    df *ABS*	00000000 read.c
00000000 l    df *ABS*	00000000 impure.c
20000010 l     O .data	00000060 impure_data
00000000 l    df *ABS*	00000000 reent.c
00000668  w      .text	00000000 EXTI2_IRQHandler
00000d82 g     F .text	0000002a putchar
00001ed2 g     F .text	00000028 _isatty_r
00000dac g     F .text	000000d4 _puts_r
00001efa g     F .text	0000002c _lseek_r
000007c4 g     F .text	00000014 DMA_Cmd
00000d42 g     F .text	00000040 printf
20000870 g       .data	00000000 __global_pointer$
00000108 g     F .text	00000028 .hidden __riscv_save_8
00000668  w      .text	00000000 TIM1_CC_IRQHandler
00001e1c g     F .text	00000030 __sseek
0000128c g     F .text	00000066 __sinit
00000e8a g     F .text	000000bc __swbuf_r
0000020a g     F .text	00000010 HardFault_Handler
00001246 g     F .text	00000046 __sfmoreglue
00001f40 g     F .text	00000002 __malloc_unlock
00000154 g     F .text	0000000c .hidden __riscv_restore_3
00000668  w      .text	00000000 SysTick_Handler
000008ee g     F .text	00000054 NVIC_Init
00000668  w      .text	00000000 PVD_IRQHandler
00000140 g     F .text	00000020 .hidden __riscv_restore_10
00000208 g     F .text	00000002 NMI_Handler
00000668  w      .text	00000000 EXTI3_IRQHandler
00000108 g     F .text	00000028 .hidden __riscv_save_11
00000b38 g     F .text	0000000a USART_GetFlagStatus
00001ea8 g     F .text	0000002a _fstat_r
200005a8 g     O .bss	00000004 errno
20000088 g       .bss	00000000 _sbss
00000800 g       *ABS*	00000000 __stack_size
00000bde g     F .text	00000052 USART_Printf_Init
0000078c g     F .text	00000038 DMA_Init
00000668  w      .text	00000000 USBFS_IRQHandler
00000154 g     F .text	0000000c .hidden __riscv_restore_2
000003da g     F .text	0000003e ring_buffer_pop
00000c90 g     F .text	000000b2 memcpy
0000123c g     F .text	0000000a _cleanup_r
00000668  w      .text	00000000 EXTI0_IRQHandler
00000668  w      .text	00000000 I2C2_EV_IRQHandler
2000009c g     O .bss	00000101 USART_DMA_CTRL
00000e80 g     F .text	0000000a puts
20000070 g     O .data	00000004 SystemCoreClock
00000b30 g     F .text	00000008 USART_ReceiveData
00001f7a g     F .text	0000000c _fstat
00000004 g       .init	00000000 _einit
000007ea g     F .text	00000004 DMA_SetCurrDataCounter
00000a1e g     F .text	0000001e RCC_APB2PeriphClockCmd
00000100 g     F .text	00000030 .hidden __riscv_save_12
00000668  w      .text	00000000 ADC1_2_IRQHandler
000007f6 g     F .text	000000f2 GPIO_Init
00000668  w      .text	00000000 Break_Point_Handler
00000140 g     F .text	00000020 .hidden __riscv_restore_11
2000008c g     O .bss	00000004 NVIC_Priority_Group
00000668  w      .text	00000000 SPI1_IRQHandler
00000aca g     F .text	00000016 USART_Cmd
00001d7e g     F .text	0000002a _sbrk_r
00000130 g     F .text	0000000c .hidden __riscv_save_1
00000668  w      .text	00000000 TAMPER_IRQHandler
00000154 g     F .text	0000000c .hidden __riscv_restore_0
00001f42 g     F .text	0000002c _read_r
00000116 g     F .text	0000001a .hidden __riscv_save_7
000007ee g     F .text	00000008 DMA_ClearITPendingBit
00000668  w      .text	00000000 Ecall_M_Mode_Handler
20004800 g       .stack	00000000 _heap_end
00001f86 g     F .text	0000000c _isatty
20000080 g     O .data	00000004 _global_impure_ptr
0000014a g     F .text	00000016 .hidden __riscv_restore_5
00000a00 g     F .text	0000001e RCC_AHBPeriphClockCmd
00000668  w      .text	00000000 DMA1_Channel4_IRQHandler
00000c6a g     F .text	00000026 _sbrk
0000014a g     F .text	00000016 .hidden __riscv_restore_6
00000668  w      .text	00000000 USART3_IRQHandler
00000668  w      .text	00000000 RTC_IRQHandler
200005ac g       .bss	00000000 _ebss
00000b42 g     F .text	0000003c USART_GetITStatus
00000668  w      .text	00000000 DMA1_Channel7_IRQHandler
00000668  w      .text	00000000 CAN1_RX1_IRQHandler
00000b7e g     F .text	0000002a Delay_Init
00001cfa g     F .text	00000084 _putc_r
00000668  w      .text	00000000 TIM4_IRQHandler
00000108 g     F .text	00000028 .hidden __riscv_save_9
00001fe8 g     O .text	00000020 __sf_fake_stderr
00000116 g     F .text	0000001a .hidden __riscv_save_4
00000668  w      .text	00000000 I2C1_EV_IRQHandler
00000942 g     F .text	000000be RCC_GetClocksFreq
00000668  w      .text	00000000 DMA1_Channel6_IRQHandler
00001688 g     F .text	00000040 __sfputs_r
00000668  w      .text	00000000 UART4_IRQHandler
00001f26 g     F .text	00000018 memchr
00000a3c g     F .text	0000008e USART_Init
000014e0 g     F .text	000000a8 _free_r
00000668  w      .text	00000000 TIM3_IRQHandler
00000668  w      .text	00000000 RCC_IRQHandler
00000130 g     F .text	0000000c .hidden __riscv_save_3
00000668  w      .text	00000000 TIM1_TRG_COM_IRQHandler
000002b4 g     F .text	0000008c DMA_INIT
00000668  w      .text	00000000 DMA1_Channel1_IRQHandler
00000000 g       .init	00000000 _start
00001f92 g     F .text	0000000c _lseek
00000668  w      .text	00000000 EXTI15_10_IRQHandler
00000ae0 g     F .text	00000036 USART_ITConfig
00000668  w      .text	00000000 DMA1_Channel8_IRQHandler
00001e80 g     F .text	00000028 _close_r
20000000 g       .dalign	00000000 _data_vma
0000021a g     F .text	0000009a USARTx_CFG
20000088 g     O .bss	00000001 MCU_Version
00000f46 g     F .text	000000fc __swsetup_r
00000668  w      .text	00000000 EXTI9_5_IRQHandler
000012f2 g     F .text	0000009c __sfp
00000108 g     F .text	00000028 .hidden __riscv_save_10
00001da8 g     F .text	0000002c __sread
00001f3e g     F .text	00000002 __malloc_lock
0000014a g     F .text	00000016 .hidden __riscv_restore_4
00000140 g     F .text	00000020 .hidden __riscv_restore_8
00001172 g     F .text	00000064 _fflush_r
00000116 g     F .text	0000001a .hidden __riscv_save_6
00000668  w      .text	00000000 SPI2_IRQHandler
00002008 g     O .text	00000020 __sf_fake_stdin
00000160 g     F .text	000000a8 memset
00000140 g     F .text	00000020 .hidden __riscv_restore_9
0000014a g     F .text	00000016 .hidden __riscv_restore_7
00000418 g     F .text	00000082 main
00000340 g     F .text	0000009a ring_buffer_push_huge
00001e4c g     F .text	00000006 __sclose
00001588 g     F .text	000000d8 _malloc_r
0000051e g     F .text	00000060 DMA1_Channel5_IRQHandler
00000668  w      .text	00000000 EXTI4_IRQHandler
00000ba8 g     F .text	00000036 Delay_Ms
00000668  w      .text	00000000 USB_LP_CAN1_RX0_IRQHandler
0000057e g     F .text	000000ea SystemInit
00000d42 g     F .text	00000040 iprintf
00000668  w      .text	00000000 USB_HP_CAN1_TX_IRQHandler
00000000 g       .init	00000000 _sinit
00001e52 g     F .text	0000002e _write_r
00000668  w      .text	00000000 DMA1_Channel3_IRQHandler
0000194e g     F .text	0000010c _printf_common
2000007c g     O .data	00000004 _impure_ptr
00000668  w      .text	00000000 TIM1_UP_IRQHandler
00001042 g     F .text	00000130 __sflush_r
00000668  w      .text	00000000 WWDG_IRQHandler
00000668  w      .text	00000000 Ecall_U_Mode_Handler
000007d8 g     F .text	00000012 DMA_ITConfig
00000668  w      .text	00000000 TIM2_IRQHandler
20005000 g       .stack	00000000 _eusrstack
00000130 g     F .text	0000000c .hidden __riscv_save_2
00000668  w      .text	00000000 SW_Handler
00000668  w      .text	00000000 TIM1_BRK_IRQHandler
000013f8 g     F .text	00000058 __swhatbuf_r
00000b28 g     F .text	00000008 USART_SendData
00000668  w      .text	00000000 EXTI1_IRQHandler
00000116 g     F .text	0000001a .hidden __riscv_save_5
00000c30 g     F .text	0000003a _write
20000088 g       .data	00000000 _edata
200005ac g       .bss	00000000 _end
00000668  w      .text	00000000 RTCAlarm_IRQHandler
00002084 g       .dlalign	00000000 _data_lma
00000668  w      .text	00000000 USART2_IRQHandler
00001dd4 g     F .text	00000048 __swrite
000016c8 g     F .text	00000286 _vfiprintf_r
0000138e g     F .text	0000006a _fwalk_reent
00000668  w      .text	00000000 I2C2_ER_IRQHandler
00000668  w      .text	00000000 DMA1_Channel2_IRQHandler
00002028 g     O .text	00000020 __sf_fake_stdout
0000013c g     F .text	00000024 .hidden __riscv_restore_12
00001f9e g     F .text	0000000c _read
0000066a  w      .text	00000000 handle_reset
00000668  w      .text	00000000 CAN1_SCE_IRQHandler
00000130 g     F .text	0000000c .hidden __riscv_save_0
00000668  w      .text	00000000 FLASH_IRQHandler
00000668  w      .text	00000000 USBFSWakeUp_IRQHandler
0000049a g     F .text	00000084 USART1_IRQHandler
00001450 g     F .text	00000090 __smakebuf_r
00001a5a g     F .text	000002a0 _printf_i
20000098 g     O .bss	00000004 __malloc_sbrk_start
00000668  w      .text	00000000 I2C1_ER_IRQHandler
000008e8 g     F .text	00000006 NVIC_PriorityGroupConfig
000006f0 g     F .text	0000009c DMA_DeInit
20000094 g     O .bss	00000004 __malloc_free_list
00000154 g     F .text	0000000c .hidden __riscv_restore_1
000016c8 g     F .text	00000286 _vfprintf_r
00000b16 g     F .text	00000012 USART_DMACmd
200001a0 g     O .bss	00000406 ring_buffer
00000668  w      .text	00000000 USBWakeUp_IRQHandler
00001f6e g     F .text	0000000c _close



Disassembly of section .init:

00000000 <_sinit>:
   0:	66a0006f          	j	66a <handle_reset>

Disassembly of section .vector:

00000004 <_vector_base>:
	...
   c:	0208                	addi	a0,sp,256
   e:	0000                	unimp
  10:	020a                	slli	tp,tp,0x2
  12:	0000                	unimp
  14:	0000                	unimp
  16:	0000                	unimp
  18:	0668                	addi	a0,sp,780
	...
  22:	0000                	unimp
  24:	0668                	addi	a0,sp,780
  26:	0000                	unimp
  28:	0668                	addi	a0,sp,780
	...
  32:	0000                	unimp
  34:	0668                	addi	a0,sp,780
  36:	0000                	unimp
  38:	0000                	unimp
  3a:	0000                	unimp
  3c:	0668                	addi	a0,sp,780
  3e:	0000                	unimp
  40:	0000                	unimp
  42:	0000                	unimp
  44:	0668                	addi	a0,sp,780
  46:	0000                	unimp
  48:	0668                	addi	a0,sp,780
  4a:	0000                	unimp
  4c:	0668                	addi	a0,sp,780
  4e:	0000                	unimp
  50:	0668                	addi	a0,sp,780
  52:	0000                	unimp
  54:	0668                	addi	a0,sp,780
  56:	0000                	unimp
  58:	0668                	addi	a0,sp,780
  5a:	0000                	unimp
  5c:	0668                	addi	a0,sp,780
  5e:	0000                	unimp
  60:	0668                	addi	a0,sp,780
  62:	0000                	unimp
  64:	0668                	addi	a0,sp,780
  66:	0000                	unimp
  68:	0668                	addi	a0,sp,780
  6a:	0000                	unimp
  6c:	0668                	addi	a0,sp,780
  6e:	0000                	unimp
  70:	0668                	addi	a0,sp,780
  72:	0000                	unimp
  74:	0668                	addi	a0,sp,780
  76:	0000                	unimp
  78:	0668                	addi	a0,sp,780
  7a:	0000                	unimp
  7c:	0668                	addi	a0,sp,780
  7e:	0000                	unimp
  80:	051e                	slli	a0,a0,0x7
  82:	0000                	unimp
  84:	0668                	addi	a0,sp,780
  86:	0000                	unimp
  88:	0668                	addi	a0,sp,780
  8a:	0000                	unimp
  8c:	0668                	addi	a0,sp,780
  8e:	0000                	unimp
  90:	0668                	addi	a0,sp,780
  92:	0000                	unimp
  94:	0668                	addi	a0,sp,780
  96:	0000                	unimp
  98:	0668                	addi	a0,sp,780
  9a:	0000                	unimp
  9c:	0668                	addi	a0,sp,780
  9e:	0000                	unimp
  a0:	0668                	addi	a0,sp,780
  a2:	0000                	unimp
  a4:	0668                	addi	a0,sp,780
  a6:	0000                	unimp
  a8:	0668                	addi	a0,sp,780
  aa:	0000                	unimp
  ac:	0668                	addi	a0,sp,780
  ae:	0000                	unimp
  b0:	0668                	addi	a0,sp,780
  b2:	0000                	unimp
  b4:	0668                	addi	a0,sp,780
  b6:	0000                	unimp
  b8:	0668                	addi	a0,sp,780
  ba:	0000                	unimp
  bc:	0668                	addi	a0,sp,780
  be:	0000                	unimp
  c0:	0668                	addi	a0,sp,780
  c2:	0000                	unimp
  c4:	0668                	addi	a0,sp,780
  c6:	0000                	unimp
  c8:	0668                	addi	a0,sp,780
  ca:	0000                	unimp
  cc:	0668                	addi	a0,sp,780
  ce:	0000                	unimp
  d0:	0668                	addi	a0,sp,780
  d2:	0000                	unimp
  d4:	0668                	addi	a0,sp,780
  d6:	0000                	unimp
  d8:	049a                	slli	s1,s1,0x6
  da:	0000                	unimp
  dc:	0668                	addi	a0,sp,780
  de:	0000                	unimp
  e0:	0668                	addi	a0,sp,780
  e2:	0000                	unimp
  e4:	0668                	addi	a0,sp,780
  e6:	0000                	unimp
  e8:	0668                	addi	a0,sp,780
  ea:	0000                	unimp
  ec:	0668                	addi	a0,sp,780
  ee:	0000                	unimp
  f0:	0668                	addi	a0,sp,780
  f2:	0000                	unimp
  f4:	0668                	addi	a0,sp,780
  f6:	0000                	unimp
  f8:	0668                	addi	a0,sp,780
  fa:	0000                	unimp
  fc:	0668                	addi	a0,sp,780
	...

Disassembly of section .text:

00000100 <__riscv_save_12>:
     100:	7139                	addi	sp,sp,-64
     102:	4301                	li	t1,0
     104:	c66e                	sw	s11,12(sp)
     106:	a019                	j	10c <__riscv_save_10+0x4>

00000108 <__riscv_save_10>:
     108:	7139                	addi	sp,sp,-64
     10a:	5341                	li	t1,-16
     10c:	c86a                	sw	s10,16(sp)
     10e:	ca66                	sw	s9,20(sp)
     110:	cc62                	sw	s8,24(sp)
     112:	ce5e                	sw	s7,28(sp)
     114:	a019                	j	11a <__riscv_save_4+0x4>

00000116 <__riscv_save_4>:
     116:	7139                	addi	sp,sp,-64
     118:	5301                	li	t1,-32
     11a:	d05a                	sw	s6,32(sp)
     11c:	d256                	sw	s5,36(sp)
     11e:	d452                	sw	s4,40(sp)
     120:	d64e                	sw	s3,44(sp)
     122:	d84a                	sw	s2,48(sp)
     124:	da26                	sw	s1,52(sp)
     126:	dc22                	sw	s0,56(sp)
     128:	de06                	sw	ra,60(sp)
     12a:	40610133          	sub	sp,sp,t1
     12e:	8282                	jr	t0

00000130 <__riscv_save_0>:
     130:	1141                	addi	sp,sp,-16
     132:	c04a                	sw	s2,0(sp)
     134:	c226                	sw	s1,4(sp)
     136:	c422                	sw	s0,8(sp)
     138:	c606                	sw	ra,12(sp)
     13a:	8282                	jr	t0

0000013c <__riscv_restore_12>:
     13c:	4db2                	lw	s11,12(sp)
     13e:	0141                	addi	sp,sp,16

00000140 <__riscv_restore_10>:
     140:	4d02                	lw	s10,0(sp)
     142:	4c92                	lw	s9,4(sp)
     144:	4c22                	lw	s8,8(sp)
     146:	4bb2                	lw	s7,12(sp)
     148:	0141                	addi	sp,sp,16

0000014a <__riscv_restore_4>:
     14a:	4b02                	lw	s6,0(sp)
     14c:	4a92                	lw	s5,4(sp)
     14e:	4a22                	lw	s4,8(sp)
     150:	49b2                	lw	s3,12(sp)
     152:	0141                	addi	sp,sp,16

00000154 <__riscv_restore_0>:
     154:	4902                	lw	s2,0(sp)
     156:	4492                	lw	s1,4(sp)
     158:	4422                	lw	s0,8(sp)
     15a:	40b2                	lw	ra,12(sp)
     15c:	0141                	addi	sp,sp,16
     15e:	8082                	ret

00000160 <memset>:
     160:	433d                	li	t1,15
     162:	872a                	mv	a4,a0
     164:	02c37363          	bgeu	t1,a2,18a <memset+0x2a>
     168:	00f77793          	andi	a5,a4,15
     16c:	efbd                	bnez	a5,1ea <memset+0x8a>
     16e:	e5ad                	bnez	a1,1d8 <memset+0x78>
     170:	ff067693          	andi	a3,a2,-16
     174:	8a3d                	andi	a2,a2,15
     176:	96ba                	add	a3,a3,a4
     178:	c30c                	sw	a1,0(a4)
     17a:	c34c                	sw	a1,4(a4)
     17c:	c70c                	sw	a1,8(a4)
     17e:	c74c                	sw	a1,12(a4)
     180:	0741                	addi	a4,a4,16
     182:	fed76be3          	bltu	a4,a3,178 <memset+0x18>
     186:	e211                	bnez	a2,18a <memset+0x2a>
     188:	8082                	ret
     18a:	40c306b3          	sub	a3,t1,a2
     18e:	068a                	slli	a3,a3,0x2
     190:	00000297          	auipc	t0,0x0
     194:	9696                	add	a3,a3,t0
     196:	00a68067          	jr	10(a3)
     19a:	00b70723          	sb	a1,14(a4)
     19e:	00b706a3          	sb	a1,13(a4)
     1a2:	00b70623          	sb	a1,12(a4)
     1a6:	00b705a3          	sb	a1,11(a4)
     1aa:	00b70523          	sb	a1,10(a4)
     1ae:	00b704a3          	sb	a1,9(a4)
     1b2:	00b70423          	sb	a1,8(a4)
     1b6:	00b703a3          	sb	a1,7(a4)
     1ba:	00b70323          	sb	a1,6(a4)
     1be:	00b702a3          	sb	a1,5(a4)
     1c2:	00b70223          	sb	a1,4(a4)
     1c6:	00b701a3          	sb	a1,3(a4)
     1ca:	00b70123          	sb	a1,2(a4)
     1ce:	00b700a3          	sb	a1,1(a4)
     1d2:	00b70023          	sb	a1,0(a4)
     1d6:	8082                	ret
     1d8:	0ff5f593          	andi	a1,a1,255
     1dc:	00859693          	slli	a3,a1,0x8
     1e0:	8dd5                	or	a1,a1,a3
     1e2:	01059693          	slli	a3,a1,0x10
     1e6:	8dd5                	or	a1,a1,a3
     1e8:	b761                	j	170 <memset+0x10>
     1ea:	00279693          	slli	a3,a5,0x2
     1ee:	00000297          	auipc	t0,0x0
     1f2:	9696                	add	a3,a3,t0
     1f4:	8286                	mv	t0,ra
     1f6:	fa8680e7          	jalr	-88(a3)
     1fa:	8096                	mv	ra,t0
     1fc:	17c1                	addi	a5,a5,-16
     1fe:	8f1d                	sub	a4,a4,a5
     200:	963e                	add	a2,a2,a5
     202:	f8c374e3          	bgeu	t1,a2,18a <memset+0x2a>
     206:	b7a5                	j	16e <memset+0xe>

00000208 <NMI_Handler>:
     208:	a001                	j	208 <NMI_Handler>

0000020a <HardFault_Handler>:
     20a:	beef07b7          	lui	a5,0xbeef0
     20e:	e000e737          	lui	a4,0xe000e
     212:	08078793          	addi	a5,a5,128 # beef0080 <_eusrstack+0x9eeeb080>
     216:	c73c                	sw	a5,72(a4)
     218:	a001                	j	218 <HardFault_Handler+0xe>

0000021a <USARTx_CFG>:
     21a:	f17ff2ef          	jal	t0,130 <__riscv_save_0>
     21e:	84aa                	mv	s1,a0
     220:	6511                	lui	a0,0x4
     222:	7179                	addi	sp,sp,-48
     224:	4585                	li	a1,1
     226:	0531                	addi	a0,a0,12
     228:	ca02                	sw	zero,20(sp)
     22a:	cc02                	sw	zero,24(sp)
     22c:	ce02                	sw	zero,28(sp)
     22e:	d002                	sw	zero,32(sp)
     230:	d202                	sw	zero,36(sp)
     232:	d402                	sw	zero,40(sp)
     234:	d602                	sw	zero,44(sp)
     236:	c602                	sw	zero,12(sp)
     238:	c802                	sw	zero,16(sp)
     23a:	7e4000ef          	jal	ra,a1e <RCC_APB2PeriphClockCmd>
     23e:	20000793          	li	a5,512
     242:	82fc                	sh	a5,20(sp)
     244:	40011437          	lui	s0,0x40011
     248:	478d                	li	a5,3
     24a:	cc3e                	sw	a5,24(sp)
     24c:	084c                	addi	a1,sp,20
     24e:	47e1                	li	a5,24
     250:	80040513          	addi	a0,s0,-2048 # 40010800 <_eusrstack+0x2000b800>
     254:	ce3e                	sw	a5,28(sp)
     256:	2345                	jal	7f6 <GPIO_Init>
     258:	40000793          	li	a5,1024
     25c:	82fc                	sh	a5,20(sp)
     25e:	084c                	addi	a1,sp,20
     260:	4791                	li	a5,4
     262:	80040513          	addi	a0,s0,-2048
     266:	ce3e                	sw	a5,28(sp)
     268:	40014437          	lui	s0,0x40014
     26c:	2369                	jal	7f6 <GPIO_Init>
     26e:	000c07b7          	lui	a5,0xc0
     272:	100c                	addi	a1,sp,32
     274:	80040513          	addi	a0,s0,-2048 # 40013800 <_eusrstack+0x2000e800>
     278:	d43e                	sw	a5,40(sp)
     27a:	d026                	sw	s1,32(sp)
     27c:	d202                	sw	zero,36(sp)
     27e:	02011623          	sh	zero,44(sp)
     282:	7ba000ef          	jal	ra,a3c <USART_Init>
     286:	4605                	li	a2,1
     288:	42400593          	li	a1,1060
     28c:	80040513          	addi	a0,s0,-2048
     290:	051000ef          	jal	ra,ae0 <USART_ITConfig>
     294:	13500793          	li	a5,309
     298:	867c                	sh	a5,12(sp)
     29a:	4785                	li	a5,1
     29c:	875c                	sb	a5,14(sp)
     29e:	0068                	addi	a0,sp,12
     2a0:	4785                	li	a5,1
     2a2:	c83e                	sw	a5,16(sp)
     2a4:	25a9                	jal	8ee <NVIC_Init>
     2a6:	4585                	li	a1,1
     2a8:	80040513          	addi	a0,s0,-2048
     2ac:	01f000ef          	jal	ra,aca <USART_Cmd>
     2b0:	6145                	addi	sp,sp,48
     2b2:	b54d                	j	154 <__riscv_restore_0>

000002b4 <DMA_INIT>:
     2b4:	e7dff2ef          	jal	t0,130 <__riscv_save_0>
     2b8:	7139                	addi	sp,sp,-64
     2ba:	02c00613          	li	a2,44
     2be:	4581                	li	a1,0
     2c0:	0848                	addi	a0,sp,20
     2c2:	3d79                	jal	160 <memset>
     2c4:	4585                	li	a1,1
     2c6:	4505                	li	a0,1
     2c8:	40020437          	lui	s0,0x40020
     2cc:	c602                	sw	zero,12(sp)
     2ce:	c802                	sw	zero,16(sp)
     2d0:	730000ef          	jal	ra,a00 <RCC_AHBPeriphClockCmd>
     2d4:	05840513          	addi	a0,s0,88 # 40020058 <_eusrstack+0x2001b058>
     2d8:	2921                	jal	6f0 <DMA_DeInit>
     2da:	400144b7          	lui	s1,0x40014
     2de:	678d                	lui	a5,0x3
     2e0:	dc3e                	sw	a5,56(sp)
     2e2:	80448793          	addi	a5,s1,-2044 # 40013804 <_eusrstack+0x2000e804>
     2e6:	ca3e                	sw	a5,20(sp)
     2e8:	08000713          	li	a4,128
     2ec:	82d18793          	addi	a5,gp,-2003 # 2000009d <USART_DMA_CTRL+0x1>
     2f0:	084c                	addi	a1,sp,20
     2f2:	05840513          	addi	a0,s0,88
     2f6:	d43a                	sw	a4,40(sp)
     2f8:	d03a                	sw	a4,32(sp)
     2fa:	cc3e                	sw	a5,24(sp)
     2fc:	d202                	sw	zero,36(sp)
     2fe:	d602                	sw	zero,44(sp)
     300:	d802                	sw	zero,48(sp)
     302:	da02                	sw	zero,52(sp)
     304:	de02                	sw	zero,60(sp)
     306:	ce02                	sw	zero,28(sp)
     308:	2151                	jal	78c <DMA_Init>
     30a:	4605                	li	a2,1
     30c:	4589                	li	a1,2
     30e:	05840513          	addi	a0,s0,88
     312:	21d9                	jal	7d8 <DMA_ITConfig>
     314:	11f00793          	li	a5,287
     318:	867c                	sh	a5,12(sp)
     31a:	4785                	li	a5,1
     31c:	875c                	sb	a5,14(sp)
     31e:	0068                	addi	a0,sp,12
     320:	4785                	li	a5,1
     322:	c83e                	sw	a5,16(sp)
     324:	23e9                	jal	8ee <NVIC_Init>
     326:	05840513          	addi	a0,s0,88
     32a:	4585                	li	a1,1
     32c:	2961                	jal	7c4 <DMA_Cmd>
     32e:	4605                	li	a2,1
     330:	04000593          	li	a1,64
     334:	80048513          	addi	a0,s1,-2048
     338:	7de000ef          	jal	ra,b16 <USART_DMACmd>
     33c:	6121                	addi	sp,sp,64
     33e:	bd19                	j	154 <__riscv_restore_0>

00000340 <ring_buffer_push_huge>:
     340:	dd7ff2ef          	jal	t0,116 <__riscv_save_4>
     344:	93018793          	addi	a5,gp,-1744 # 200001a0 <ring_buffer>
     348:	4047d703          	lhu	a4,1028(a5) # 3404 <_data_lma+0x1380>
     34c:	40000793          	li	a5,1024
     350:	8aaa                	mv	s5,a0
     352:	8f99                	sub	a5,a5,a4
     354:	843e                	mv	s0,a5
     356:	07c2                	slli	a5,a5,0x10
     358:	83c1                	srli	a5,a5,0x10
     35a:	93018913          	addi	s2,gp,-1744 # 200001a0 <ring_buffer>
     35e:	00f5f363          	bgeu	a1,a5,364 <ring_buffer_push_huge+0x24>
     362:	842e                	mv	s0,a1
     364:	40095483          	lhu	s1,1024(s2)
     368:	40000993          	li	s3,1024
     36c:	0442                	slli	s0,s0,0x10
     36e:	04c2                	slli	s1,s1,0x10
     370:	80c1                	srli	s1,s1,0x10
     372:	409989b3          	sub	s3,s3,s1
     376:	09c2                	slli	s3,s3,0x10
     378:	8041                	srli	s0,s0,0x10
     37a:	0109d993          	srli	s3,s3,0x10
     37e:	0289e863          	bltu	s3,s0,3ae <ring_buffer_push_huge+0x6e>
     382:	40095503          	lhu	a0,1024(s2)
     386:	8622                	mv	a2,s0
     388:	85d6                	mv	a1,s5
     38a:	954a                	add	a0,a0,s2
     38c:	105000ef          	jal	ra,c90 <memcpy>
     390:	40095783          	lhu	a5,1024(s2)
     394:	97a2                	add	a5,a5,s0
     396:	07c2                	slli	a5,a5,0x10
     398:	83c1                	srli	a5,a5,0x10
     39a:	40f91023          	sh	a5,1024(s2)
     39e:	40495783          	lhu	a5,1028(s2)
     3a2:	943e                	add	s0,s0,a5
     3a4:	0442                	slli	s0,s0,0x10
     3a6:	8041                	srli	s0,s0,0x10
     3a8:	40891223          	sh	s0,1028(s2)
     3ac:	bb79                	j	14a <__riscv_restore_4>
     3ae:	40095503          	lhu	a0,1024(s2)
     3b2:	c0048493          	addi	s1,s1,-1024
     3b6:	94a2                	add	s1,s1,s0
     3b8:	864e                	mv	a2,s3
     3ba:	85d6                	mv	a1,s5
     3bc:	04c2                	slli	s1,s1,0x10
     3be:	954a                	add	a0,a0,s2
     3c0:	0d1000ef          	jal	ra,c90 <memcpy>
     3c4:	80c1                	srli	s1,s1,0x10
     3c6:	8626                	mv	a2,s1
     3c8:	013a85b3          	add	a1,s5,s3
     3cc:	93018513          	addi	a0,gp,-1744 # 200001a0 <ring_buffer>
     3d0:	0c1000ef          	jal	ra,c90 <memcpy>
     3d4:	40991023          	sh	s1,1024(s2)
     3d8:	b7d9                	j	39e <ring_buffer_push_huge+0x5e>

000003da <ring_buffer_pop>:
     3da:	93018713          	addi	a4,gp,-1744 # 200001a0 <ring_buffer>
     3de:	40275683          	lhu	a3,1026(a4) # e000e402 <_eusrstack+0xc0009402>
     3e2:	93018793          	addi	a5,gp,-1744 # 200001a0 <ring_buffer>
     3e6:	96ba                	add	a3,a3,a4
     3e8:	2288                	lbu	a0,0(a3)
     3ea:	40275683          	lhu	a3,1026(a4)
     3ee:	0685                	addi	a3,a3,1
     3f0:	06c2                	slli	a3,a3,0x10
     3f2:	82c1                	srli	a3,a3,0x10
     3f4:	40d71123          	sh	a3,1026(a4)
     3f8:	40275703          	lhu	a4,1026(a4)
     3fc:	3ff00693          	li	a3,1023
     400:	00e6f463          	bgeu	a3,a4,408 <ring_buffer_pop+0x2e>
     404:	40079123          	sh	zero,1026(a5)
     408:	4047d703          	lhu	a4,1028(a5)
     40c:	177d                	addi	a4,a4,-1
     40e:	0742                	slli	a4,a4,0x10
     410:	8341                	srli	a4,a4,0x10
     412:	40e79223          	sh	a4,1028(a5)
     416:	8082                	ret

00000418 <main>:
     418:	d19ff2ef          	jal	t0,130 <__riscv_save_0>
     41c:	4505                	li	a0,1
     41e:	21e9                	jal	8e8 <NVIC_PriorityGroupConfig>
     420:	6471                	lui	s0,0x1c
     422:	75c000ef          	jal	ra,b7e <Delay_Init>
     426:	20040513          	addi	a0,s0,512 # 1c200 <_data_lma+0x1a17c>
     42a:	7b4000ef          	jal	ra,bde <USART_Printf_Init>
     42e:	20040513          	addi	a0,s0,512
     432:	33e5                	jal	21a <USARTx_CFG>
     434:	3541                	jal	2b4 <DMA_INIT>
     436:	200007b7          	lui	a5,0x20000
     43a:	0707a583          	lw	a1,112(a5) # 20000070 <SystemCoreClock>
     43e:	00002537          	lui	a0,0x2
     442:	fac50513          	addi	a0,a0,-84 # 1fac <_read+0xe>
     446:	0fd000ef          	jal	ra,d42 <iprintf>
     44a:	00002537          	lui	a0,0x2
     44e:	fbc50513          	addi	a0,a0,-68 # 1fbc <_read+0x1e>
     452:	22f000ef          	jal	ra,e80 <puts>
     456:	93018413          	addi	s0,gp,-1744 # 200001a0 <ring_buffer>
     45a:	000024b7          	lui	s1,0x2
     45e:	00002937          	lui	s2,0x2
     462:	40445783          	lhu	a5,1028(s0)
     466:	07c2                	slli	a5,a5,0x10
     468:	83c1                	srli	a5,a5,0x10
     46a:	c385                	beqz	a5,48a <main+0x72>
     46c:	40445583          	lhu	a1,1028(s0)
     470:	fd048513          	addi	a0,s1,-48 # 1fd0 <_read+0x32>
     474:	0cf000ef          	jal	ra,d42 <iprintf>
     478:	40445783          	lhu	a5,1028(s0)
     47c:	07c2                	slli	a5,a5,0x10
     47e:	83c1                	srli	a5,a5,0x10
     480:	eb89                	bnez	a5,492 <main+0x7a>
     482:	fe090513          	addi	a0,s2,-32 # 1fe0 <_read+0x42>
     486:	1fb000ef          	jal	ra,e80 <puts>
     48a:	3e800513          	li	a0,1000
     48e:	2f29                	jal	ba8 <Delay_Ms>
     490:	bfc9                	j	462 <main+0x4a>
     492:	37a1                	jal	3da <ring_buffer_pop>
     494:	0ef000ef          	jal	ra,d82 <putchar>
     498:	b7c5                	j	478 <main+0x60>

0000049a <USART1_IRQHandler>:
     49a:	1101                	addi	sp,sp,-32
     49c:	c84e                	sw	s3,16(sp)
     49e:	400149b7          	lui	s3,0x40014
     4a2:	42400593          	li	a1,1060
     4a6:	80098513          	addi	a0,s3,-2048 # 40013800 <_eusrstack+0x2000e800>
     4aa:	ce22                	sw	s0,28(sp)
     4ac:	cc26                	sw	s1,24(sp)
     4ae:	ca4a                	sw	s2,20(sp)
     4b0:	c652                	sw	s4,12(sp)
     4b2:	2d41                	jal	b42 <USART_GetITStatus>
     4b4:	cd29                	beqz	a0,50e <USART1_IRQHandler+0x74>
     4b6:	82c18493          	addi	s1,gp,-2004 # 2000009c <USART_DMA_CTRL>
     4ba:	40020937          	lui	s2,0x40020
     4be:	05c92a03          	lw	s4,92(s2) # 4002005c <_eusrstack+0x2001b05c>
     4c2:	2080                	lbu	s0,0(s1)
     4c4:	05890913          	addi	s2,s2,88
     4c8:	4581                	li	a1,0
     4ca:	0ff47413          	andi	s0,s0,255
     4ce:	00143793          	seqz	a5,s0
     4d2:	854a                	mv	a0,s2
     4d4:	a09c                	sb	a5,0(s1)
     4d6:	24fd                	jal	7c4 <DMA_Cmd>
     4d8:	08000593          	li	a1,128
     4dc:	854a                	mv	a0,s2
     4de:	2631                	jal	7ea <DMA_SetCurrDataCounter>
     4e0:	209c                	lbu	a5,0(s1)
     4e2:	4585                	li	a1,1
     4e4:	854a                	mv	a0,s2
     4e6:	079e                	slli	a5,a5,0x7
     4e8:	0785                	addi	a5,a5,1
     4ea:	97a6                	add	a5,a5,s1
     4ec:	00f92623          	sw	a5,12(s2)
     4f0:	2cd1                	jal	7c4 <DMA_Cmd>
     4f2:	80098513          	addi	a0,s3,-2048
     4f6:	2d2d                	jal	b30 <USART_ReceiveData>
     4f8:	08000593          	li	a1,128
     4fc:	414585b3          	sub	a1,a1,s4
     500:	00741513          	slli	a0,s0,0x7
     504:	0505                	addi	a0,a0,1
     506:	05c2                	slli	a1,a1,0x10
     508:	81c1                	srli	a1,a1,0x10
     50a:	9526                	add	a0,a0,s1
     50c:	3d15                	jal	340 <ring_buffer_push_huge>
     50e:	4472                	lw	s0,28(sp)
     510:	44e2                	lw	s1,24(sp)
     512:	4952                	lw	s2,20(sp)
     514:	49c2                	lw	s3,16(sp)
     516:	4a32                	lw	s4,12(sp)
     518:	6105                	addi	sp,sp,32
     51a:	30200073          	mret

0000051e <DMA1_Channel5_IRQHandler>:
     51e:	1141                	addi	sp,sp,-16
     520:	c426                	sw	s1,8(sp)
     522:	82c18493          	addi	s1,gp,-2004 # 2000009c <USART_DMA_CTRL>
     526:	c622                	sw	s0,12(sp)
     528:	2080                	lbu	s0,0(s1)
     52a:	c24a                	sw	s2,4(sp)
     52c:	40020937          	lui	s2,0x40020
     530:	0ff47413          	andi	s0,s0,255
     534:	00143793          	seqz	a5,s0
     538:	05890513          	addi	a0,s2,88 # 40020058 <_eusrstack+0x2001b058>
     53c:	4581                	li	a1,0
     53e:	a09c                	sb	a5,0(s1)
     540:	2451                	jal	7c4 <DMA_Cmd>
     542:	05890513          	addi	a0,s2,88
     546:	08000593          	li	a1,128
     54a:	2445                	jal	7ea <DMA_SetCurrDataCounter>
     54c:	209c                	lbu	a5,0(s1)
     54e:	05890513          	addi	a0,s2,88
     552:	4585                	li	a1,1
     554:	079e                	slli	a5,a5,0x7
     556:	0785                	addi	a5,a5,1
     558:	97a6                	add	a5,a5,s1
     55a:	c55c                	sw	a5,12(a0)
     55c:	24a5                	jal	7c4 <DMA_Cmd>
     55e:	00741513          	slli	a0,s0,0x7
     562:	0505                	addi	a0,a0,1
     564:	9526                	add	a0,a0,s1
     566:	08000593          	li	a1,128
     56a:	3bd9                	jal	340 <ring_buffer_push_huge>
     56c:	00020537          	lui	a0,0x20
     570:	2cbd                	jal	7ee <DMA_ClearITPendingBit>
     572:	4432                	lw	s0,12(sp)
     574:	44a2                	lw	s1,8(sp)
     576:	4912                	lw	s2,4(sp)
     578:	0141                	addi	sp,sp,16
     57a:	30200073          	mret

0000057e <SystemInit>:
     57e:	400217b7          	lui	a5,0x40021
     582:	4398                	lw	a4,0(a5)
     584:	f0ff06b7          	lui	a3,0xf0ff0
     588:	1141                	addi	sp,sp,-16
     58a:	00176713          	ori	a4,a4,1
     58e:	c398                	sw	a4,0(a5)
     590:	43d8                	lw	a4,4(a5)
     592:	00020637          	lui	a2,0x20
     596:	8f75                	and	a4,a4,a3
     598:	c3d8                	sw	a4,4(a5)
     59a:	4398                	lw	a4,0(a5)
     59c:	fef706b7          	lui	a3,0xfef70
     5a0:	16fd                	addi	a3,a3,-1
     5a2:	8f75                	and	a4,a4,a3
     5a4:	c398                	sw	a4,0(a5)
     5a6:	4398                	lw	a4,0(a5)
     5a8:	fffc06b7          	lui	a3,0xfffc0
     5ac:	16fd                	addi	a3,a3,-1
     5ae:	8f75                	and	a4,a4,a3
     5b0:	c398                	sw	a4,0(a5)
     5b2:	43d8                	lw	a4,4(a5)
     5b4:	ff0106b7          	lui	a3,0xff010
     5b8:	16fd                	addi	a3,a3,-1
     5ba:	8f75                	and	a4,a4,a3
     5bc:	c3d8                	sw	a4,4(a5)
     5be:	009f0737          	lui	a4,0x9f0
     5c2:	c798                	sw	a4,8(a5)
     5c4:	c402                	sw	zero,8(sp)
     5c6:	c602                	sw	zero,12(sp)
     5c8:	4398                	lw	a4,0(a5)
     5ca:	66c1                	lui	a3,0x10
     5cc:	8f55                	or	a4,a4,a3
     5ce:	c398                	sw	a4,0(a5)
     5d0:	400216b7          	lui	a3,0x40021
     5d4:	6705                	lui	a4,0x1
     5d6:	429c                	lw	a5,0(a3)
     5d8:	8ff1                	and	a5,a5,a2
     5da:	c63e                	sw	a5,12(sp)
     5dc:	47a2                	lw	a5,8(sp)
     5de:	0785                	addi	a5,a5,1
     5e0:	c43e                	sw	a5,8(sp)
     5e2:	47b2                	lw	a5,12(sp)
     5e4:	e781                	bnez	a5,5ec <SystemInit+0x6e>
     5e6:	47a2                	lw	a5,8(sp)
     5e8:	fee797e3          	bne	a5,a4,5d6 <SystemInit+0x58>
     5ec:	400217b7          	lui	a5,0x40021
     5f0:	439c                	lw	a5,0(a5)
     5f2:	00e79713          	slli	a4,a5,0xe
     5f6:	06075763          	bgez	a4,664 <SystemInit+0xe6>
     5fa:	4785                	li	a5,1
     5fc:	c63e                	sw	a5,12(sp)
     5fe:	4732                	lw	a4,12(sp)
     600:	4785                	li	a5,1
     602:	04f71f63          	bne	a4,a5,660 <SystemInit+0xe2>
     606:	400217b7          	lui	a5,0x40021
     60a:	43d8                	lw	a4,4(a5)
     60c:	ffc106b7          	lui	a3,0xffc10
     610:	16fd                	addi	a3,a3,-1
     612:	c3d8                	sw	a4,4(a5)
     614:	43d8                	lw	a4,4(a5)
     616:	c3d8                	sw	a4,4(a5)
     618:	43d8                	lw	a4,4(a5)
     61a:	40076713          	ori	a4,a4,1024
     61e:	c3d8                	sw	a4,4(a5)
     620:	43d8                	lw	a4,4(a5)
     622:	8f75                	and	a4,a4,a3
     624:	c3d8                	sw	a4,4(a5)
     626:	43d8                	lw	a4,4(a5)
     628:	002906b7          	lui	a3,0x290
     62c:	8f55                	or	a4,a4,a3
     62e:	c3d8                	sw	a4,4(a5)
     630:	4398                	lw	a4,0(a5)
     632:	010006b7          	lui	a3,0x1000
     636:	8f55                	or	a4,a4,a3
     638:	c398                	sw	a4,0(a5)
     63a:	4398                	lw	a4,0(a5)
     63c:	00671693          	slli	a3,a4,0x6
     640:	fe06dde3          	bgez	a3,63a <SystemInit+0xbc>
     644:	43d8                	lw	a4,4(a5)
     646:	400216b7          	lui	a3,0x40021
     64a:	9b71                	andi	a4,a4,-4
     64c:	c3d8                	sw	a4,4(a5)
     64e:	43d8                	lw	a4,4(a5)
     650:	00276713          	ori	a4,a4,2
     654:	c3d8                	sw	a4,4(a5)
     656:	4721                	li	a4,8
     658:	42dc                	lw	a5,4(a3)
     65a:	8bb1                	andi	a5,a5,12
     65c:	fee79ee3          	bne	a5,a4,658 <SystemInit+0xda>
     660:	0141                	addi	sp,sp,16
     662:	8082                	ret
     664:	c602                	sw	zero,12(sp)
     666:	bf61                	j	5fe <SystemInit+0x80>

00000668 <ADC1_2_IRQHandler>:
     668:	a001                	j	668 <ADC1_2_IRQHandler>

0000066a <handle_reset>:
     66a:	20000197          	auipc	gp,0x20000
     66e:	20618193          	addi	gp,gp,518 # 20000870 <__global_pointer$>
     672:	20005117          	auipc	sp,0x20005
     676:	98e10113          	addi	sp,sp,-1650 # 20005000 <_eusrstack>
     67a:	00002517          	auipc	a0,0x2
     67e:	a0a50513          	addi	a0,a0,-1526 # 2084 <_data_lma>
     682:	20000597          	auipc	a1,0x20000
     686:	97e58593          	addi	a1,a1,-1666 # 20000000 <_data_vma>
     68a:	81818613          	addi	a2,gp,-2024 # 20000088 <_edata>
     68e:	00c5fa63          	bgeu	a1,a2,6a2 <handle_reset+0x38>
     692:	00052283          	lw	t0,0(a0)
     696:	0055a023          	sw	t0,0(a1)
     69a:	0511                	addi	a0,a0,4
     69c:	0591                	addi	a1,a1,4
     69e:	fec5eae3          	bltu	a1,a2,692 <handle_reset+0x28>
     6a2:	81818513          	addi	a0,gp,-2024 # 20000088 <_edata>
     6a6:	d3c18593          	addi	a1,gp,-708 # 200005ac <_ebss>
     6aa:	00b57763          	bgeu	a0,a1,6b8 <handle_reset+0x4e>
     6ae:	00052023          	sw	zero,0(a0)
     6b2:	0511                	addi	a0,a0,4
     6b4:	feb56de3          	bltu	a0,a1,6ae <handle_reset+0x44>
     6b8:	42fd                	li	t0,31
     6ba:	bc029073          	csrw	0xbc0,t0
     6be:	428d                	li	t0,3
     6c0:	80429073          	csrw	0x804,t0
     6c4:	08800293          	li	t0,136
     6c8:	30029073          	csrw	mstatus,t0
     6cc:	00000297          	auipc	t0,0x0
     6d0:	93828293          	addi	t0,t0,-1736 # 4 <_einit>
     6d4:	0032e293          	ori	t0,t0,3
     6d8:	30529073          	csrw	mtvec,t0
     6dc:	ea3ff0ef          	jal	ra,57e <SystemInit>
     6e0:	00000297          	auipc	t0,0x0
     6e4:	d3828293          	addi	t0,t0,-712 # 418 <main>
     6e8:	34129073          	csrw	mepc,t0
     6ec:	30200073          	mret

000006f0 <DMA_DeInit>:
     6f0:	411c                	lw	a5,0(a0)
     6f2:	6741                	lui	a4,0x10
     6f4:	1779                	addi	a4,a4,-2
     6f6:	8ff9                	and	a5,a5,a4
     6f8:	c11c                	sw	a5,0(a0)
     6fa:	00052023          	sw	zero,0(a0)
     6fe:	00052223          	sw	zero,4(a0)
     702:	00052423          	sw	zero,8(a0)
     706:	400207b7          	lui	a5,0x40020
     70a:	00052623          	sw	zero,12(a0)
     70e:	00878713          	addi	a4,a5,8 # 40020008 <_eusrstack+0x2001b008>
     712:	00e51663          	bne	a0,a4,71e <DMA_DeInit+0x2e>
     716:	43d8                	lw	a4,4(a5)
     718:	00f76713          	ori	a4,a4,15
     71c:	a801                	j	72c <DMA_DeInit+0x3c>
     71e:	01c78713          	addi	a4,a5,28
     722:	00e51763          	bne	a0,a4,730 <DMA_DeInit+0x40>
     726:	43d8                	lw	a4,4(a5)
     728:	0f076713          	ori	a4,a4,240
     72c:	c3d8                	sw	a4,4(a5)
     72e:	a8b1                	j	78a <DMA_DeInit+0x9a>
     730:	03078713          	addi	a4,a5,48
     734:	00e51863          	bne	a0,a4,744 <DMA_DeInit+0x54>
     738:	43d8                	lw	a4,4(a5)
     73a:	6685                	lui	a3,0x1
     73c:	f0068693          	addi	a3,a3,-256 # f00 <__swbuf_r+0x76>
     740:	8f55                	or	a4,a4,a3
     742:	b7ed                	j	72c <DMA_DeInit+0x3c>
     744:	04478713          	addi	a4,a5,68
     748:	00e51563          	bne	a0,a4,752 <DMA_DeInit+0x62>
     74c:	43d8                	lw	a4,4(a5)
     74e:	66bd                	lui	a3,0xf
     750:	bfc5                	j	740 <DMA_DeInit+0x50>
     752:	05878713          	addi	a4,a5,88
     756:	00e51663          	bne	a0,a4,762 <DMA_DeInit+0x72>
     75a:	43d8                	lw	a4,4(a5)
     75c:	000f06b7          	lui	a3,0xf0
     760:	b7c5                	j	740 <DMA_DeInit+0x50>
     762:	06c78713          	addi	a4,a5,108
     766:	00e51663          	bne	a0,a4,772 <DMA_DeInit+0x82>
     76a:	43d8                	lw	a4,4(a5)
     76c:	00f006b7          	lui	a3,0xf00
     770:	bfc1                	j	740 <DMA_DeInit+0x50>
     772:	08078713          	addi	a4,a5,128
     776:	00e51663          	bne	a0,a4,782 <DMA_DeInit+0x92>
     77a:	43d8                	lw	a4,4(a5)
     77c:	0f0006b7          	lui	a3,0xf000
     780:	b7c1                	j	740 <DMA_DeInit+0x50>
     782:	09478713          	addi	a4,a5,148
     786:	f8e508e3          	beq	a0,a4,716 <DMA_DeInit+0x26>
     78a:	8082                	ret

0000078c <DMA_Init>:
     78c:	411c                	lw	a5,0(a0)
     78e:	7761                	lui	a4,0xffff8
     790:	073d                	addi	a4,a4,15
     792:	5194                	lw	a3,32(a1)
     794:	8f7d                	and	a4,a4,a5
     796:	459c                	lw	a5,8(a1)
     798:	8fd5                	or	a5,a5,a3
     79a:	4994                	lw	a3,16(a1)
     79c:	8fd5                	or	a5,a5,a3
     79e:	49d4                	lw	a3,20(a1)
     7a0:	8fd5                	or	a5,a5,a3
     7a2:	4d94                	lw	a3,24(a1)
     7a4:	8fd5                	or	a5,a5,a3
     7a6:	4dd4                	lw	a3,28(a1)
     7a8:	8fd5                	or	a5,a5,a3
     7aa:	51d4                	lw	a3,36(a1)
     7ac:	8fd5                	or	a5,a5,a3
     7ae:	5594                	lw	a3,40(a1)
     7b0:	8fd5                	or	a5,a5,a3
     7b2:	8fd9                	or	a5,a5,a4
     7b4:	c11c                	sw	a5,0(a0)
     7b6:	45dc                	lw	a5,12(a1)
     7b8:	c15c                	sw	a5,4(a0)
     7ba:	419c                	lw	a5,0(a1)
     7bc:	c51c                	sw	a5,8(a0)
     7be:	41dc                	lw	a5,4(a1)
     7c0:	c55c                	sw	a5,12(a0)
     7c2:	8082                	ret

000007c4 <DMA_Cmd>:
     7c4:	411c                	lw	a5,0(a0)
     7c6:	c589                	beqz	a1,7d0 <DMA_Cmd+0xc>
     7c8:	0017e793          	ori	a5,a5,1
     7cc:	c11c                	sw	a5,0(a0)
     7ce:	8082                	ret
     7d0:	6741                	lui	a4,0x10
     7d2:	1779                	addi	a4,a4,-2
     7d4:	8ff9                	and	a5,a5,a4
     7d6:	bfdd                	j	7cc <DMA_Cmd+0x8>

000007d8 <DMA_ITConfig>:
     7d8:	411c                	lw	a5,0(a0)
     7da:	c601                	beqz	a2,7e2 <DMA_ITConfig+0xa>
     7dc:	8ddd                	or	a1,a1,a5
     7de:	c10c                	sw	a1,0(a0)
     7e0:	8082                	ret
     7e2:	fff5c593          	not	a1,a1
     7e6:	8dfd                	and	a1,a1,a5
     7e8:	bfdd                	j	7de <DMA_ITConfig+0x6>

000007ea <DMA_SetCurrDataCounter>:
     7ea:	c14c                	sw	a1,4(a0)
     7ec:	8082                	ret

000007ee <DMA_ClearITPendingBit>:
     7ee:	400207b7          	lui	a5,0x40020
     7f2:	c3c8                	sw	a0,4(a5)
     7f4:	8082                	ret

000007f6 <GPIO_Init>:
     7f6:	459c                	lw	a5,8(a1)
     7f8:	0107f713          	andi	a4,a5,16
     7fc:	00f7f813          	andi	a6,a5,15
     800:	c701                	beqz	a4,808 <__stack_size+0x8>
     802:	41d8                	lw	a4,4(a1)
     804:	00e86833          	or	a6,a6,a4
     808:	40022737          	lui	a4,0x40022
     80c:	5b14                	lw	a3,48(a4)
     80e:	0f000737          	lui	a4,0xf000
     812:	8f75                	and	a4,a4,a3
     814:	eb4d                	bnez	a4,8c6 <__stack_size+0xc6>
     816:	4685                	li	a3,1
     818:	80d18c23          	sb	a3,-2024(gp) # 20000088 <_edata>
     81c:	40011737          	lui	a4,0x40011
     820:	00e51563          	bne	a0,a4,82a <__stack_size+0x2a>
     824:	219a                	lhu	a4,0(a1)
     826:	8335                	srli	a4,a4,0xd
     828:	a19a                	sh	a4,0(a1)
     82a:	218e                	lhu	a1,0(a1)
     82c:	0ff5f713          	andi	a4,a1,255
     830:	c339                	beqz	a4,876 <__stack_size+0x76>
     832:	4118                	lw	a4,0(a0)
     834:	4681                	li	a3,0
     836:	4e85                	li	t4,1
     838:	4f3d                	li	t5,15
     83a:	02800f93          	li	t6,40
     83e:	04800293          	li	t0,72
     842:	4e21                	li	t3,8
     844:	00de9633          	sll	a2,t4,a3
     848:	00c5f8b3          	and	a7,a1,a2
     84c:	03161163          	bne	a2,a7,86e <__stack_size+0x6e>
     850:	00269893          	slli	a7,a3,0x2
     854:	011f1333          	sll	t1,t5,a7
     858:	fff34313          	not	t1,t1
     85c:	00e37733          	and	a4,t1,a4
     860:	011818b3          	sll	a7,a6,a7
     864:	00e8e733          	or	a4,a7,a4
     868:	07f79763          	bne	a5,t6,8d6 <__stack_size+0xd6>
     86c:	c950                	sw	a2,20(a0)
     86e:	0685                	addi	a3,a3,1
     870:	fdc69ae3          	bne	a3,t3,844 <__stack_size+0x44>
     874:	c118                	sw	a4,0(a0)
     876:	0ff00713          	li	a4,255
     87a:	04b77563          	bgeu	a4,a1,8c4 <__stack_size+0xc4>
     87e:	4154                	lw	a3,4(a0)
     880:	4621                	li	a2,8
     882:	4e85                	li	t4,1
     884:	4f3d                	li	t5,15
     886:	02800f93          	li	t6,40
     88a:	04800293          	li	t0,72
     88e:	4e41                	li	t3,16
     890:	00ce98b3          	sll	a7,t4,a2
     894:	0115f733          	and	a4,a1,a7
     898:	02e89263          	bne	a7,a4,8bc <__stack_size+0xbc>
     89c:	00261713          	slli	a4,a2,0x2
     8a0:	1701                	addi	a4,a4,-32
     8a2:	00ef1333          	sll	t1,t5,a4
     8a6:	fff34313          	not	t1,t1
     8aa:	00d376b3          	and	a3,t1,a3
     8ae:	00e81733          	sll	a4,a6,a4
     8b2:	8ed9                	or	a3,a3,a4
     8b4:	03f79563          	bne	a5,t6,8de <__stack_size+0xde>
     8b8:	01152a23          	sw	a7,20(a0)
     8bc:	0605                	addi	a2,a2,1
     8be:	fdc619e3          	bne	a2,t3,890 <__stack_size+0x90>
     8c2:	c154                	sw	a3,4(a0)
     8c4:	8082                	ret
     8c6:	40011737          	lui	a4,0x40011
     8ca:	f6e510e3          	bne	a0,a4,82a <__stack_size+0x2a>
     8ce:	8181c703          	lbu	a4,-2024(gp) # 20000088 <_edata>
     8d2:	df21                	beqz	a4,82a <__stack_size+0x2a>
     8d4:	bf81                	j	824 <__stack_size+0x24>
     8d6:	f8579ce3          	bne	a5,t0,86e <__stack_size+0x6e>
     8da:	c910                	sw	a2,16(a0)
     8dc:	bf49                	j	86e <__stack_size+0x6e>
     8de:	fc579fe3          	bne	a5,t0,8bc <__stack_size+0xbc>
     8e2:	01152823          	sw	a7,16(a0)
     8e6:	bfd9                	j	8bc <__stack_size+0xbc>

000008e8 <NVIC_PriorityGroupConfig>:
     8e8:	80a1ae23          	sw	a0,-2020(gp) # 2000008c <NVIC_Priority_Group>
     8ec:	8082                	ret

000008ee <NVIC_Init>:
     8ee:	81c1a703          	lw	a4,-2020(gp) # 2000008c <NVIC_Priority_Group>
     8f2:	4785                	li	a5,1
     8f4:	2114                	lbu	a3,0(a0)
     8f6:	02f71063          	bne	a4,a5,916 <NVIC_Init+0x28>
     8fa:	311c                	lbu	a5,1(a0)
     8fc:	02e79c63          	bne	a5,a4,934 <NVIC_Init+0x46>
     900:	213c                	lbu	a5,2(a0)
     902:	0796                	slli	a5,a5,0x5
     904:	f807e793          	ori	a5,a5,-128
     908:	e000e737          	lui	a4,0xe000e
     90c:	0ff7f793          	andi	a5,a5,255
     910:	9736                	add	a4,a4,a3
     912:	40f70023          	sb	a5,1024(a4) # e000e400 <_eusrstack+0xc0009400>
     916:	4705                	li	a4,1
     918:	0056d793          	srli	a5,a3,0x5
     91c:	00d71733          	sll	a4,a4,a3
     920:	4154                	lw	a3,4(a0)
     922:	ce89                	beqz	a3,93c <NVIC_Init+0x4e>
     924:	04078793          	addi	a5,a5,64 # 40020040 <_eusrstack+0x2001b040>
     928:	078a                	slli	a5,a5,0x2
     92a:	e000e6b7          	lui	a3,0xe000e
     92e:	97b6                	add	a5,a5,a3
     930:	c398                	sw	a4,0(a5)
     932:	8082                	ret
     934:	f3ed                	bnez	a5,916 <NVIC_Init+0x28>
     936:	213c                	lbu	a5,2(a0)
     938:	0796                	slli	a5,a5,0x5
     93a:	b7f9                	j	908 <NVIC_Init+0x1a>
     93c:	06078793          	addi	a5,a5,96
     940:	b7e5                	j	928 <NVIC_Init+0x3a>

00000942 <RCC_GetClocksFreq>:
     942:	40021737          	lui	a4,0x40021
     946:	435c                	lw	a5,4(a4)
     948:	4691                	li	a3,4
     94a:	8bb1                	andi	a5,a5,12
     94c:	00d78563          	beq	a5,a3,956 <RCC_GetClocksFreq+0x14>
     950:	46a1                	li	a3,8
     952:	06d78263          	beq	a5,a3,9b6 <RCC_GetClocksFreq+0x74>
     956:	007a17b7          	lui	a5,0x7a1
     95a:	20078793          	addi	a5,a5,512 # 7a1200 <_data_lma+0x79f17c>
     95e:	c11c                	sw	a5,0(a0)
     960:	40021637          	lui	a2,0x40021
     964:	425c                	lw	a5,4(a2)
     966:	20000737          	lui	a4,0x20000
     96a:	00070713          	mv	a4,a4
     96e:	8391                	srli	a5,a5,0x4
     970:	8bbd                	andi	a5,a5,15
     972:	97ba                	add	a5,a5,a4
     974:	2394                	lbu	a3,0(a5)
     976:	411c                	lw	a5,0(a0)
     978:	00d7d7b3          	srl	a5,a5,a3
     97c:	c15c                	sw	a5,4(a0)
     97e:	4254                	lw	a3,4(a2)
     980:	82a1                	srli	a3,a3,0x8
     982:	8a9d                	andi	a3,a3,7
     984:	96ba                	add	a3,a3,a4
     986:	2294                	lbu	a3,0(a3)
     988:	00d7d6b3          	srl	a3,a5,a3
     98c:	c514                	sw	a3,8(a0)
     98e:	4254                	lw	a3,4(a2)
     990:	82ad                	srli	a3,a3,0xb
     992:	8a9d                	andi	a3,a3,7
     994:	9736                	add	a4,a4,a3
     996:	2318                	lbu	a4,0(a4)
     998:	00e7d7b3          	srl	a5,a5,a4
     99c:	c55c                	sw	a5,12(a0)
     99e:	4258                	lw	a4,4(a2)
     9a0:	8339                	srli	a4,a4,0xe
     9a2:	00377693          	andi	a3,a4,3
     9a6:	80418713          	addi	a4,gp,-2044 # 20000074 <ADCPrescTable>
     9aa:	9736                	add	a4,a4,a3
     9ac:	2318                	lbu	a4,0(a4)
     9ae:	02e7d7b3          	divu	a5,a5,a4
     9b2:	c91c                	sw	a5,16(a0)
     9b4:	8082                	ret
     9b6:	435c                	lw	a5,4(a4)
     9b8:	4358                	lw	a4,4(a4)
     9ba:	66c1                	lui	a3,0x10
     9bc:	83c9                	srli	a5,a5,0x12
     9be:	8bbd                	andi	a5,a5,15
     9c0:	8f75                	and	a4,a4,a3
     9c2:	0789                	addi	a5,a5,2
     9c4:	46c5                	li	a3,17
     9c6:	00d79363          	bne	a5,a3,9cc <RCC_GetClocksFreq+0x8a>
     9ca:	47c9                	li	a5,18
     9cc:	ef01                	bnez	a4,9e4 <RCC_GetClocksFreq+0xa2>
     9ce:	40024737          	lui	a4,0x40024
     9d2:	80072703          	lw	a4,-2048(a4) # 40023800 <_eusrstack+0x2001e800>
     9d6:	8b41                	andi	a4,a4,16
     9d8:	cf09                	beqz	a4,9f2 <RCC_GetClocksFreq+0xb0>
     9da:	007a1737          	lui	a4,0x7a1
     9de:	20070713          	addi	a4,a4,512 # 7a1200 <_data_lma+0x79f17c>
     9e2:	a821                	j	9fa <RCC_GetClocksFreq+0xb8>
     9e4:	40021737          	lui	a4,0x40021
     9e8:	4358                	lw	a4,4(a4)
     9ea:	00e71693          	slli	a3,a4,0xe
     9ee:	fe06d6e3          	bgez	a3,9da <RCC_GetClocksFreq+0x98>
     9f2:	003d1737          	lui	a4,0x3d1
     9f6:	90070713          	addi	a4,a4,-1792 # 3d0900 <_data_lma+0x3ce87c>
     9fa:	02e787b3          	mul	a5,a5,a4
     9fe:	b785                	j	95e <RCC_GetClocksFreq+0x1c>

00000a00 <RCC_AHBPeriphClockCmd>:
     a00:	c599                	beqz	a1,a0e <RCC_AHBPeriphClockCmd+0xe>
     a02:	40021737          	lui	a4,0x40021
     a06:	4b5c                	lw	a5,20(a4)
     a08:	8d5d                	or	a0,a0,a5
     a0a:	cb48                	sw	a0,20(a4)
     a0c:	8082                	ret
     a0e:	400217b7          	lui	a5,0x40021
     a12:	4bd8                	lw	a4,20(a5)
     a14:	fff54513          	not	a0,a0
     a18:	8d79                	and	a0,a0,a4
     a1a:	cbc8                	sw	a0,20(a5)
     a1c:	8082                	ret

00000a1e <RCC_APB2PeriphClockCmd>:
     a1e:	c599                	beqz	a1,a2c <RCC_APB2PeriphClockCmd+0xe>
     a20:	40021737          	lui	a4,0x40021
     a24:	4f1c                	lw	a5,24(a4)
     a26:	8d5d                	or	a0,a0,a5
     a28:	cf08                	sw	a0,24(a4)
     a2a:	8082                	ret
     a2c:	400217b7          	lui	a5,0x40021
     a30:	4f98                	lw	a4,24(a5)
     a32:	fff54513          	not	a0,a0
     a36:	8d79                	and	a0,a0,a4
     a38:	cf88                	sw	a0,24(a5)
     a3a:	8082                	ret

00000a3c <USART_Init>:
     a3c:	ef4ff2ef          	jal	t0,130 <__riscv_save_0>
     a40:	2916                	lhu	a3,16(a0)
     a42:	77f5                	lui	a5,0xffffd
     a44:	17fd                	addi	a5,a5,-1
     a46:	8ff5                	and	a5,a5,a3
     a48:	21f6                	lhu	a3,6(a1)
     a4a:	25da                	lhu	a4,12(a1)
     a4c:	7179                	addi	sp,sp,-48
     a4e:	8fd5                	or	a5,a5,a3
     a50:	a91e                	sh	a5,16(a0)
     a52:	2556                	lhu	a3,12(a0)
     a54:	77fd                	lui	a5,0xfffff
     a56:	9f378793          	addi	a5,a5,-1549 # ffffe9f3 <_eusrstack+0xdfff99f3>
     a5a:	8ff5                	and	a5,a5,a3
     a5c:	21d6                	lhu	a3,4(a1)
     a5e:	842a                	mv	s0,a0
     a60:	c62e                	sw	a1,12(sp)
     a62:	8fd5                	or	a5,a5,a3
     a64:	2596                	lhu	a3,8(a1)
     a66:	8fd5                	or	a5,a5,a3
     a68:	25b6                	lhu	a3,10(a1)
     a6a:	8fd5                	or	a5,a5,a3
     a6c:	a55e                	sh	a5,12(a0)
     a6e:	295e                	lhu	a5,20(a0)
     a70:	07c2                	slli	a5,a5,0x10
     a72:	83c1                	srli	a5,a5,0x10
     a74:	cff7f793          	andi	a5,a5,-769
     a78:	8fd9                	or	a5,a5,a4
     a7a:	a95e                	sh	a5,20(a0)
     a7c:	0868                	addi	a0,sp,28
     a7e:	35d1                	jal	942 <RCC_GetClocksFreq>
     a80:	400147b7          	lui	a5,0x40014
     a84:	80078793          	addi	a5,a5,-2048 # 40013800 <_eusrstack+0x2000e800>
     a88:	45b2                	lw	a1,12(sp)
     a8a:	02f41e63          	bne	s0,a5,ac6 <USART_Init+0x8a>
     a8e:	57a2                	lw	a5,40(sp)
     a90:	4765                	li	a4,25
     a92:	02e787b3          	mul	a5,a5,a4
     a96:	4198                	lw	a4,0(a1)
     a98:	06400693          	li	a3,100
     a9c:	070a                	slli	a4,a4,0x2
     a9e:	02e7d7b3          	divu	a5,a5,a4
     aa2:	02d7d733          	divu	a4,a5,a3
     aa6:	02d7f7b3          	remu	a5,a5,a3
     aaa:	0712                	slli	a4,a4,0x4
     aac:	0792                	slli	a5,a5,0x4
     aae:	03278793          	addi	a5,a5,50
     ab2:	02d7d7b3          	divu	a5,a5,a3
     ab6:	8bbd                	andi	a5,a5,15
     ab8:	8fd9                	or	a5,a5,a4
     aba:	07c2                	slli	a5,a5,0x10
     abc:	83c1                	srli	a5,a5,0x10
     abe:	a41e                	sh	a5,8(s0)
     ac0:	6145                	addi	sp,sp,48
     ac2:	e92ff06f          	j	154 <__riscv_restore_0>
     ac6:	5792                	lw	a5,36(sp)
     ac8:	b7e1                	j	a90 <USART_Init+0x54>

00000aca <USART_Cmd>:
     aca:	c591                	beqz	a1,ad6 <USART_Cmd+0xc>
     acc:	255e                	lhu	a5,12(a0)
     ace:	6709                	lui	a4,0x2
     ad0:	8fd9                	or	a5,a5,a4
     ad2:	a55e                	sh	a5,12(a0)
     ad4:	8082                	ret
     ad6:	255a                	lhu	a4,12(a0)
     ad8:	77f9                	lui	a5,0xffffe
     ada:	17fd                	addi	a5,a5,-1
     adc:	8ff9                	and	a5,a5,a4
     ade:	bfd5                	j	ad2 <USART_Cmd+0x8>

00000ae0 <USART_ITConfig>:
     ae0:	0ff5f713          	andi	a4,a1,255
     ae4:	4785                	li	a5,1
     ae6:	8315                	srli	a4,a4,0x5
     ae8:	00b795b3          	sll	a1,a5,a1
     aec:	00f71963          	bne	a4,a5,afe <USART_ITConfig+0x1e>
     af0:	00c50793          	addi	a5,a0,12
     af4:	4398                	lw	a4,0(a5)
     af6:	ce01                	beqz	a2,b0e <USART_ITConfig+0x2e>
     af8:	8dd9                	or	a1,a1,a4
     afa:	c38c                	sw	a1,0(a5)
     afc:	8082                	ret
     afe:	4689                	li	a3,2
     b00:	01450793          	addi	a5,a0,20
     b04:	fed718e3          	bne	a4,a3,af4 <USART_ITConfig+0x14>
     b08:	01050793          	addi	a5,a0,16
     b0c:	b7e5                	j	af4 <USART_ITConfig+0x14>
     b0e:	fff5c593          	not	a1,a1
     b12:	8df9                	and	a1,a1,a4
     b14:	b7dd                	j	afa <USART_ITConfig+0x1a>

00000b16 <USART_DMACmd>:
     b16:	295e                	lhu	a5,20(a0)
     b18:	c601                	beqz	a2,b20 <USART_DMACmd+0xa>
     b1a:	8ddd                	or	a1,a1,a5
     b1c:	a94e                	sh	a1,20(a0)
     b1e:	8082                	ret
     b20:	fff5c593          	not	a1,a1
     b24:	8dfd                	and	a1,a1,a5
     b26:	bfdd                	j	b1c <USART_DMACmd+0x6>

00000b28 <USART_SendData>:
     b28:	1ff5f593          	andi	a1,a1,511
     b2c:	a14e                	sh	a1,4(a0)
     b2e:	8082                	ret

00000b30 <USART_ReceiveData>:
     b30:	214a                	lhu	a0,4(a0)
     b32:	1ff57513          	andi	a0,a0,511
     b36:	8082                	ret

00000b38 <USART_GetFlagStatus>:
     b38:	210a                	lhu	a0,0(a0)
     b3a:	8d6d                	and	a0,a0,a1
     b3c:	00a03533          	snez	a0,a0
     b40:	8082                	ret

00000b42 <USART_GetITStatus>:
     b42:	0ff5f713          	andi	a4,a1,255
     b46:	4685                	li	a3,1
     b48:	8315                	srli	a4,a4,0x5
     b4a:	00b697b3          	sll	a5,a3,a1
     b4e:	02d71163          	bne	a4,a3,b70 <USART_GetITStatus+0x2e>
     b52:	255a                	lhu	a4,12(a0)
     b54:	8ff9                	and	a5,a5,a4
     b56:	211a                	lhu	a4,0(a0)
     b58:	4501                	li	a0,0
     b5a:	0742                	slli	a4,a4,0x10
     b5c:	8341                	srli	a4,a4,0x10
     b5e:	cb81                	beqz	a5,b6e <USART_GetITStatus+0x2c>
     b60:	4505                	li	a0,1
     b62:	81a1                	srli	a1,a1,0x8
     b64:	00b515b3          	sll	a1,a0,a1
     b68:	8f6d                	and	a4,a4,a1
     b6a:	00e03533          	snez	a0,a4
     b6e:	8082                	ret
     b70:	4689                	li	a3,2
     b72:	00d71463          	bne	a4,a3,b7a <USART_GetITStatus+0x38>
     b76:	291a                	lhu	a4,16(a0)
     b78:	bff1                	j	b54 <USART_GetITStatus+0x12>
     b7a:	295a                	lhu	a4,20(a0)
     b7c:	bfe1                	j	b54 <USART_GetITStatus+0x12>

00000b7e <Delay_Init>:
     b7e:	200007b7          	lui	a5,0x20000
     b82:	0707a783          	lw	a5,112(a5) # 20000070 <SystemCoreClock>
     b86:	007a1737          	lui	a4,0x7a1
     b8a:	20070713          	addi	a4,a4,512 # 7a1200 <_data_lma+0x79f17c>
     b8e:	02e7d7b3          	divu	a5,a5,a4
     b92:	0ff7f793          	andi	a5,a5,255
     b96:	82f18123          	sb	a5,-2014(gp) # 20000092 <p_us>
     b9a:	3e800713          	li	a4,1000
     b9e:	02e787b3          	mul	a5,a5,a4
     ba2:	82f19023          	sh	a5,-2016(gp) # 20000090 <p_ms>
     ba6:	8082                	ret

00000ba8 <Delay_Ms>:
     ba8:	e000f7b7          	lui	a5,0xe000f
     bac:	43d8                	lw	a4,4(a5)
     bae:	4681                	li	a3,0
     bb0:	9b79                	andi	a4,a4,-2
     bb2:	c3d8                	sw	a4,4(a5)
     bb4:	8201d703          	lhu	a4,-2016(gp) # 20000090 <p_ms>
     bb8:	02a70633          	mul	a2,a4,a0
     bbc:	cb90                	sw	a2,16(a5)
     bbe:	cbd4                	sw	a3,20(a5)
     bc0:	4398                	lw	a4,0(a5)
     bc2:	01076713          	ori	a4,a4,16
     bc6:	c398                	sw	a4,0(a5)
     bc8:	4398                	lw	a4,0(a5)
     bca:	02176713          	ori	a4,a4,33
     bce:	c398                	sw	a4,0(a5)
     bd0:	43d8                	lw	a4,4(a5)
     bd2:	8b05                	andi	a4,a4,1
     bd4:	df75                	beqz	a4,bd0 <Delay_Ms+0x28>
     bd6:	4398                	lw	a4,0(a5)
     bd8:	9b79                	andi	a4,a4,-2
     bda:	c398                	sw	a4,0(a5)
     bdc:	8082                	ret

00000bde <USART_Printf_Init>:
     bde:	d52ff2ef          	jal	t0,130 <__riscv_save_0>
     be2:	842a                	mv	s0,a0
     be4:	6511                	lui	a0,0x4
     be6:	1101                	addi	sp,sp,-32
     be8:	4585                	li	a1,1
     bea:	0511                	addi	a0,a0,4
     bec:	3d0d                	jal	a1e <RCC_APB2PeriphClockCmd>
     bee:	20000793          	li	a5,512
     bf2:	827c                	sh	a5,4(sp)
     bf4:	40011537          	lui	a0,0x40011
     bf8:	478d                	li	a5,3
     bfa:	c43e                	sw	a5,8(sp)
     bfc:	004c                	addi	a1,sp,4
     bfe:	47e1                	li	a5,24
     c00:	80050513          	addi	a0,a0,-2048 # 40010800 <_eusrstack+0x2000b800>
     c04:	c63e                	sw	a5,12(sp)
     c06:	3ec5                	jal	7f6 <GPIO_Init>
     c08:	c822                	sw	s0,16(sp)
     c0a:	40014437          	lui	s0,0x40014
     c0e:	000807b7          	lui	a5,0x80
     c12:	080c                	addi	a1,sp,16
     c14:	80040513          	addi	a0,s0,-2048 # 40013800 <_eusrstack+0x2000e800>
     c18:	cc3e                	sw	a5,24(sp)
     c1a:	ca02                	sw	zero,20(sp)
     c1c:	00011e23          	sh	zero,28(sp)
     c20:	3d31                	jal	a3c <USART_Init>
     c22:	4585                	li	a1,1
     c24:	80040513          	addi	a0,s0,-2048
     c28:	354d                	jal	aca <USART_Cmd>
     c2a:	6105                	addi	sp,sp,32
     c2c:	d28ff06f          	j	154 <__riscv_restore_0>

00000c30 <_write>:
     c30:	ce6ff2ef          	jal	t0,116 <__riscv_save_4>
     c34:	400144b7          	lui	s1,0x40014
     c38:	89ae                	mv	s3,a1
     c3a:	8932                	mv	s2,a2
     c3c:	4401                	li	s0,0
     c3e:	80048493          	addi	s1,s1,-2048 # 40013800 <_eusrstack+0x2000e800>
     c42:	01244563          	blt	s0,s2,c4c <_write+0x1c>
     c46:	854a                	mv	a0,s2
     c48:	d02ff06f          	j	14a <__riscv_restore_4>
     c4c:	04000593          	li	a1,64
     c50:	8526                	mv	a0,s1
     c52:	35dd                	jal	b38 <USART_GetFlagStatus>
     c54:	dd65                	beqz	a0,c4c <_write+0x1c>
     c56:	008987b3          	add	a5,s3,s0
     c5a:	00078583          	lb	a1,0(a5) # 80000 <_data_lma+0x7df7c>
     c5e:	8526                	mv	a0,s1
     c60:	0405                	addi	s0,s0,1
     c62:	05c2                	slli	a1,a1,0x10
     c64:	81c1                	srli	a1,a1,0x10
     c66:	35c9                	jal	b28 <USART_SendData>
     c68:	bfe9                	j	c42 <_write+0x12>

00000c6a <_sbrk>:
     c6a:	80818713          	addi	a4,gp,-2040 # 20000078 <curbrk.4652>
     c6e:	431c                	lw	a5,0(a4)
     c70:	d3c18693          	addi	a3,gp,-708 # 200005ac <_ebss>
     c74:	953e                	add	a0,a0,a5
     c76:	00d56b63          	bltu	a0,a3,c8c <_sbrk+0x22>
     c7a:	200056b7          	lui	a3,0x20005
     c7e:	80068693          	addi	a3,a3,-2048 # 20004800 <_heap_end>
     c82:	00a6e563          	bltu	a3,a0,c8c <_sbrk+0x22>
     c86:	c308                	sw	a0,0(a4)
     c88:	853e                	mv	a0,a5
     c8a:	8082                	ret
     c8c:	57fd                	li	a5,-1
     c8e:	bfed                	j	c88 <_sbrk+0x1e>

00000c90 <memcpy>:
     c90:	00a5c7b3          	xor	a5,a1,a0
     c94:	8b8d                	andi	a5,a5,3
     c96:	00c50733          	add	a4,a0,a2
     c9a:	e781                	bnez	a5,ca2 <memcpy+0x12>
     c9c:	478d                	li	a5,3
     c9e:	00c7ed63          	bltu	a5,a2,cb8 <memcpy+0x28>
     ca2:	87aa                	mv	a5,a0
     ca4:	08e57e63          	bgeu	a0,a4,d40 <memcpy+0xb0>
     ca8:	2194                	lbu	a3,0(a1)
     caa:	0785                	addi	a5,a5,1
     cac:	0585                	addi	a1,a1,1
     cae:	fed78fa3          	sb	a3,-1(a5)
     cb2:	fee7ebe3          	bltu	a5,a4,ca8 <memcpy+0x18>
     cb6:	8082                	ret
     cb8:	00357693          	andi	a3,a0,3
     cbc:	87aa                	mv	a5,a0
     cbe:	ca89                	beqz	a3,cd0 <memcpy+0x40>
     cc0:	2194                	lbu	a3,0(a1)
     cc2:	0785                	addi	a5,a5,1
     cc4:	0585                	addi	a1,a1,1
     cc6:	fed78fa3          	sb	a3,-1(a5)
     cca:	0037f693          	andi	a3,a5,3
     cce:	bfc5                	j	cbe <memcpy+0x2e>
     cd0:	ffc77693          	andi	a3,a4,-4
     cd4:	fe068613          	addi	a2,a3,-32
     cd8:	06c7f063          	bgeu	a5,a2,d38 <memcpy+0xa8>
     cdc:	0005a383          	lw	t2,0(a1)
     ce0:	0045a283          	lw	t0,4(a1)
     ce4:	0085af83          	lw	t6,8(a1)
     ce8:	00c5af03          	lw	t5,12(a1)
     cec:	0105ae83          	lw	t4,16(a1)
     cf0:	0145ae03          	lw	t3,20(a1)
     cf4:	0185a303          	lw	t1,24(a1)
     cf8:	01c5a883          	lw	a7,28(a1)
     cfc:	02458593          	addi	a1,a1,36
     d00:	0077a023          	sw	t2,0(a5)
     d04:	ffc5a803          	lw	a6,-4(a1)
     d08:	0057a223          	sw	t0,4(a5)
     d0c:	01f7a423          	sw	t6,8(a5)
     d10:	01e7a623          	sw	t5,12(a5)
     d14:	01d7a823          	sw	t4,16(a5)
     d18:	01c7aa23          	sw	t3,20(a5)
     d1c:	0067ac23          	sw	t1,24(a5)
     d20:	0117ae23          	sw	a7,28(a5)
     d24:	02478793          	addi	a5,a5,36
     d28:	ff07ae23          	sw	a6,-4(a5)
     d2c:	b775                	j	cd8 <memcpy+0x48>
     d2e:	4190                	lw	a2,0(a1)
     d30:	0791                	addi	a5,a5,4
     d32:	0591                	addi	a1,a1,4
     d34:	fec7ae23          	sw	a2,-4(a5)
     d38:	fed7ebe3          	bltu	a5,a3,d2e <memcpy+0x9e>
     d3c:	f6e7e6e3          	bltu	a5,a4,ca8 <memcpy+0x18>
     d40:	8082                	ret

00000d42 <iprintf>:
     d42:	7139                	addi	sp,sp,-64
     d44:	da3e                	sw	a5,52(sp)
     d46:	d22e                	sw	a1,36(sp)
     d48:	d432                	sw	a2,40(sp)
     d4a:	d636                	sw	a3,44(sp)
     d4c:	d83a                	sw	a4,48(sp)
     d4e:	dc42                	sw	a6,56(sp)
     d50:	de46                	sw	a7,60(sp)
     d52:	80c18793          	addi	a5,gp,-2036 # 2000007c <_impure_ptr>
     d56:	cc22                	sw	s0,24(sp)
     d58:	4380                	lw	s0,0(a5)
     d5a:	ca26                	sw	s1,20(sp)
     d5c:	ce06                	sw	ra,28(sp)
     d5e:	84aa                	mv	s1,a0
     d60:	c409                	beqz	s0,d6a <iprintf+0x28>
     d62:	4c1c                	lw	a5,24(s0)
     d64:	e399                	bnez	a5,d6a <iprintf+0x28>
     d66:	8522                	mv	a0,s0
     d68:	2315                	jal	128c <__sinit>
     d6a:	440c                	lw	a1,8(s0)
     d6c:	1054                	addi	a3,sp,36
     d6e:	8626                	mv	a2,s1
     d70:	8522                	mv	a0,s0
     d72:	c636                	sw	a3,12(sp)
     d74:	155000ef          	jal	ra,16c8 <_vfiprintf_r>
     d78:	40f2                	lw	ra,28(sp)
     d7a:	4462                	lw	s0,24(sp)
     d7c:	44d2                	lw	s1,20(sp)
     d7e:	6121                	addi	sp,sp,64
     d80:	8082                	ret

00000d82 <putchar>:
     d82:	1101                	addi	sp,sp,-32
     d84:	80c18793          	addi	a5,gp,-2036 # 2000007c <_impure_ptr>
     d88:	cc22                	sw	s0,24(sp)
     d8a:	4380                	lw	s0,0(a5)
     d8c:	ce06                	sw	ra,28(sp)
     d8e:	85aa                	mv	a1,a0
     d90:	c419                	beqz	s0,d9e <putchar+0x1c>
     d92:	4c1c                	lw	a5,24(s0)
     d94:	e789                	bnez	a5,d9e <putchar+0x1c>
     d96:	c62a                	sw	a0,12(sp)
     d98:	8522                	mv	a0,s0
     d9a:	29cd                	jal	128c <__sinit>
     d9c:	45b2                	lw	a1,12(sp)
     d9e:	4410                	lw	a2,8(s0)
     da0:	8522                	mv	a0,s0
     da2:	4462                	lw	s0,24(sp)
     da4:	40f2                	lw	ra,28(sp)
     da6:	6105                	addi	sp,sp,32
     da8:	7530006f          	j	1cfa <_putc_r>

00000dac <_puts_r>:
     dac:	1101                	addi	sp,sp,-32
     dae:	ca26                	sw	s1,20(sp)
     db0:	c84a                	sw	s2,16(sp)
     db2:	ce06                	sw	ra,28(sp)
     db4:	cc22                	sw	s0,24(sp)
     db6:	c64e                	sw	s3,12(sp)
     db8:	c452                	sw	s4,8(sp)
     dba:	84aa                	mv	s1,a0
     dbc:	892e                	mv	s2,a1
     dbe:	c501                	beqz	a0,dc6 <_puts_r+0x1a>
     dc0:	4d1c                	lw	a5,24(a0)
     dc2:	e391                	bnez	a5,dc6 <_puts_r+0x1a>
     dc4:	21e1                	jal	128c <__sinit>
     dc6:	4c9c                	lw	a5,24(s1)
     dc8:	4480                	lw	s0,8(s1)
     dca:	e399                	bnez	a5,dd0 <_puts_r+0x24>
     dcc:	8526                	mv	a0,s1
     dce:	297d                	jal	128c <__sinit>
     dd0:	00001797          	auipc	a5,0x1
     dd4:	23878793          	addi	a5,a5,568 # 2008 <__sf_fake_stdin>
     dd8:	02f41b63          	bne	s0,a5,e0e <_puts_r+0x62>
     ddc:	40c0                	lw	s0,4(s1)
     dde:	245e                	lhu	a5,12(s0)
     de0:	8ba1                	andi	a5,a5,8
     de2:	c7b1                	beqz	a5,e2e <_puts_r+0x82>
     de4:	481c                	lw	a5,16(s0)
     de6:	c7a1                	beqz	a5,e2e <_puts_r+0x82>
     de8:	59fd                	li	s3,-1
     dea:	4a29                	li	s4,10
     dec:	441c                	lw	a5,8(s0)
     dee:	00094583          	lbu	a1,0(s2)
     df2:	17fd                	addi	a5,a5,-1
     df4:	e9b1                	bnez	a1,e48 <_puts_r+0x9c>
     df6:	c41c                	sw	a5,8(s0)
     df8:	0607dd63          	bgez	a5,e72 <_puts_r+0xc6>
     dfc:	8622                	mv	a2,s0
     dfe:	45a9                	li	a1,10
     e00:	8526                	mv	a0,s1
     e02:	2061                	jal	e8a <__swbuf_r>
     e04:	57fd                	li	a5,-1
     e06:	02f50863          	beq	a0,a5,e36 <_puts_r+0x8a>
     e0a:	4529                	li	a0,10
     e0c:	a035                	j	e38 <_puts_r+0x8c>
     e0e:	00001797          	auipc	a5,0x1
     e12:	21a78793          	addi	a5,a5,538 # 2028 <__sf_fake_stdout>
     e16:	00f41463          	bne	s0,a5,e1e <_puts_r+0x72>
     e1a:	4480                	lw	s0,8(s1)
     e1c:	b7c9                	j	dde <_puts_r+0x32>
     e1e:	00001797          	auipc	a5,0x1
     e22:	1ca78793          	addi	a5,a5,458 # 1fe8 <__sf_fake_stderr>
     e26:	faf41ce3          	bne	s0,a5,dde <_puts_r+0x32>
     e2a:	44c0                	lw	s0,12(s1)
     e2c:	bf4d                	j	dde <_puts_r+0x32>
     e2e:	85a2                	mv	a1,s0
     e30:	8526                	mv	a0,s1
     e32:	2a11                	jal	f46 <__swsetup_r>
     e34:	d955                	beqz	a0,de8 <_puts_r+0x3c>
     e36:	557d                	li	a0,-1
     e38:	40f2                	lw	ra,28(sp)
     e3a:	4462                	lw	s0,24(sp)
     e3c:	44d2                	lw	s1,20(sp)
     e3e:	4942                	lw	s2,16(sp)
     e40:	49b2                	lw	s3,12(sp)
     e42:	4a22                	lw	s4,8(sp)
     e44:	6105                	addi	sp,sp,32
     e46:	8082                	ret
     e48:	c41c                	sw	a5,8(s0)
     e4a:	0905                	addi	s2,s2,1
     e4c:	0007d763          	bgez	a5,e5a <_puts_r+0xae>
     e50:	4c18                	lw	a4,24(s0)
     e52:	00e7ca63          	blt	a5,a4,e66 <_puts_r+0xba>
     e56:	01458863          	beq	a1,s4,e66 <_puts_r+0xba>
     e5a:	401c                	lw	a5,0(s0)
     e5c:	00178713          	addi	a4,a5,1
     e60:	c018                	sw	a4,0(s0)
     e62:	a38c                	sb	a1,0(a5)
     e64:	b761                	j	dec <_puts_r+0x40>
     e66:	8622                	mv	a2,s0
     e68:	8526                	mv	a0,s1
     e6a:	2005                	jal	e8a <__swbuf_r>
     e6c:	f93510e3          	bne	a0,s3,dec <_puts_r+0x40>
     e70:	b7d9                	j	e36 <_puts_r+0x8a>
     e72:	401c                	lw	a5,0(s0)
     e74:	00178713          	addi	a4,a5,1
     e78:	c018                	sw	a4,0(s0)
     e7a:	4729                	li	a4,10
     e7c:	a398                	sb	a4,0(a5)
     e7e:	b771                	j	e0a <_puts_r+0x5e>

00000e80 <puts>:
     e80:	80c18793          	addi	a5,gp,-2036 # 2000007c <_impure_ptr>
     e84:	85aa                	mv	a1,a0
     e86:	4388                	lw	a0,0(a5)
     e88:	b715                	j	dac <_puts_r>

00000e8a <__swbuf_r>:
     e8a:	1101                	addi	sp,sp,-32
     e8c:	cc22                	sw	s0,24(sp)
     e8e:	ca26                	sw	s1,20(sp)
     e90:	c84a                	sw	s2,16(sp)
     e92:	ce06                	sw	ra,28(sp)
     e94:	c64e                	sw	s3,12(sp)
     e96:	84aa                	mv	s1,a0
     e98:	892e                	mv	s2,a1
     e9a:	8432                	mv	s0,a2
     e9c:	c501                	beqz	a0,ea4 <__swbuf_r+0x1a>
     e9e:	4d1c                	lw	a5,24(a0)
     ea0:	e391                	bnez	a5,ea4 <__swbuf_r+0x1a>
     ea2:	26ed                	jal	128c <__sinit>
     ea4:	00001797          	auipc	a5,0x1
     ea8:	16478793          	addi	a5,a5,356 # 2008 <__sf_fake_stdin>
     eac:	06f41763          	bne	s0,a5,f1a <__swbuf_r+0x90>
     eb0:	40c0                	lw	s0,4(s1)
     eb2:	4c1c                	lw	a5,24(s0)
     eb4:	c41c                	sw	a5,8(s0)
     eb6:	245e                	lhu	a5,12(s0)
     eb8:	8ba1                	andi	a5,a5,8
     eba:	c3c1                	beqz	a5,f3a <__swbuf_r+0xb0>
     ebc:	481c                	lw	a5,16(s0)
     ebe:	cfb5                	beqz	a5,f3a <__swbuf_r+0xb0>
     ec0:	481c                	lw	a5,16(s0)
     ec2:	4008                	lw	a0,0(s0)
     ec4:	0ff97993          	andi	s3,s2,255
     ec8:	0ff97913          	andi	s2,s2,255
     ecc:	8d1d                	sub	a0,a0,a5
     ece:	485c                	lw	a5,20(s0)
     ed0:	00f54663          	blt	a0,a5,edc <__swbuf_r+0x52>
     ed4:	85a2                	mv	a1,s0
     ed6:	8526                	mv	a0,s1
     ed8:	2c69                	jal	1172 <_fflush_r>
     eda:	e525                	bnez	a0,f42 <__swbuf_r+0xb8>
     edc:	441c                	lw	a5,8(s0)
     ede:	0505                	addi	a0,a0,1
     ee0:	17fd                	addi	a5,a5,-1
     ee2:	c41c                	sw	a5,8(s0)
     ee4:	401c                	lw	a5,0(s0)
     ee6:	00178713          	addi	a4,a5,1
     eea:	c018                	sw	a4,0(s0)
     eec:	01378023          	sb	s3,0(a5)
     ef0:	485c                	lw	a5,20(s0)
     ef2:	00a78863          	beq	a5,a0,f02 <__swbuf_r+0x78>
     ef6:	245e                	lhu	a5,12(s0)
     ef8:	8b85                	andi	a5,a5,1
     efa:	cb81                	beqz	a5,f0a <__swbuf_r+0x80>
     efc:	47a9                	li	a5,10
     efe:	00f91663          	bne	s2,a5,f0a <__swbuf_r+0x80>
     f02:	85a2                	mv	a1,s0
     f04:	8526                	mv	a0,s1
     f06:	24b5                	jal	1172 <_fflush_r>
     f08:	ed0d                	bnez	a0,f42 <__swbuf_r+0xb8>
     f0a:	40f2                	lw	ra,28(sp)
     f0c:	4462                	lw	s0,24(sp)
     f0e:	854a                	mv	a0,s2
     f10:	44d2                	lw	s1,20(sp)
     f12:	4942                	lw	s2,16(sp)
     f14:	49b2                	lw	s3,12(sp)
     f16:	6105                	addi	sp,sp,32
     f18:	8082                	ret
     f1a:	00001797          	auipc	a5,0x1
     f1e:	10e78793          	addi	a5,a5,270 # 2028 <__sf_fake_stdout>
     f22:	00f41463          	bne	s0,a5,f2a <__swbuf_r+0xa0>
     f26:	4480                	lw	s0,8(s1)
     f28:	b769                	j	eb2 <__swbuf_r+0x28>
     f2a:	00001797          	auipc	a5,0x1
     f2e:	0be78793          	addi	a5,a5,190 # 1fe8 <__sf_fake_stderr>
     f32:	f8f410e3          	bne	s0,a5,eb2 <__swbuf_r+0x28>
     f36:	44c0                	lw	s0,12(s1)
     f38:	bfad                	j	eb2 <__swbuf_r+0x28>
     f3a:	85a2                	mv	a1,s0
     f3c:	8526                	mv	a0,s1
     f3e:	2021                	jal	f46 <__swsetup_r>
     f40:	d141                	beqz	a0,ec0 <__swbuf_r+0x36>
     f42:	597d                	li	s2,-1
     f44:	b7d9                	j	f0a <__swbuf_r+0x80>

00000f46 <__swsetup_r>:
     f46:	1141                	addi	sp,sp,-16
     f48:	80c18793          	addi	a5,gp,-2036 # 2000007c <_impure_ptr>
     f4c:	c226                	sw	s1,4(sp)
     f4e:	4384                	lw	s1,0(a5)
     f50:	c422                	sw	s0,8(sp)
     f52:	c04a                	sw	s2,0(sp)
     f54:	c606                	sw	ra,12(sp)
     f56:	892a                	mv	s2,a0
     f58:	842e                	mv	s0,a1
     f5a:	c489                	beqz	s1,f64 <__swsetup_r+0x1e>
     f5c:	4c9c                	lw	a5,24(s1)
     f5e:	e399                	bnez	a5,f64 <__swsetup_r+0x1e>
     f60:	8526                	mv	a0,s1
     f62:	262d                	jal	128c <__sinit>
     f64:	00001797          	auipc	a5,0x1
     f68:	0a478793          	addi	a5,a5,164 # 2008 <__sf_fake_stdin>
     f6c:	02f41b63          	bne	s0,a5,fa2 <__swsetup_r+0x5c>
     f70:	40c0                	lw	s0,4(s1)
     f72:	00c41703          	lh	a4,12(s0)
     f76:	01071793          	slli	a5,a4,0x10
     f7a:	83c1                	srli	a5,a5,0x10
     f7c:	0087f693          	andi	a3,a5,8
     f80:	eaad                	bnez	a3,ff2 <__swsetup_r+0xac>
     f82:	0107f693          	andi	a3,a5,16
     f86:	ee95                	bnez	a3,fc2 <__swsetup_r+0x7c>
     f88:	47a5                	li	a5,9
     f8a:	00f92023          	sw	a5,0(s2)
     f8e:	04076713          	ori	a4,a4,64
     f92:	a45a                	sh	a4,12(s0)
     f94:	557d                	li	a0,-1
     f96:	40b2                	lw	ra,12(sp)
     f98:	4422                	lw	s0,8(sp)
     f9a:	4492                	lw	s1,4(sp)
     f9c:	4902                	lw	s2,0(sp)
     f9e:	0141                	addi	sp,sp,16
     fa0:	8082                	ret
     fa2:	00001797          	auipc	a5,0x1
     fa6:	08678793          	addi	a5,a5,134 # 2028 <__sf_fake_stdout>
     faa:	00f41463          	bne	s0,a5,fb2 <__swsetup_r+0x6c>
     fae:	4480                	lw	s0,8(s1)
     fb0:	b7c9                	j	f72 <__swsetup_r+0x2c>
     fb2:	00001797          	auipc	a5,0x1
     fb6:	03678793          	addi	a5,a5,54 # 1fe8 <__sf_fake_stderr>
     fba:	faf41ce3          	bne	s0,a5,f72 <__swsetup_r+0x2c>
     fbe:	44c0                	lw	s0,12(s1)
     fc0:	bf4d                	j	f72 <__swsetup_r+0x2c>
     fc2:	8b91                	andi	a5,a5,4
     fc4:	c39d                	beqz	a5,fea <__swsetup_r+0xa4>
     fc6:	584c                	lw	a1,52(s0)
     fc8:	c989                	beqz	a1,fda <__swsetup_r+0x94>
     fca:	04440793          	addi	a5,s0,68
     fce:	00f58463          	beq	a1,a5,fd6 <__swsetup_r+0x90>
     fd2:	854a                	mv	a0,s2
     fd4:	2331                	jal	14e0 <_free_r>
     fd6:	02042a23          	sw	zero,52(s0)
     fda:	245e                	lhu	a5,12(s0)
     fdc:	00042223          	sw	zero,4(s0)
     fe0:	fdb7f793          	andi	a5,a5,-37
     fe4:	a45e                	sh	a5,12(s0)
     fe6:	481c                	lw	a5,16(s0)
     fe8:	c01c                	sw	a5,0(s0)
     fea:	245e                	lhu	a5,12(s0)
     fec:	0087e793          	ori	a5,a5,8
     ff0:	a45e                	sh	a5,12(s0)
     ff2:	481c                	lw	a5,16(s0)
     ff4:	eb99                	bnez	a5,100a <__swsetup_r+0xc4>
     ff6:	245e                	lhu	a5,12(s0)
     ff8:	20000713          	li	a4,512
     ffc:	2807f793          	andi	a5,a5,640
    1000:	00e78563          	beq	a5,a4,100a <__swsetup_r+0xc4>
    1004:	85a2                	mv	a1,s0
    1006:	854a                	mv	a0,s2
    1008:	21a1                	jal	1450 <__smakebuf_r>
    100a:	245e                	lhu	a5,12(s0)
    100c:	0017f713          	andi	a4,a5,1
    1010:	c31d                	beqz	a4,1036 <__swsetup_r+0xf0>
    1012:	485c                	lw	a5,20(s0)
    1014:	00042423          	sw	zero,8(s0)
    1018:	40f007b3          	neg	a5,a5
    101c:	cc1c                	sw	a5,24(s0)
    101e:	481c                	lw	a5,16(s0)
    1020:	4501                	li	a0,0
    1022:	fbb5                	bnez	a5,f96 <__swsetup_r+0x50>
    1024:	00c41783          	lh	a5,12(s0)
    1028:	0807f713          	andi	a4,a5,128
    102c:	d72d                	beqz	a4,f96 <__swsetup_r+0x50>
    102e:	0407e793          	ori	a5,a5,64
    1032:	a45e                	sh	a5,12(s0)
    1034:	b785                	j	f94 <__swsetup_r+0x4e>
    1036:	8b89                	andi	a5,a5,2
    1038:	4701                	li	a4,0
    103a:	e391                	bnez	a5,103e <__swsetup_r+0xf8>
    103c:	4858                	lw	a4,20(s0)
    103e:	c418                	sw	a4,8(s0)
    1040:	bff9                	j	101e <__swsetup_r+0xd8>

00001042 <__sflush_r>:
    1042:	25de                	lhu	a5,12(a1)
    1044:	1101                	addi	sp,sp,-32
    1046:	cc22                	sw	s0,24(sp)
    1048:	ca26                	sw	s1,20(sp)
    104a:	ce06                	sw	ra,28(sp)
    104c:	c84a                	sw	s2,16(sp)
    104e:	c64e                	sw	s3,12(sp)
    1050:	0087f713          	andi	a4,a5,8
    1054:	84aa                	mv	s1,a0
    1056:	842e                	mv	s0,a1
    1058:	eb79                	bnez	a4,112e <__sflush_r+0xec>
    105a:	41d8                	lw	a4,4(a1)
    105c:	00e04d63          	bgtz	a4,1076 <__sflush_r+0x34>
    1060:	41b8                	lw	a4,64(a1)
    1062:	00e04a63          	bgtz	a4,1076 <__sflush_r+0x34>
    1066:	4501                	li	a0,0
    1068:	40f2                	lw	ra,28(sp)
    106a:	4462                	lw	s0,24(sp)
    106c:	44d2                	lw	s1,20(sp)
    106e:	4942                	lw	s2,16(sp)
    1070:	49b2                	lw	s3,12(sp)
    1072:	6105                	addi	sp,sp,32
    1074:	8082                	ret
    1076:	5458                	lw	a4,44(s0)
    1078:	d77d                	beqz	a4,1066 <__sflush_r+0x24>
    107a:	0004a903          	lw	s2,0(s1)
    107e:	01379693          	slli	a3,a5,0x13
    1082:	0004a023          	sw	zero,0(s1)
    1086:	0606db63          	bgez	a3,10fc <__sflush_r+0xba>
    108a:	4870                	lw	a2,84(s0)
    108c:	245e                	lhu	a5,12(s0)
    108e:	8b91                	andi	a5,a5,4
    1090:	c799                	beqz	a5,109e <__sflush_r+0x5c>
    1092:	405c                	lw	a5,4(s0)
    1094:	8e1d                	sub	a2,a2,a5
    1096:	585c                	lw	a5,52(s0)
    1098:	c399                	beqz	a5,109e <__sflush_r+0x5c>
    109a:	403c                	lw	a5,64(s0)
    109c:	8e1d                	sub	a2,a2,a5
    109e:	545c                	lw	a5,44(s0)
    10a0:	500c                	lw	a1,32(s0)
    10a2:	4681                	li	a3,0
    10a4:	8526                	mv	a0,s1
    10a6:	9782                	jalr	a5
    10a8:	57fd                	li	a5,-1
    10aa:	245a                	lhu	a4,12(s0)
    10ac:	00f51d63          	bne	a0,a5,10c6 <__sflush_r+0x84>
    10b0:	4094                	lw	a3,0(s1)
    10b2:	47f5                	li	a5,29
    10b4:	06d7e863          	bltu	a5,a3,1124 <__sflush_r+0xe2>
    10b8:	204007b7          	lui	a5,0x20400
    10bc:	0785                	addi	a5,a5,1
    10be:	00d7d7b3          	srl	a5,a5,a3
    10c2:	8b85                	andi	a5,a5,1
    10c4:	c3a5                	beqz	a5,1124 <__sflush_r+0xe2>
    10c6:	481c                	lw	a5,16(s0)
    10c8:	00042223          	sw	zero,4(s0)
    10cc:	c01c                	sw	a5,0(s0)
    10ce:	01371793          	slli	a5,a4,0x13
    10d2:	0007d863          	bgez	a5,10e2 <__sflush_r+0xa0>
    10d6:	57fd                	li	a5,-1
    10d8:	00f51463          	bne	a0,a5,10e0 <__sflush_r+0x9e>
    10dc:	409c                	lw	a5,0(s1)
    10de:	e391                	bnez	a5,10e2 <__sflush_r+0xa0>
    10e0:	c868                	sw	a0,84(s0)
    10e2:	584c                	lw	a1,52(s0)
    10e4:	0124a023          	sw	s2,0(s1)
    10e8:	ddbd                	beqz	a1,1066 <__sflush_r+0x24>
    10ea:	04440793          	addi	a5,s0,68
    10ee:	00f58463          	beq	a1,a5,10f6 <__sflush_r+0xb4>
    10f2:	8526                	mv	a0,s1
    10f4:	26f5                	jal	14e0 <_free_r>
    10f6:	02042a23          	sw	zero,52(s0)
    10fa:	b7b5                	j	1066 <__sflush_r+0x24>
    10fc:	500c                	lw	a1,32(s0)
    10fe:	4601                	li	a2,0
    1100:	4685                	li	a3,1
    1102:	8526                	mv	a0,s1
    1104:	9702                	jalr	a4
    1106:	57fd                	li	a5,-1
    1108:	862a                	mv	a2,a0
    110a:	f8f511e3          	bne	a0,a5,108c <__sflush_r+0x4a>
    110e:	409c                	lw	a5,0(s1)
    1110:	dfb5                	beqz	a5,108c <__sflush_r+0x4a>
    1112:	4775                	li	a4,29
    1114:	00e78563          	beq	a5,a4,111e <__sflush_r+0xdc>
    1118:	4759                	li	a4,22
    111a:	04e79363          	bne	a5,a4,1160 <__sflush_r+0x11e>
    111e:	0124a023          	sw	s2,0(s1)
    1122:	b791                	j	1066 <__sflush_r+0x24>
    1124:	04076713          	ori	a4,a4,64
    1128:	a45a                	sh	a4,12(s0)
    112a:	557d                	li	a0,-1
    112c:	bf35                	j	1068 <__sflush_r+0x26>
    112e:	0105a983          	lw	s3,16(a1)
    1132:	f2098ae3          	beqz	s3,1066 <__sflush_r+0x24>
    1136:	0005a903          	lw	s2,0(a1)
    113a:	8b8d                	andi	a5,a5,3
    113c:	0135a023          	sw	s3,0(a1)
    1140:	41390933          	sub	s2,s2,s3
    1144:	4701                	li	a4,0
    1146:	e391                	bnez	a5,114a <__sflush_r+0x108>
    1148:	49d8                	lw	a4,20(a1)
    114a:	c418                	sw	a4,8(s0)
    114c:	f1205de3          	blez	s2,1066 <__sflush_r+0x24>
    1150:	541c                	lw	a5,40(s0)
    1152:	500c                	lw	a1,32(s0)
    1154:	86ca                	mv	a3,s2
    1156:	864e                	mv	a2,s3
    1158:	8526                	mv	a0,s1
    115a:	9782                	jalr	a5
    115c:	00a04763          	bgtz	a0,116a <__sflush_r+0x128>
    1160:	245e                	lhu	a5,12(s0)
    1162:	0407e793          	ori	a5,a5,64
    1166:	a45e                	sh	a5,12(s0)
    1168:	b7c9                	j	112a <__sflush_r+0xe8>
    116a:	99aa                	add	s3,s3,a0
    116c:	40a90933          	sub	s2,s2,a0
    1170:	bff1                	j	114c <__sflush_r+0x10a>

00001172 <_fflush_r>:
    1172:	499c                	lw	a5,16(a1)
    1174:	cfb9                	beqz	a5,11d2 <_fflush_r+0x60>
    1176:	1101                	addi	sp,sp,-32
    1178:	cc22                	sw	s0,24(sp)
    117a:	ce06                	sw	ra,28(sp)
    117c:	842a                	mv	s0,a0
    117e:	c511                	beqz	a0,118a <_fflush_r+0x18>
    1180:	4d1c                	lw	a5,24(a0)
    1182:	e781                	bnez	a5,118a <_fflush_r+0x18>
    1184:	c62e                	sw	a1,12(sp)
    1186:	2219                	jal	128c <__sinit>
    1188:	45b2                	lw	a1,12(sp)
    118a:	00001797          	auipc	a5,0x1
    118e:	e7e78793          	addi	a5,a5,-386 # 2008 <__sf_fake_stdin>
    1192:	00f59b63          	bne	a1,a5,11a8 <_fflush_r+0x36>
    1196:	404c                	lw	a1,4(s0)
    1198:	00c59783          	lh	a5,12(a1)
    119c:	c795                	beqz	a5,11c8 <_fflush_r+0x56>
    119e:	8522                	mv	a0,s0
    11a0:	4462                	lw	s0,24(sp)
    11a2:	40f2                	lw	ra,28(sp)
    11a4:	6105                	addi	sp,sp,32
    11a6:	bd71                	j	1042 <__sflush_r>
    11a8:	00001797          	auipc	a5,0x1
    11ac:	e8078793          	addi	a5,a5,-384 # 2028 <__sf_fake_stdout>
    11b0:	00f59463          	bne	a1,a5,11b8 <_fflush_r+0x46>
    11b4:	440c                	lw	a1,8(s0)
    11b6:	b7cd                	j	1198 <_fflush_r+0x26>
    11b8:	00001797          	auipc	a5,0x1
    11bc:	e3078793          	addi	a5,a5,-464 # 1fe8 <__sf_fake_stderr>
    11c0:	fcf59ce3          	bne	a1,a5,1198 <_fflush_r+0x26>
    11c4:	444c                	lw	a1,12(s0)
    11c6:	bfc9                	j	1198 <_fflush_r+0x26>
    11c8:	40f2                	lw	ra,28(sp)
    11ca:	4462                	lw	s0,24(sp)
    11cc:	4501                	li	a0,0
    11ce:	6105                	addi	sp,sp,32
    11d0:	8082                	ret
    11d2:	4501                	li	a0,0
    11d4:	8082                	ret

000011d6 <std>:
    11d6:	1141                	addi	sp,sp,-16
    11d8:	c422                	sw	s0,8(sp)
    11da:	c606                	sw	ra,12(sp)
    11dc:	842a                	mv	s0,a0
    11de:	a54e                	sh	a1,12(a0)
    11e0:	a572                	sh	a2,14(a0)
    11e2:	00052023          	sw	zero,0(a0)
    11e6:	00052223          	sw	zero,4(a0)
    11ea:	00052423          	sw	zero,8(a0)
    11ee:	06052223          	sw	zero,100(a0)
    11f2:	00052823          	sw	zero,16(a0)
    11f6:	00052a23          	sw	zero,20(a0)
    11fa:	00052c23          	sw	zero,24(a0)
    11fe:	4621                	li	a2,8
    1200:	4581                	li	a1,0
    1202:	05c50513          	addi	a0,a0,92
    1206:	f5bfe0ef          	jal	ra,160 <memset>
    120a:	00001797          	auipc	a5,0x1
    120e:	b9e78793          	addi	a5,a5,-1122 # 1da8 <__sread>
    1212:	d05c                	sw	a5,36(s0)
    1214:	00001797          	auipc	a5,0x1
    1218:	bc078793          	addi	a5,a5,-1088 # 1dd4 <__swrite>
    121c:	d41c                	sw	a5,40(s0)
    121e:	00001797          	auipc	a5,0x1
    1222:	bfe78793          	addi	a5,a5,-1026 # 1e1c <__sseek>
    1226:	d45c                	sw	a5,44(s0)
    1228:	00001797          	auipc	a5,0x1
    122c:	c2478793          	addi	a5,a5,-988 # 1e4c <__sclose>
    1230:	d000                	sw	s0,32(s0)
    1232:	d81c                	sw	a5,48(s0)
    1234:	40b2                	lw	ra,12(sp)
    1236:	4422                	lw	s0,8(sp)
    1238:	0141                	addi	sp,sp,16
    123a:	8082                	ret

0000123c <_cleanup_r>:
    123c:	00000597          	auipc	a1,0x0
    1240:	f3658593          	addi	a1,a1,-202 # 1172 <_fflush_r>
    1244:	a2a9                	j	138e <_fwalk_reent>

00001246 <__sfmoreglue>:
    1246:	1141                	addi	sp,sp,-16
    1248:	c226                	sw	s1,4(sp)
    124a:	06800613          	li	a2,104
    124e:	fff58493          	addi	s1,a1,-1
    1252:	02c484b3          	mul	s1,s1,a2
    1256:	c04a                	sw	s2,0(sp)
    1258:	892e                	mv	s2,a1
    125a:	c422                	sw	s0,8(sp)
    125c:	c606                	sw	ra,12(sp)
    125e:	07448593          	addi	a1,s1,116
    1262:	261d                	jal	1588 <_malloc_r>
    1264:	842a                	mv	s0,a0
    1266:	cd01                	beqz	a0,127e <__sfmoreglue+0x38>
    1268:	00052023          	sw	zero,0(a0)
    126c:	01252223          	sw	s2,4(a0)
    1270:	0531                	addi	a0,a0,12
    1272:	c408                	sw	a0,8(s0)
    1274:	06848613          	addi	a2,s1,104
    1278:	4581                	li	a1,0
    127a:	ee7fe0ef          	jal	ra,160 <memset>
    127e:	8522                	mv	a0,s0
    1280:	40b2                	lw	ra,12(sp)
    1282:	4422                	lw	s0,8(sp)
    1284:	4492                	lw	s1,4(sp)
    1286:	4902                	lw	s2,0(sp)
    1288:	0141                	addi	sp,sp,16
    128a:	8082                	ret

0000128c <__sinit>:
    128c:	4d1c                	lw	a5,24(a0)
    128e:	e3ad                	bnez	a5,12f0 <__sinit+0x64>
    1290:	1141                	addi	sp,sp,-16
    1292:	c606                	sw	ra,12(sp)
    1294:	c422                	sw	s0,8(sp)
    1296:	00000797          	auipc	a5,0x0
    129a:	fa678793          	addi	a5,a5,-90 # 123c <_cleanup_r>
    129e:	d51c                	sw	a5,40(a0)
    12a0:	81018793          	addi	a5,gp,-2032 # 20000080 <_global_impure_ptr>
    12a4:	439c                	lw	a5,0(a5)
    12a6:	04052423          	sw	zero,72(a0)
    12aa:	04052623          	sw	zero,76(a0)
    12ae:	04052823          	sw	zero,80(a0)
    12b2:	00f51463          	bne	a0,a5,12ba <__sinit+0x2e>
    12b6:	4785                	li	a5,1
    12b8:	cd1c                	sw	a5,24(a0)
    12ba:	842a                	mv	s0,a0
    12bc:	281d                	jal	12f2 <__sfp>
    12be:	c048                	sw	a0,4(s0)
    12c0:	8522                	mv	a0,s0
    12c2:	2805                	jal	12f2 <__sfp>
    12c4:	c408                	sw	a0,8(s0)
    12c6:	8522                	mv	a0,s0
    12c8:	202d                	jal	12f2 <__sfp>
    12ca:	c448                	sw	a0,12(s0)
    12cc:	4048                	lw	a0,4(s0)
    12ce:	4601                	li	a2,0
    12d0:	4591                	li	a1,4
    12d2:	3711                	jal	11d6 <std>
    12d4:	4408                	lw	a0,8(s0)
    12d6:	4605                	li	a2,1
    12d8:	45a5                	li	a1,9
    12da:	3df5                	jal	11d6 <std>
    12dc:	4448                	lw	a0,12(s0)
    12de:	4609                	li	a2,2
    12e0:	45c9                	li	a1,18
    12e2:	3dd5                	jal	11d6 <std>
    12e4:	4785                	li	a5,1
    12e6:	cc1c                	sw	a5,24(s0)
    12e8:	40b2                	lw	ra,12(sp)
    12ea:	4422                	lw	s0,8(sp)
    12ec:	0141                	addi	sp,sp,16
    12ee:	8082                	ret
    12f0:	8082                	ret

000012f2 <__sfp>:
    12f2:	1141                	addi	sp,sp,-16
    12f4:	81018793          	addi	a5,gp,-2032 # 20000080 <_global_impure_ptr>
    12f8:	c226                	sw	s1,4(sp)
    12fa:	4384                	lw	s1,0(a5)
    12fc:	c04a                	sw	s2,0(sp)
    12fe:	c606                	sw	ra,12(sp)
    1300:	4c9c                	lw	a5,24(s1)
    1302:	c422                	sw	s0,8(sp)
    1304:	892a                	mv	s2,a0
    1306:	e399                	bnez	a5,130c <__sfp+0x1a>
    1308:	8526                	mv	a0,s1
    130a:	3749                	jal	128c <__sinit>
    130c:	04848493          	addi	s1,s1,72
    1310:	4480                	lw	s0,8(s1)
    1312:	40dc                	lw	a5,4(s1)
    1314:	17fd                	addi	a5,a5,-1
    1316:	0007d663          	bgez	a5,1322 <__sfp+0x30>
    131a:	409c                	lw	a5,0(s1)
    131c:	cfb9                	beqz	a5,137a <__sfp+0x88>
    131e:	4084                	lw	s1,0(s1)
    1320:	bfc5                	j	1310 <__sfp+0x1e>
    1322:	00c41703          	lh	a4,12(s0)
    1326:	e739                	bnez	a4,1374 <__sfp+0x82>
    1328:	77c1                	lui	a5,0xffff0
    132a:	0785                	addi	a5,a5,1
    132c:	06042223          	sw	zero,100(s0)
    1330:	00042023          	sw	zero,0(s0)
    1334:	00042223          	sw	zero,4(s0)
    1338:	00042423          	sw	zero,8(s0)
    133c:	c45c                	sw	a5,12(s0)
    133e:	00042823          	sw	zero,16(s0)
    1342:	00042a23          	sw	zero,20(s0)
    1346:	00042c23          	sw	zero,24(s0)
    134a:	4621                	li	a2,8
    134c:	4581                	li	a1,0
    134e:	05c40513          	addi	a0,s0,92
    1352:	e0ffe0ef          	jal	ra,160 <memset>
    1356:	02042a23          	sw	zero,52(s0)
    135a:	02042c23          	sw	zero,56(s0)
    135e:	04042423          	sw	zero,72(s0)
    1362:	04042623          	sw	zero,76(s0)
    1366:	8522                	mv	a0,s0
    1368:	40b2                	lw	ra,12(sp)
    136a:	4422                	lw	s0,8(sp)
    136c:	4492                	lw	s1,4(sp)
    136e:	4902                	lw	s2,0(sp)
    1370:	0141                	addi	sp,sp,16
    1372:	8082                	ret
    1374:	06840413          	addi	s0,s0,104
    1378:	bf71                	j	1314 <__sfp+0x22>
    137a:	4591                	li	a1,4
    137c:	854a                	mv	a0,s2
    137e:	35e1                	jal	1246 <__sfmoreglue>
    1380:	c088                	sw	a0,0(s1)
    1382:	fd51                	bnez	a0,131e <__sfp+0x2c>
    1384:	47b1                	li	a5,12
    1386:	00f92023          	sw	a5,0(s2)
    138a:	4401                	li	s0,0
    138c:	bfe9                	j	1366 <__sfp+0x74>

0000138e <_fwalk_reent>:
    138e:	7179                	addi	sp,sp,-48
    1390:	d422                	sw	s0,40(sp)
    1392:	d04a                	sw	s2,32(sp)
    1394:	cc52                	sw	s4,24(sp)
    1396:	ca56                	sw	s5,20(sp)
    1398:	c85a                	sw	s6,16(sp)
    139a:	c65e                	sw	s7,12(sp)
    139c:	d606                	sw	ra,44(sp)
    139e:	d226                	sw	s1,36(sp)
    13a0:	ce4e                	sw	s3,28(sp)
    13a2:	8a2a                	mv	s4,a0
    13a4:	8aae                	mv	s5,a1
    13a6:	04850413          	addi	s0,a0,72
    13aa:	4901                	li	s2,0
    13ac:	4b05                	li	s6,1
    13ae:	5bfd                	li	s7,-1
    13b0:	ec09                	bnez	s0,13ca <_fwalk_reent+0x3c>
    13b2:	50b2                	lw	ra,44(sp)
    13b4:	5422                	lw	s0,40(sp)
    13b6:	854a                	mv	a0,s2
    13b8:	5492                	lw	s1,36(sp)
    13ba:	5902                	lw	s2,32(sp)
    13bc:	49f2                	lw	s3,28(sp)
    13be:	4a62                	lw	s4,24(sp)
    13c0:	4ad2                	lw	s5,20(sp)
    13c2:	4b42                	lw	s6,16(sp)
    13c4:	4bb2                	lw	s7,12(sp)
    13c6:	6145                	addi	sp,sp,48
    13c8:	8082                	ret
    13ca:	4404                	lw	s1,8(s0)
    13cc:	00442983          	lw	s3,4(s0)
    13d0:	19fd                	addi	s3,s3,-1
    13d2:	0009d463          	bgez	s3,13da <_fwalk_reent+0x4c>
    13d6:	4000                	lw	s0,0(s0)
    13d8:	bfe1                	j	13b0 <_fwalk_reent+0x22>
    13da:	24de                	lhu	a5,12(s1)
    13dc:	00fb7b63          	bgeu	s6,a5,13f2 <_fwalk_reent+0x64>
    13e0:	00e49783          	lh	a5,14(s1)
    13e4:	01778763          	beq	a5,s7,13f2 <_fwalk_reent+0x64>
    13e8:	85a6                	mv	a1,s1
    13ea:	8552                	mv	a0,s4
    13ec:	9a82                	jalr	s5
    13ee:	00a96933          	or	s2,s2,a0
    13f2:	06848493          	addi	s1,s1,104
    13f6:	bfe9                	j	13d0 <_fwalk_reent+0x42>

000013f8 <__swhatbuf_r>:
    13f8:	7119                	addi	sp,sp,-128
    13fa:	daa6                	sw	s1,116(sp)
    13fc:	84ae                	mv	s1,a1
    13fe:	00e59583          	lh	a1,14(a1)
    1402:	dca2                	sw	s0,120(sp)
    1404:	de86                	sw	ra,124(sp)
    1406:	8432                	mv	s0,a2
    1408:	0005db63          	bgez	a1,141e <__swhatbuf_r+0x26>
    140c:	24de                	lhu	a5,12(s1)
    140e:	0006a023          	sw	zero,0(a3)
    1412:	0807f793          	andi	a5,a5,128
    1416:	e785                	bnez	a5,143e <__swhatbuf_r+0x46>
    1418:	40000793          	li	a5,1024
    141c:	a01d                	j	1442 <__swhatbuf_r+0x4a>
    141e:	0830                	addi	a2,sp,24
    1420:	c636                	sw	a3,12(sp)
    1422:	287000ef          	jal	ra,1ea8 <_fstat_r>
    1426:	46b2                	lw	a3,12(sp)
    1428:	fe0542e3          	bltz	a0,140c <__swhatbuf_r+0x14>
    142c:	4772                	lw	a4,28(sp)
    142e:	67bd                	lui	a5,0xf
    1430:	8ff9                	and	a5,a5,a4
    1432:	7779                	lui	a4,0xffffe
    1434:	97ba                	add	a5,a5,a4
    1436:	0017b793          	seqz	a5,a5
    143a:	c29c                	sw	a5,0(a3)
    143c:	bff1                	j	1418 <__swhatbuf_r+0x20>
    143e:	04000793          	li	a5,64
    1442:	c01c                	sw	a5,0(s0)
    1444:	50f6                	lw	ra,124(sp)
    1446:	5466                	lw	s0,120(sp)
    1448:	54d6                	lw	s1,116(sp)
    144a:	4501                	li	a0,0
    144c:	6109                	addi	sp,sp,128
    144e:	8082                	ret

00001450 <__smakebuf_r>:
    1450:	25de                	lhu	a5,12(a1)
    1452:	1101                	addi	sp,sp,-32
    1454:	cc22                	sw	s0,24(sp)
    1456:	ce06                	sw	ra,28(sp)
    1458:	ca26                	sw	s1,20(sp)
    145a:	c84a                	sw	s2,16(sp)
    145c:	8b89                	andi	a5,a5,2
    145e:	842e                	mv	s0,a1
    1460:	cf89                	beqz	a5,147a <__smakebuf_r+0x2a>
    1462:	04740793          	addi	a5,s0,71
    1466:	c01c                	sw	a5,0(s0)
    1468:	c81c                	sw	a5,16(s0)
    146a:	4785                	li	a5,1
    146c:	c85c                	sw	a5,20(s0)
    146e:	40f2                	lw	ra,28(sp)
    1470:	4462                	lw	s0,24(sp)
    1472:	44d2                	lw	s1,20(sp)
    1474:	4942                	lw	s2,16(sp)
    1476:	6105                	addi	sp,sp,32
    1478:	8082                	ret
    147a:	0074                	addi	a3,sp,12
    147c:	0030                	addi	a2,sp,8
    147e:	84aa                	mv	s1,a0
    1480:	3fa5                	jal	13f8 <__swhatbuf_r>
    1482:	45a2                	lw	a1,8(sp)
    1484:	892a                	mv	s2,a0
    1486:	8526                	mv	a0,s1
    1488:	2201                	jal	1588 <_malloc_r>
    148a:	e919                	bnez	a0,14a0 <__smakebuf_r+0x50>
    148c:	00c41783          	lh	a5,12(s0)
    1490:	2007f713          	andi	a4,a5,512
    1494:	ff69                	bnez	a4,146e <__smakebuf_r+0x1e>
    1496:	9bf1                	andi	a5,a5,-4
    1498:	0027e793          	ori	a5,a5,2
    149c:	a45e                	sh	a5,12(s0)
    149e:	b7d1                	j	1462 <__smakebuf_r+0x12>
    14a0:	00000797          	auipc	a5,0x0
    14a4:	d9c78793          	addi	a5,a5,-612 # 123c <_cleanup_r>
    14a8:	d49c                	sw	a5,40(s1)
    14aa:	245e                	lhu	a5,12(s0)
    14ac:	c008                	sw	a0,0(s0)
    14ae:	c808                	sw	a0,16(s0)
    14b0:	0807e793          	ori	a5,a5,128
    14b4:	a45e                	sh	a5,12(s0)
    14b6:	47a2                	lw	a5,8(sp)
    14b8:	c85c                	sw	a5,20(s0)
    14ba:	47b2                	lw	a5,12(sp)
    14bc:	cf81                	beqz	a5,14d4 <__smakebuf_r+0x84>
    14be:	00e41583          	lh	a1,14(s0)
    14c2:	8526                	mv	a0,s1
    14c4:	20f000ef          	jal	ra,1ed2 <_isatty_r>
    14c8:	c511                	beqz	a0,14d4 <__smakebuf_r+0x84>
    14ca:	245e                	lhu	a5,12(s0)
    14cc:	9bf1                	andi	a5,a5,-4
    14ce:	0017e793          	ori	a5,a5,1
    14d2:	a45e                	sh	a5,12(s0)
    14d4:	245e                	lhu	a5,12(s0)
    14d6:	00f96933          	or	s2,s2,a5
    14da:	01241623          	sh	s2,12(s0)
    14de:	bf41                	j	146e <__smakebuf_r+0x1e>

000014e0 <_free_r>:
    14e0:	c1dd                	beqz	a1,1586 <_free_r+0xa6>
    14e2:	ffc5a783          	lw	a5,-4(a1)
    14e6:	1141                	addi	sp,sp,-16
    14e8:	c422                	sw	s0,8(sp)
    14ea:	c606                	sw	ra,12(sp)
    14ec:	c226                	sw	s1,4(sp)
    14ee:	ffc58413          	addi	s0,a1,-4
    14f2:	0007d363          	bgez	a5,14f8 <_free_r+0x18>
    14f6:	943e                	add	s0,s0,a5
    14f8:	84aa                	mv	s1,a0
    14fa:	245000ef          	jal	ra,1f3e <__malloc_lock>
    14fe:	82418793          	addi	a5,gp,-2012 # 20000094 <__malloc_free_list>
    1502:	439c                	lw	a5,0(a5)
    1504:	ef81                	bnez	a5,151c <_free_r+0x3c>
    1506:	00042223          	sw	zero,4(s0)
    150a:	8281a223          	sw	s0,-2012(gp) # 20000094 <__malloc_free_list>
    150e:	4422                	lw	s0,8(sp)
    1510:	40b2                	lw	ra,12(sp)
    1512:	8526                	mv	a0,s1
    1514:	4492                	lw	s1,4(sp)
    1516:	0141                	addi	sp,sp,16
    1518:	2290006f          	j	1f40 <__malloc_unlock>
    151c:	00f47e63          	bgeu	s0,a5,1538 <_free_r+0x58>
    1520:	4014                	lw	a3,0(s0)
    1522:	00d40733          	add	a4,s0,a3
    1526:	00e79663          	bne	a5,a4,1532 <_free_r+0x52>
    152a:	4398                	lw	a4,0(a5)
    152c:	43dc                	lw	a5,4(a5)
    152e:	9736                	add	a4,a4,a3
    1530:	c018                	sw	a4,0(s0)
    1532:	c05c                	sw	a5,4(s0)
    1534:	bfd9                	j	150a <_free_r+0x2a>
    1536:	87ba                	mv	a5,a4
    1538:	43d8                	lw	a4,4(a5)
    153a:	c319                	beqz	a4,1540 <_free_r+0x60>
    153c:	fee47de3          	bgeu	s0,a4,1536 <_free_r+0x56>
    1540:	4394                	lw	a3,0(a5)
    1542:	00d78633          	add	a2,a5,a3
    1546:	00861f63          	bne	a2,s0,1564 <_free_r+0x84>
    154a:	4010                	lw	a2,0(s0)
    154c:	96b2                	add	a3,a3,a2
    154e:	c394                	sw	a3,0(a5)
    1550:	00d78633          	add	a2,a5,a3
    1554:	fac71de3          	bne	a4,a2,150e <_free_r+0x2e>
    1558:	4310                	lw	a2,0(a4)
    155a:	4358                	lw	a4,4(a4)
    155c:	96b2                	add	a3,a3,a2
    155e:	c394                	sw	a3,0(a5)
    1560:	c3d8                	sw	a4,4(a5)
    1562:	b775                	j	150e <_free_r+0x2e>
    1564:	00c47563          	bgeu	s0,a2,156e <_free_r+0x8e>
    1568:	47b1                	li	a5,12
    156a:	c09c                	sw	a5,0(s1)
    156c:	b74d                	j	150e <_free_r+0x2e>
    156e:	4010                	lw	a2,0(s0)
    1570:	00c406b3          	add	a3,s0,a2
    1574:	00d71663          	bne	a4,a3,1580 <_free_r+0xa0>
    1578:	4314                	lw	a3,0(a4)
    157a:	4358                	lw	a4,4(a4)
    157c:	96b2                	add	a3,a3,a2
    157e:	c014                	sw	a3,0(s0)
    1580:	c058                	sw	a4,4(s0)
    1582:	c3c0                	sw	s0,4(a5)
    1584:	b769                	j	150e <_free_r+0x2e>
    1586:	8082                	ret

00001588 <_malloc_r>:
    1588:	1101                	addi	sp,sp,-32
    158a:	ca26                	sw	s1,20(sp)
    158c:	00358493          	addi	s1,a1,3
    1590:	98f1                	andi	s1,s1,-4
    1592:	ce06                	sw	ra,28(sp)
    1594:	cc22                	sw	s0,24(sp)
    1596:	c84a                	sw	s2,16(sp)
    1598:	c64e                	sw	s3,12(sp)
    159a:	04a1                	addi	s1,s1,8
    159c:	47b1                	li	a5,12
    159e:	04f4f563          	bgeu	s1,a5,15e8 <_malloc_r+0x60>
    15a2:	44b1                	li	s1,12
    15a4:	04b4e463          	bltu	s1,a1,15ec <_malloc_r+0x64>
    15a8:	892a                	mv	s2,a0
    15aa:	195000ef          	jal	ra,1f3e <__malloc_lock>
    15ae:	82418793          	addi	a5,gp,-2012 # 20000094 <__malloc_free_list>
    15b2:	4398                	lw	a4,0(a5)
    15b4:	843a                	mv	s0,a4
    15b6:	e429                	bnez	s0,1600 <_malloc_r+0x78>
    15b8:	82818793          	addi	a5,gp,-2008 # 20000098 <__malloc_sbrk_start>
    15bc:	439c                	lw	a5,0(a5)
    15be:	e799                	bnez	a5,15cc <_malloc_r+0x44>
    15c0:	4581                	li	a1,0
    15c2:	854a                	mv	a0,s2
    15c4:	7ba000ef          	jal	ra,1d7e <_sbrk_r>
    15c8:	82a1a423          	sw	a0,-2008(gp) # 20000098 <__malloc_sbrk_start>
    15cc:	85a6                	mv	a1,s1
    15ce:	854a                	mv	a0,s2
    15d0:	7ae000ef          	jal	ra,1d7e <_sbrk_r>
    15d4:	59fd                	li	s3,-1
    15d6:	07351963          	bne	a0,s3,1648 <_malloc_r+0xc0>
    15da:	47b1                	li	a5,12
    15dc:	00f92023          	sw	a5,0(s2)
    15e0:	854a                	mv	a0,s2
    15e2:	15f000ef          	jal	ra,1f40 <__malloc_unlock>
    15e6:	a029                	j	15f0 <_malloc_r+0x68>
    15e8:	fa04dee3          	bgez	s1,15a4 <_malloc_r+0x1c>
    15ec:	47b1                	li	a5,12
    15ee:	c11c                	sw	a5,0(a0)
    15f0:	4501                	li	a0,0
    15f2:	40f2                	lw	ra,28(sp)
    15f4:	4462                	lw	s0,24(sp)
    15f6:	44d2                	lw	s1,20(sp)
    15f8:	4942                	lw	s2,16(sp)
    15fa:	49b2                	lw	s3,12(sp)
    15fc:	6105                	addi	sp,sp,32
    15fe:	8082                	ret
    1600:	401c                	lw	a5,0(s0)
    1602:	8f85                	sub	a5,a5,s1
    1604:	0207cf63          	bltz	a5,1642 <_malloc_r+0xba>
    1608:	46ad                	li	a3,11
    160a:	00f6f663          	bgeu	a3,a5,1616 <_malloc_r+0x8e>
    160e:	c01c                	sw	a5,0(s0)
    1610:	943e                	add	s0,s0,a5
    1612:	c004                	sw	s1,0(s0)
    1614:	a031                	j	1620 <_malloc_r+0x98>
    1616:	405c                	lw	a5,4(s0)
    1618:	02871363          	bne	a4,s0,163e <_malloc_r+0xb6>
    161c:	82f1a223          	sw	a5,-2012(gp) # 20000094 <__malloc_free_list>
    1620:	854a                	mv	a0,s2
    1622:	11f000ef          	jal	ra,1f40 <__malloc_unlock>
    1626:	00b40513          	addi	a0,s0,11
    162a:	00440793          	addi	a5,s0,4
    162e:	9961                	andi	a0,a0,-8
    1630:	40f50733          	sub	a4,a0,a5
    1634:	df5d                	beqz	a4,15f2 <_malloc_r+0x6a>
    1636:	943a                	add	s0,s0,a4
    1638:	8f89                	sub	a5,a5,a0
    163a:	c01c                	sw	a5,0(s0)
    163c:	bf5d                	j	15f2 <_malloc_r+0x6a>
    163e:	c35c                	sw	a5,4(a4)
    1640:	b7c5                	j	1620 <_malloc_r+0x98>
    1642:	8722                	mv	a4,s0
    1644:	4040                	lw	s0,4(s0)
    1646:	bf85                	j	15b6 <_malloc_r+0x2e>
    1648:	00350413          	addi	s0,a0,3
    164c:	9871                	andi	s0,s0,-4
    164e:	fc8502e3          	beq	a0,s0,1612 <_malloc_r+0x8a>
    1652:	40a405b3          	sub	a1,s0,a0
    1656:	854a                	mv	a0,s2
    1658:	271d                	jal	1d7e <_sbrk_r>
    165a:	fb351ce3          	bne	a0,s3,1612 <_malloc_r+0x8a>
    165e:	bfb5                	j	15da <_malloc_r+0x52>

00001660 <__sfputc_r>:
    1660:	461c                	lw	a5,8(a2)
    1662:	17fd                	addi	a5,a5,-1
    1664:	c61c                	sw	a5,8(a2)
    1666:	0007da63          	bgez	a5,167a <__sfputc_r+0x1a>
    166a:	4e18                	lw	a4,24(a2)
    166c:	00e7c563          	blt	a5,a4,1676 <__sfputc_r+0x16>
    1670:	47a9                	li	a5,10
    1672:	00f59463          	bne	a1,a5,167a <__sfputc_r+0x1a>
    1676:	815ff06f          	j	e8a <__swbuf_r>
    167a:	421c                	lw	a5,0(a2)
    167c:	852e                	mv	a0,a1
    167e:	00178713          	addi	a4,a5,1
    1682:	c218                	sw	a4,0(a2)
    1684:	a38c                	sb	a1,0(a5)
    1686:	8082                	ret

00001688 <__sfputs_r>:
    1688:	1101                	addi	sp,sp,-32
    168a:	cc22                	sw	s0,24(sp)
    168c:	ca26                	sw	s1,20(sp)
    168e:	c84a                	sw	s2,16(sp)
    1690:	c64e                	sw	s3,12(sp)
    1692:	c452                	sw	s4,8(sp)
    1694:	ce06                	sw	ra,28(sp)
    1696:	892a                	mv	s2,a0
    1698:	89ae                	mv	s3,a1
    169a:	8432                	mv	s0,a2
    169c:	00d604b3          	add	s1,a2,a3
    16a0:	5a7d                	li	s4,-1
    16a2:	00941463          	bne	s0,s1,16aa <__sfputs_r+0x22>
    16a6:	4501                	li	a0,0
    16a8:	a801                	j	16b8 <__sfputs_r+0x30>
    16aa:	200c                	lbu	a1,0(s0)
    16ac:	864e                	mv	a2,s3
    16ae:	854a                	mv	a0,s2
    16b0:	3f45                	jal	1660 <__sfputc_r>
    16b2:	0405                	addi	s0,s0,1
    16b4:	ff4517e3          	bne	a0,s4,16a2 <__sfputs_r+0x1a>
    16b8:	40f2                	lw	ra,28(sp)
    16ba:	4462                	lw	s0,24(sp)
    16bc:	44d2                	lw	s1,20(sp)
    16be:	4942                	lw	s2,16(sp)
    16c0:	49b2                	lw	s3,12(sp)
    16c2:	4a22                	lw	s4,8(sp)
    16c4:	6105                	addi	sp,sp,32
    16c6:	8082                	ret

000016c8 <_vfiprintf_r>:
    16c8:	7135                	addi	sp,sp,-160
    16ca:	cd22                	sw	s0,152(sp)
    16cc:	cb26                	sw	s1,148(sp)
    16ce:	c94a                	sw	s2,144(sp)
    16d0:	c74e                	sw	s3,140(sp)
    16d2:	cf06                	sw	ra,156(sp)
    16d4:	c552                	sw	s4,136(sp)
    16d6:	c356                	sw	s5,132(sp)
    16d8:	c15a                	sw	s6,128(sp)
    16da:	dede                	sw	s7,124(sp)
    16dc:	dce2                	sw	s8,120(sp)
    16de:	dae6                	sw	s9,116(sp)
    16e0:	89aa                	mv	s3,a0
    16e2:	84ae                	mv	s1,a1
    16e4:	8932                	mv	s2,a2
    16e6:	8436                	mv	s0,a3
    16e8:	c501                	beqz	a0,16f0 <_vfiprintf_r+0x28>
    16ea:	4d1c                	lw	a5,24(a0)
    16ec:	e391                	bnez	a5,16f0 <_vfiprintf_r+0x28>
    16ee:	3e79                	jal	128c <__sinit>
    16f0:	00001797          	auipc	a5,0x1
    16f4:	91878793          	addi	a5,a5,-1768 # 2008 <__sf_fake_stdin>
    16f8:	0cf49863          	bne	s1,a5,17c8 <_vfiprintf_r+0x100>
    16fc:	0049a483          	lw	s1,4(s3)
    1700:	24de                	lhu	a5,12(s1)
    1702:	8ba1                	andi	a5,a5,8
    1704:	c7e5                	beqz	a5,17ec <_vfiprintf_r+0x124>
    1706:	489c                	lw	a5,16(s1)
    1708:	c3f5                	beqz	a5,17ec <_vfiprintf_r+0x124>
    170a:	02000793          	li	a5,32
    170e:	02f104a3          	sb	a5,41(sp)
    1712:	03000793          	li	a5,48
    1716:	d202                	sw	zero,36(sp)
    1718:	02f10523          	sb	a5,42(sp)
    171c:	c622                	sw	s0,12(sp)
    171e:	02500b93          	li	s7,37
    1722:	00001a97          	auipc	s5,0x1
    1726:	926a8a93          	addi	s5,s5,-1754 # 2048 <__sf_fake_stdout+0x20>
    172a:	4c05                	li	s8,1
    172c:	4b29                	li	s6,10
    172e:	844a                	mv	s0,s2
    1730:	201c                	lbu	a5,0(s0)
    1732:	c399                	beqz	a5,1738 <_vfiprintf_r+0x70>
    1734:	0d779f63          	bne	a5,s7,1812 <_vfiprintf_r+0x14a>
    1738:	41240cb3          	sub	s9,s0,s2
    173c:	000c8d63          	beqz	s9,1756 <_vfiprintf_r+0x8e>
    1740:	86e6                	mv	a3,s9
    1742:	864a                	mv	a2,s2
    1744:	85a6                	mv	a1,s1
    1746:	854e                	mv	a0,s3
    1748:	3781                	jal	1688 <__sfputs_r>
    174a:	57fd                	li	a5,-1
    174c:	1ef50063          	beq	a0,a5,192c <_vfiprintf_r+0x264>
    1750:	5692                	lw	a3,36(sp)
    1752:	96e6                	add	a3,a3,s9
    1754:	d236                	sw	a3,36(sp)
    1756:	201c                	lbu	a5,0(s0)
    1758:	1c078a63          	beqz	a5,192c <_vfiprintf_r+0x264>
    175c:	57fd                	li	a5,-1
    175e:	00140913          	addi	s2,s0,1
    1762:	c802                	sw	zero,16(sp)
    1764:	ce02                	sw	zero,28(sp)
    1766:	ca3e                	sw	a5,20(sp)
    1768:	cc02                	sw	zero,24(sp)
    176a:	040109a3          	sb	zero,83(sp)
    176e:	d482                	sw	zero,104(sp)
    1770:	00094583          	lbu	a1,0(s2)
    1774:	4615                	li	a2,5
    1776:	8556                	mv	a0,s5
    1778:	7ae000ef          	jal	ra,1f26 <memchr>
    177c:	00190413          	addi	s0,s2,1
    1780:	47c2                	lw	a5,16(sp)
    1782:	e951                	bnez	a0,1816 <_vfiprintf_r+0x14e>
    1784:	0107f713          	andi	a4,a5,16
    1788:	c709                	beqz	a4,1792 <_vfiprintf_r+0xca>
    178a:	02000713          	li	a4,32
    178e:	04e109a3          	sb	a4,83(sp)
    1792:	0087f713          	andi	a4,a5,8
    1796:	c709                	beqz	a4,17a0 <_vfiprintf_r+0xd8>
    1798:	02b00713          	li	a4,43
    179c:	04e109a3          	sb	a4,83(sp)
    17a0:	00094683          	lbu	a3,0(s2)
    17a4:	02a00713          	li	a4,42
    17a8:	06e68f63          	beq	a3,a4,1826 <_vfiprintf_r+0x15e>
    17ac:	47f2                	lw	a5,28(sp)
    17ae:	844a                	mv	s0,s2
    17b0:	4681                	li	a3,0
    17b2:	4625                	li	a2,9
    17b4:	2018                	lbu	a4,0(s0)
    17b6:	00140593          	addi	a1,s0,1
    17ba:	fd070713          	addi	a4,a4,-48 # ffffdfd0 <_eusrstack+0xdfff8fd0>
    17be:	0ae67763          	bgeu	a2,a4,186c <_vfiprintf_r+0x1a4>
    17c2:	cab5                	beqz	a3,1836 <_vfiprintf_r+0x16e>
    17c4:	ce3e                	sw	a5,28(sp)
    17c6:	a885                	j	1836 <_vfiprintf_r+0x16e>
    17c8:	00001797          	auipc	a5,0x1
    17cc:	86078793          	addi	a5,a5,-1952 # 2028 <__sf_fake_stdout>
    17d0:	00f49563          	bne	s1,a5,17da <_vfiprintf_r+0x112>
    17d4:	0089a483          	lw	s1,8(s3)
    17d8:	b725                	j	1700 <_vfiprintf_r+0x38>
    17da:	00001797          	auipc	a5,0x1
    17de:	80e78793          	addi	a5,a5,-2034 # 1fe8 <__sf_fake_stderr>
    17e2:	f0f49fe3          	bne	s1,a5,1700 <_vfiprintf_r+0x38>
    17e6:	00c9a483          	lw	s1,12(s3)
    17ea:	bf19                	j	1700 <_vfiprintf_r+0x38>
    17ec:	85a6                	mv	a1,s1
    17ee:	854e                	mv	a0,s3
    17f0:	f56ff0ef          	jal	ra,f46 <__swsetup_r>
    17f4:	d919                	beqz	a0,170a <_vfiprintf_r+0x42>
    17f6:	557d                	li	a0,-1
    17f8:	40fa                	lw	ra,156(sp)
    17fa:	446a                	lw	s0,152(sp)
    17fc:	44da                	lw	s1,148(sp)
    17fe:	494a                	lw	s2,144(sp)
    1800:	49ba                	lw	s3,140(sp)
    1802:	4a2a                	lw	s4,136(sp)
    1804:	4a9a                	lw	s5,132(sp)
    1806:	4b0a                	lw	s6,128(sp)
    1808:	5bf6                	lw	s7,124(sp)
    180a:	5c66                	lw	s8,120(sp)
    180c:	5cd6                	lw	s9,116(sp)
    180e:	610d                	addi	sp,sp,160
    1810:	8082                	ret
    1812:	0405                	addi	s0,s0,1
    1814:	bf31                	j	1730 <_vfiprintf_r+0x68>
    1816:	41550533          	sub	a0,a0,s5
    181a:	00ac1533          	sll	a0,s8,a0
    181e:	8fc9                	or	a5,a5,a0
    1820:	c83e                	sw	a5,16(sp)
    1822:	8922                	mv	s2,s0
    1824:	b7b1                	j	1770 <_vfiprintf_r+0xa8>
    1826:	4732                	lw	a4,12(sp)
    1828:	00470693          	addi	a3,a4,4
    182c:	4318                	lw	a4,0(a4)
    182e:	c636                	sw	a3,12(sp)
    1830:	02074763          	bltz	a4,185e <_vfiprintf_r+0x196>
    1834:	ce3a                	sw	a4,28(sp)
    1836:	2018                	lbu	a4,0(s0)
    1838:	02e00793          	li	a5,46
    183c:	04f71d63          	bne	a4,a5,1896 <_vfiprintf_r+0x1ce>
    1840:	3018                	lbu	a4,1(s0)
    1842:	02a00793          	li	a5,42
    1846:	02f71b63          	bne	a4,a5,187c <_vfiprintf_r+0x1b4>
    184a:	47b2                	lw	a5,12(sp)
    184c:	0409                	addi	s0,s0,2
    184e:	00478713          	addi	a4,a5,4
    1852:	439c                	lw	a5,0(a5)
    1854:	c63a                	sw	a4,12(sp)
    1856:	0207c163          	bltz	a5,1878 <_vfiprintf_r+0x1b0>
    185a:	ca3e                	sw	a5,20(sp)
    185c:	a82d                	j	1896 <_vfiprintf_r+0x1ce>
    185e:	40e00733          	neg	a4,a4
    1862:	0027e793          	ori	a5,a5,2
    1866:	ce3a                	sw	a4,28(sp)
    1868:	c83e                	sw	a5,16(sp)
    186a:	b7f1                	j	1836 <_vfiprintf_r+0x16e>
    186c:	036787b3          	mul	a5,a5,s6
    1870:	4685                	li	a3,1
    1872:	842e                	mv	s0,a1
    1874:	97ba                	add	a5,a5,a4
    1876:	bf3d                	j	17b4 <_vfiprintf_r+0xec>
    1878:	57fd                	li	a5,-1
    187a:	b7c5                	j	185a <_vfiprintf_r+0x192>
    187c:	0405                	addi	s0,s0,1
    187e:	ca02                	sw	zero,20(sp)
    1880:	4681                	li	a3,0
    1882:	4781                	li	a5,0
    1884:	4625                	li	a2,9
    1886:	2018                	lbu	a4,0(s0)
    1888:	00140593          	addi	a1,s0,1
    188c:	fd070713          	addi	a4,a4,-48
    1890:	06e67463          	bgeu	a2,a4,18f8 <_vfiprintf_r+0x230>
    1894:	f2f9                	bnez	a3,185a <_vfiprintf_r+0x192>
    1896:	200c                	lbu	a1,0(s0)
    1898:	460d                	li	a2,3
    189a:	00000517          	auipc	a0,0x0
    189e:	7b650513          	addi	a0,a0,1974 # 2050 <__sf_fake_stdout+0x28>
    18a2:	2551                	jal	1f26 <memchr>
    18a4:	cd11                	beqz	a0,18c0 <_vfiprintf_r+0x1f8>
    18a6:	00000797          	auipc	a5,0x0
    18aa:	7aa78793          	addi	a5,a5,1962 # 2050 <__sf_fake_stdout+0x28>
    18ae:	8d1d                	sub	a0,a0,a5
    18b0:	04000793          	li	a5,64
    18b4:	00a797b3          	sll	a5,a5,a0
    18b8:	4542                	lw	a0,16(sp)
    18ba:	0405                	addi	s0,s0,1
    18bc:	8d5d                	or	a0,a0,a5
    18be:	c82a                	sw	a0,16(sp)
    18c0:	200c                	lbu	a1,0(s0)
    18c2:	4619                	li	a2,6
    18c4:	00000517          	auipc	a0,0x0
    18c8:	79050513          	addi	a0,a0,1936 # 2054 <__sf_fake_stdout+0x2c>
    18cc:	00140913          	addi	s2,s0,1
    18d0:	02b10423          	sb	a1,40(sp)
    18d4:	2d89                	jal	1f26 <memchr>
    18d6:	c135                	beqz	a0,193a <_vfiprintf_r+0x272>
    18d8:	ffffe797          	auipc	a5,0xffffe
    18dc:	72878793          	addi	a5,a5,1832 # 0 <_sinit>
    18e0:	e795                	bnez	a5,190c <_vfiprintf_r+0x244>
    18e2:	4742                	lw	a4,16(sp)
    18e4:	47b2                	lw	a5,12(sp)
    18e6:	10077713          	andi	a4,a4,256
    18ea:	cf09                	beqz	a4,1904 <_vfiprintf_r+0x23c>
    18ec:	0791                	addi	a5,a5,4
    18ee:	c63e                	sw	a5,12(sp)
    18f0:	5792                	lw	a5,36(sp)
    18f2:	97d2                	add	a5,a5,s4
    18f4:	d23e                	sw	a5,36(sp)
    18f6:	bd25                	j	172e <_vfiprintf_r+0x66>
    18f8:	036787b3          	mul	a5,a5,s6
    18fc:	4685                	li	a3,1
    18fe:	842e                	mv	s0,a1
    1900:	97ba                	add	a5,a5,a4
    1902:	b751                	j	1886 <_vfiprintf_r+0x1be>
    1904:	079d                	addi	a5,a5,7
    1906:	9be1                	andi	a5,a5,-8
    1908:	07a1                	addi	a5,a5,8
    190a:	b7d5                	j	18ee <_vfiprintf_r+0x226>
    190c:	0078                	addi	a4,sp,12
    190e:	00000697          	auipc	a3,0x0
    1912:	d7a68693          	addi	a3,a3,-646 # 1688 <__sfputs_r>
    1916:	8626                	mv	a2,s1
    1918:	080c                	addi	a1,sp,16
    191a:	854e                	mv	a0,s3
    191c:	00000097          	auipc	ra,0x0
    1920:	000000e7          	jalr	zero # 0 <_sinit>
    1924:	57fd                	li	a5,-1
    1926:	8a2a                	mv	s4,a0
    1928:	fcf514e3          	bne	a0,a5,18f0 <_vfiprintf_r+0x228>
    192c:	24de                	lhu	a5,12(s1)
    192e:	0407f793          	andi	a5,a5,64
    1932:	ec0792e3          	bnez	a5,17f6 <_vfiprintf_r+0x12e>
    1936:	5512                	lw	a0,36(sp)
    1938:	b5c1                	j	17f8 <_vfiprintf_r+0x130>
    193a:	0078                	addi	a4,sp,12
    193c:	00000697          	auipc	a3,0x0
    1940:	d4c68693          	addi	a3,a3,-692 # 1688 <__sfputs_r>
    1944:	8626                	mv	a2,s1
    1946:	080c                	addi	a1,sp,16
    1948:	854e                	mv	a0,s3
    194a:	2a01                	jal	1a5a <_printf_i>
    194c:	bfe1                	j	1924 <_vfiprintf_r+0x25c>

0000194e <_printf_common>:
    194e:	7179                	addi	sp,sp,-48
    1950:	ca56                	sw	s5,20(sp)
    1952:	499c                	lw	a5,16(a1)
    1954:	8aba                	mv	s5,a4
    1956:	4598                	lw	a4,8(a1)
    1958:	d422                	sw	s0,40(sp)
    195a:	d226                	sw	s1,36(sp)
    195c:	ce4e                	sw	s3,28(sp)
    195e:	cc52                	sw	s4,24(sp)
    1960:	d606                	sw	ra,44(sp)
    1962:	d04a                	sw	s2,32(sp)
    1964:	c85a                	sw	s6,16(sp)
    1966:	c65e                	sw	s7,12(sp)
    1968:	89aa                	mv	s3,a0
    196a:	842e                	mv	s0,a1
    196c:	84b2                	mv	s1,a2
    196e:	8a36                	mv	s4,a3
    1970:	00e7d363          	bge	a5,a4,1976 <_printf_common+0x28>
    1974:	87ba                	mv	a5,a4
    1976:	c09c                	sw	a5,0(s1)
    1978:	04344703          	lbu	a4,67(s0)
    197c:	c319                	beqz	a4,1982 <_printf_common+0x34>
    197e:	0785                	addi	a5,a5,1
    1980:	c09c                	sw	a5,0(s1)
    1982:	401c                	lw	a5,0(s0)
    1984:	0207f793          	andi	a5,a5,32
    1988:	c781                	beqz	a5,1990 <_printf_common+0x42>
    198a:	409c                	lw	a5,0(s1)
    198c:	0789                	addi	a5,a5,2
    198e:	c09c                	sw	a5,0(s1)
    1990:	00042903          	lw	s2,0(s0)
    1994:	00697913          	andi	s2,s2,6
    1998:	00091a63          	bnez	s2,19ac <_printf_common+0x5e>
    199c:	01940b13          	addi	s6,s0,25
    19a0:	5bfd                	li	s7,-1
    19a2:	445c                	lw	a5,12(s0)
    19a4:	4098                	lw	a4,0(s1)
    19a6:	8f99                	sub	a5,a5,a4
    19a8:	04f94c63          	blt	s2,a5,1a00 <_printf_common+0xb2>
    19ac:	401c                	lw	a5,0(s0)
    19ae:	04344683          	lbu	a3,67(s0)
    19b2:	0207f793          	andi	a5,a5,32
    19b6:	00d036b3          	snez	a3,a3
    19ba:	eba5                	bnez	a5,1a2a <_printf_common+0xdc>
    19bc:	04340613          	addi	a2,s0,67
    19c0:	85d2                	mv	a1,s4
    19c2:	854e                	mv	a0,s3
    19c4:	9a82                	jalr	s5
    19c6:	57fd                	li	a5,-1
    19c8:	04f50363          	beq	a0,a5,1a0e <_printf_common+0xc0>
    19cc:	401c                	lw	a5,0(s0)
    19ce:	4611                	li	a2,4
    19d0:	4098                	lw	a4,0(s1)
    19d2:	8b99                	andi	a5,a5,6
    19d4:	4454                	lw	a3,12(s0)
    19d6:	4481                	li	s1,0
    19d8:	00c79763          	bne	a5,a2,19e6 <_printf_common+0x98>
    19dc:	40e684b3          	sub	s1,a3,a4
    19e0:	0004d363          	bgez	s1,19e6 <_printf_common+0x98>
    19e4:	4481                	li	s1,0
    19e6:	441c                	lw	a5,8(s0)
    19e8:	4818                	lw	a4,16(s0)
    19ea:	00f75463          	bge	a4,a5,19f2 <_printf_common+0xa4>
    19ee:	8f99                	sub	a5,a5,a4
    19f0:	94be                	add	s1,s1,a5
    19f2:	4901                	li	s2,0
    19f4:	0469                	addi	s0,s0,26
    19f6:	5b7d                	li	s6,-1
    19f8:	05249863          	bne	s1,s2,1a48 <_printf_common+0xfa>
    19fc:	4501                	li	a0,0
    19fe:	a809                	j	1a10 <_printf_common+0xc2>
    1a00:	4685                	li	a3,1
    1a02:	865a                	mv	a2,s6
    1a04:	85d2                	mv	a1,s4
    1a06:	854e                	mv	a0,s3
    1a08:	9a82                	jalr	s5
    1a0a:	01751e63          	bne	a0,s7,1a26 <_printf_common+0xd8>
    1a0e:	557d                	li	a0,-1
    1a10:	50b2                	lw	ra,44(sp)
    1a12:	5422                	lw	s0,40(sp)
    1a14:	5492                	lw	s1,36(sp)
    1a16:	5902                	lw	s2,32(sp)
    1a18:	49f2                	lw	s3,28(sp)
    1a1a:	4a62                	lw	s4,24(sp)
    1a1c:	4ad2                	lw	s5,20(sp)
    1a1e:	4b42                	lw	s6,16(sp)
    1a20:	4bb2                	lw	s7,12(sp)
    1a22:	6145                	addi	sp,sp,48
    1a24:	8082                	ret
    1a26:	0905                	addi	s2,s2,1
    1a28:	bfad                	j	19a2 <_printf_common+0x54>
    1a2a:	00d40733          	add	a4,s0,a3
    1a2e:	03000613          	li	a2,48
    1a32:	04c701a3          	sb	a2,67(a4)
    1a36:	04544703          	lbu	a4,69(s0)
    1a3a:	00168793          	addi	a5,a3,1
    1a3e:	97a2                	add	a5,a5,s0
    1a40:	0689                	addi	a3,a3,2
    1a42:	04e781a3          	sb	a4,67(a5)
    1a46:	bf9d                	j	19bc <_printf_common+0x6e>
    1a48:	4685                	li	a3,1
    1a4a:	8622                	mv	a2,s0
    1a4c:	85d2                	mv	a1,s4
    1a4e:	854e                	mv	a0,s3
    1a50:	9a82                	jalr	s5
    1a52:	fb650ee3          	beq	a0,s6,1a0e <_printf_common+0xc0>
    1a56:	0905                	addi	s2,s2,1
    1a58:	b745                	j	19f8 <_printf_common+0xaa>

00001a5a <_printf_i>:
    1a5a:	7179                	addi	sp,sp,-48
    1a5c:	d422                	sw	s0,40(sp)
    1a5e:	d226                	sw	s1,36(sp)
    1a60:	d04a                	sw	s2,32(sp)
    1a62:	ce4e                	sw	s3,28(sp)
    1a64:	d606                	sw	ra,44(sp)
    1a66:	cc52                	sw	s4,24(sp)
    1a68:	ca56                	sw	s5,20(sp)
    1a6a:	c85a                	sw	s6,16(sp)
    1a6c:	89b6                	mv	s3,a3
    1a6e:	2d94                	lbu	a3,24(a1)
    1a70:	06900793          	li	a5,105
    1a74:	8932                	mv	s2,a2
    1a76:	84aa                	mv	s1,a0
    1a78:	842e                	mv	s0,a1
    1a7a:	04358613          	addi	a2,a1,67
    1a7e:	02f68d63          	beq	a3,a5,1ab8 <_printf_i+0x5e>
    1a82:	06d7e263          	bltu	a5,a3,1ae6 <_printf_i+0x8c>
    1a86:	05800793          	li	a5,88
    1a8a:	18f68563          	beq	a3,a5,1c14 <_printf_i+0x1ba>
    1a8e:	00d7ed63          	bltu	a5,a3,1aa8 <_printf_i+0x4e>
    1a92:	20068d63          	beqz	a3,1cac <_printf_i+0x252>
    1a96:	04300793          	li	a5,67
    1a9a:	0af68e63          	beq	a3,a5,1b56 <_printf_i+0xfc>
    1a9e:	04240a93          	addi	s5,s0,66
    1aa2:	04d40123          	sb	a3,66(s0)
    1aa6:	a0c9                	j	1b68 <_printf_i+0x10e>
    1aa8:	06300793          	li	a5,99
    1aac:	0af68563          	beq	a3,a5,1b56 <_printf_i+0xfc>
    1ab0:	06400793          	li	a5,100
    1ab4:	fef695e3          	bne	a3,a5,1a9e <_printf_i+0x44>
    1ab8:	401c                	lw	a5,0(s0)
    1aba:	4308                	lw	a0,0(a4)
    1abc:	0807f693          	andi	a3,a5,128
    1ac0:	00450593          	addi	a1,a0,4
    1ac4:	c6c5                	beqz	a3,1b6c <_printf_i+0x112>
    1ac6:	411c                	lw	a5,0(a0)
    1ac8:	c30c                	sw	a1,0(a4)
    1aca:	0007d863          	bgez	a5,1ada <_printf_i+0x80>
    1ace:	02d00713          	li	a4,45
    1ad2:	40f007b3          	neg	a5,a5
    1ad6:	04e401a3          	sb	a4,67(s0)
    1ada:	00000697          	auipc	a3,0x0
    1ade:	58268693          	addi	a3,a3,1410 # 205c <__sf_fake_stdout+0x34>
    1ae2:	4729                	li	a4,10
    1ae4:	a865                	j	1b9c <_printf_i+0x142>
    1ae6:	07000793          	li	a5,112
    1aea:	16f68163          	beq	a3,a5,1c4c <_printf_i+0x1f2>
    1aee:	02d7e563          	bltu	a5,a3,1b18 <_printf_i+0xbe>
    1af2:	06e00793          	li	a5,110
    1af6:	18f68863          	beq	a3,a5,1c86 <_printf_i+0x22c>
    1afa:	06f00793          	li	a5,111
    1afe:	faf690e3          	bne	a3,a5,1a9e <_printf_i+0x44>
    1b02:	400c                	lw	a1,0(s0)
    1b04:	431c                	lw	a5,0(a4)
    1b06:	0805f813          	andi	a6,a1,128
    1b0a:	00478513          	addi	a0,a5,4
    1b0e:	06080763          	beqz	a6,1b7c <_printf_i+0x122>
    1b12:	c308                	sw	a0,0(a4)
    1b14:	439c                	lw	a5,0(a5)
    1b16:	a885                	j	1b86 <_printf_i+0x12c>
    1b18:	07500793          	li	a5,117
    1b1c:	fef683e3          	beq	a3,a5,1b02 <_printf_i+0xa8>
    1b20:	07800793          	li	a5,120
    1b24:	12f68863          	beq	a3,a5,1c54 <_printf_i+0x1fa>
    1b28:	07300793          	li	a5,115
    1b2c:	f6f699e3          	bne	a3,a5,1a9e <_printf_i+0x44>
    1b30:	431c                	lw	a5,0(a4)
    1b32:	41d0                	lw	a2,4(a1)
    1b34:	4581                	li	a1,0
    1b36:	00478693          	addi	a3,a5,4
    1b3a:	c314                	sw	a3,0(a4)
    1b3c:	0007aa83          	lw	s5,0(a5)
    1b40:	8556                	mv	a0,s5
    1b42:	26d5                	jal	1f26 <memchr>
    1b44:	c501                	beqz	a0,1b4c <_printf_i+0xf2>
    1b46:	41550533          	sub	a0,a0,s5
    1b4a:	c048                	sw	a0,4(s0)
    1b4c:	405c                	lw	a5,4(s0)
    1b4e:	c81c                	sw	a5,16(s0)
    1b50:	040401a3          	sb	zero,67(s0)
    1b54:	a861                	j	1bec <_printf_i+0x192>
    1b56:	431c                	lw	a5,0(a4)
    1b58:	04240a93          	addi	s5,s0,66
    1b5c:	00478693          	addi	a3,a5,4
    1b60:	439c                	lw	a5,0(a5)
    1b62:	c314                	sw	a3,0(a4)
    1b64:	04f40123          	sb	a5,66(s0)
    1b68:	4785                	li	a5,1
    1b6a:	b7d5                	j	1b4e <_printf_i+0xf4>
    1b6c:	0407f693          	andi	a3,a5,64
    1b70:	411c                	lw	a5,0(a0)
    1b72:	c30c                	sw	a1,0(a4)
    1b74:	dab9                	beqz	a3,1aca <_printf_i+0x70>
    1b76:	07c2                	slli	a5,a5,0x10
    1b78:	87c1                	srai	a5,a5,0x10
    1b7a:	bf81                	j	1aca <_printf_i+0x70>
    1b7c:	0405f593          	andi	a1,a1,64
    1b80:	c308                	sw	a0,0(a4)
    1b82:	d9c9                	beqz	a1,1b14 <_printf_i+0xba>
    1b84:	239e                	lhu	a5,0(a5)
    1b86:	06f00713          	li	a4,111
    1b8a:	0ee68663          	beq	a3,a4,1c76 <_printf_i+0x21c>
    1b8e:	00000697          	auipc	a3,0x0
    1b92:	4ce68693          	addi	a3,a3,1230 # 205c <__sf_fake_stdout+0x34>
    1b96:	4729                	li	a4,10
    1b98:	040401a3          	sb	zero,67(s0)
    1b9c:	404c                	lw	a1,4(s0)
    1b9e:	c40c                	sw	a1,8(s0)
    1ba0:	0005c563          	bltz	a1,1baa <_printf_i+0x150>
    1ba4:	4008                	lw	a0,0(s0)
    1ba6:	996d                	andi	a0,a0,-5
    1ba8:	c008                	sw	a0,0(s0)
    1baa:	e399                	bnez	a5,1bb0 <_printf_i+0x156>
    1bac:	8ab2                	mv	s5,a2
    1bae:	cd89                	beqz	a1,1bc8 <_printf_i+0x16e>
    1bb0:	8ab2                	mv	s5,a2
    1bb2:	02e7f5b3          	remu	a1,a5,a4
    1bb6:	1afd                	addi	s5,s5,-1
    1bb8:	95b6                	add	a1,a1,a3
    1bba:	218c                	lbu	a1,0(a1)
    1bbc:	00ba8023          	sb	a1,0(s5)
    1bc0:	02e7d5b3          	divu	a1,a5,a4
    1bc4:	0ae7ff63          	bgeu	a5,a4,1c82 <_printf_i+0x228>
    1bc8:	47a1                	li	a5,8
    1bca:	00f71e63          	bne	a4,a5,1be6 <_printf_i+0x18c>
    1bce:	401c                	lw	a5,0(s0)
    1bd0:	8b85                	andi	a5,a5,1
    1bd2:	cb91                	beqz	a5,1be6 <_printf_i+0x18c>
    1bd4:	4058                	lw	a4,4(s0)
    1bd6:	481c                	lw	a5,16(s0)
    1bd8:	00e7c763          	blt	a5,a4,1be6 <_printf_i+0x18c>
    1bdc:	03000793          	li	a5,48
    1be0:	fefa8fa3          	sb	a5,-1(s5)
    1be4:	1afd                	addi	s5,s5,-1
    1be6:	41560633          	sub	a2,a2,s5
    1bea:	c810                	sw	a2,16(s0)
    1bec:	874e                	mv	a4,s3
    1bee:	86ca                	mv	a3,s2
    1bf0:	0070                	addi	a2,sp,12
    1bf2:	85a2                	mv	a1,s0
    1bf4:	8526                	mv	a0,s1
    1bf6:	3ba1                	jal	194e <_printf_common>
    1bf8:	5a7d                	li	s4,-1
    1bfa:	0b451d63          	bne	a0,s4,1cb4 <_printf_i+0x25a>
    1bfe:	557d                	li	a0,-1
    1c00:	50b2                	lw	ra,44(sp)
    1c02:	5422                	lw	s0,40(sp)
    1c04:	5492                	lw	s1,36(sp)
    1c06:	5902                	lw	s2,32(sp)
    1c08:	49f2                	lw	s3,28(sp)
    1c0a:	4a62                	lw	s4,24(sp)
    1c0c:	4ad2                	lw	s5,20(sp)
    1c0e:	4b42                	lw	s6,16(sp)
    1c10:	6145                	addi	sp,sp,48
    1c12:	8082                	ret
    1c14:	04d582a3          	sb	a3,69(a1)
    1c18:	00000697          	auipc	a3,0x0
    1c1c:	44468693          	addi	a3,a3,1092 # 205c <__sf_fake_stdout+0x34>
    1c20:	400c                	lw	a1,0(s0)
    1c22:	4308                	lw	a0,0(a4)
    1c24:	0805f813          	andi	a6,a1,128
    1c28:	411c                	lw	a5,0(a0)
    1c2a:	0511                	addi	a0,a0,4
    1c2c:	02080d63          	beqz	a6,1c66 <_printf_i+0x20c>
    1c30:	c308                	sw	a0,0(a4)
    1c32:	0015f713          	andi	a4,a1,1
    1c36:	c701                	beqz	a4,1c3e <_printf_i+0x1e4>
    1c38:	0205e593          	ori	a1,a1,32
    1c3c:	c00c                	sw	a1,0(s0)
    1c3e:	4741                	li	a4,16
    1c40:	ffa1                	bnez	a5,1b98 <_printf_i+0x13e>
    1c42:	400c                	lw	a1,0(s0)
    1c44:	fdf5f593          	andi	a1,a1,-33
    1c48:	c00c                	sw	a1,0(s0)
    1c4a:	b7b9                	j	1b98 <_printf_i+0x13e>
    1c4c:	419c                	lw	a5,0(a1)
    1c4e:	0207e793          	ori	a5,a5,32
    1c52:	c19c                	sw	a5,0(a1)
    1c54:	07800793          	li	a5,120
    1c58:	04f402a3          	sb	a5,69(s0)
    1c5c:	00000697          	auipc	a3,0x0
    1c60:	41468693          	addi	a3,a3,1044 # 2070 <__sf_fake_stdout+0x48>
    1c64:	bf75                	j	1c20 <_printf_i+0x1c6>
    1c66:	0405f813          	andi	a6,a1,64
    1c6a:	c308                	sw	a0,0(a4)
    1c6c:	fc0803e3          	beqz	a6,1c32 <_printf_i+0x1d8>
    1c70:	07c2                	slli	a5,a5,0x10
    1c72:	83c1                	srli	a5,a5,0x10
    1c74:	bf7d                	j	1c32 <_printf_i+0x1d8>
    1c76:	00000697          	auipc	a3,0x0
    1c7a:	3e668693          	addi	a3,a3,998 # 205c <__sf_fake_stdout+0x34>
    1c7e:	4721                	li	a4,8
    1c80:	bf21                	j	1b98 <_printf_i+0x13e>
    1c82:	87ae                	mv	a5,a1
    1c84:	b73d                	j	1bb2 <_printf_i+0x158>
    1c86:	4194                	lw	a3,0(a1)
    1c88:	431c                	lw	a5,0(a4)
    1c8a:	49cc                	lw	a1,20(a1)
    1c8c:	0806f813          	andi	a6,a3,128
    1c90:	00478513          	addi	a0,a5,4
    1c94:	00080663          	beqz	a6,1ca0 <_printf_i+0x246>
    1c98:	c308                	sw	a0,0(a4)
    1c9a:	439c                	lw	a5,0(a5)
    1c9c:	c38c                	sw	a1,0(a5)
    1c9e:	a039                	j	1cac <_printf_i+0x252>
    1ca0:	c308                	sw	a0,0(a4)
    1ca2:	0406f693          	andi	a3,a3,64
    1ca6:	439c                	lw	a5,0(a5)
    1ca8:	daf5                	beqz	a3,1c9c <_printf_i+0x242>
    1caa:	a38e                	sh	a1,0(a5)
    1cac:	00042823          	sw	zero,16(s0)
    1cb0:	8ab2                	mv	s5,a2
    1cb2:	bf2d                	j	1bec <_printf_i+0x192>
    1cb4:	4814                	lw	a3,16(s0)
    1cb6:	8656                	mv	a2,s5
    1cb8:	85ca                	mv	a1,s2
    1cba:	8526                	mv	a0,s1
    1cbc:	9982                	jalr	s3
    1cbe:	f54500e3          	beq	a0,s4,1bfe <_printf_i+0x1a4>
    1cc2:	401c                	lw	a5,0(s0)
    1cc4:	8b89                	andi	a5,a5,2
    1cc6:	e78d                	bnez	a5,1cf0 <_printf_i+0x296>
    1cc8:	47b2                	lw	a5,12(sp)
    1cca:	4448                	lw	a0,12(s0)
    1ccc:	f2f55ae3          	bge	a0,a5,1c00 <_printf_i+0x1a6>
    1cd0:	853e                	mv	a0,a5
    1cd2:	b73d                	j	1c00 <_printf_i+0x1a6>
    1cd4:	4685                	li	a3,1
    1cd6:	8656                	mv	a2,s5
    1cd8:	85ca                	mv	a1,s2
    1cda:	8526                	mv	a0,s1
    1cdc:	9982                	jalr	s3
    1cde:	f36500e3          	beq	a0,s6,1bfe <_printf_i+0x1a4>
    1ce2:	0a05                	addi	s4,s4,1
    1ce4:	445c                	lw	a5,12(s0)
    1ce6:	4732                	lw	a4,12(sp)
    1ce8:	8f99                	sub	a5,a5,a4
    1cea:	fefa45e3          	blt	s4,a5,1cd4 <_printf_i+0x27a>
    1cee:	bfe9                	j	1cc8 <_printf_i+0x26e>
    1cf0:	4a01                	li	s4,0
    1cf2:	01940a93          	addi	s5,s0,25
    1cf6:	5b7d                	li	s6,-1
    1cf8:	b7f5                	j	1ce4 <_printf_i+0x28a>

00001cfa <_putc_r>:
    1cfa:	1101                	addi	sp,sp,-32
    1cfc:	cc22                	sw	s0,24(sp)
    1cfe:	ce06                	sw	ra,28(sp)
    1d00:	842a                	mv	s0,a0
    1d02:	c909                	beqz	a0,1d14 <_putc_r+0x1a>
    1d04:	4d1c                	lw	a5,24(a0)
    1d06:	e799                	bnez	a5,1d14 <_putc_r+0x1a>
    1d08:	c632                	sw	a2,12(sp)
    1d0a:	c42e                	sw	a1,8(sp)
    1d0c:	d80ff0ef          	jal	ra,128c <__sinit>
    1d10:	4632                	lw	a2,12(sp)
    1d12:	45a2                	lw	a1,8(sp)
    1d14:	00000797          	auipc	a5,0x0
    1d18:	2f478793          	addi	a5,a5,756 # 2008 <__sf_fake_stdin>
    1d1c:	02f61663          	bne	a2,a5,1d48 <_putc_r+0x4e>
    1d20:	4050                	lw	a2,4(s0)
    1d22:	461c                	lw	a5,8(a2)
    1d24:	17fd                	addi	a5,a5,-1
    1d26:	c61c                	sw	a5,8(a2)
    1d28:	0407d063          	bgez	a5,1d68 <_putc_r+0x6e>
    1d2c:	4e18                	lw	a4,24(a2)
    1d2e:	00e7c763          	blt	a5,a4,1d3c <_putc_r+0x42>
    1d32:	0ff5f793          	andi	a5,a1,255
    1d36:	4729                	li	a4,10
    1d38:	02e79863          	bne	a5,a4,1d68 <_putc_r+0x6e>
    1d3c:	8522                	mv	a0,s0
    1d3e:	4462                	lw	s0,24(sp)
    1d40:	40f2                	lw	ra,28(sp)
    1d42:	6105                	addi	sp,sp,32
    1d44:	946ff06f          	j	e8a <__swbuf_r>
    1d48:	00000797          	auipc	a5,0x0
    1d4c:	2e078793          	addi	a5,a5,736 # 2028 <__sf_fake_stdout>
    1d50:	00f61463          	bne	a2,a5,1d58 <_putc_r+0x5e>
    1d54:	4410                	lw	a2,8(s0)
    1d56:	b7f1                	j	1d22 <_putc_r+0x28>
    1d58:	00000797          	auipc	a5,0x0
    1d5c:	29078793          	addi	a5,a5,656 # 1fe8 <__sf_fake_stderr>
    1d60:	fcf611e3          	bne	a2,a5,1d22 <_putc_r+0x28>
    1d64:	4450                	lw	a2,12(s0)
    1d66:	bf75                	j	1d22 <_putc_r+0x28>
    1d68:	421c                	lw	a5,0(a2)
    1d6a:	0ff5f513          	andi	a0,a1,255
    1d6e:	00178713          	addi	a4,a5,1
    1d72:	c218                	sw	a4,0(a2)
    1d74:	a38c                	sb	a1,0(a5)
    1d76:	40f2                	lw	ra,28(sp)
    1d78:	4462                	lw	s0,24(sp)
    1d7a:	6105                	addi	sp,sp,32
    1d7c:	8082                	ret

00001d7e <_sbrk_r>:
    1d7e:	1141                	addi	sp,sp,-16
    1d80:	c422                	sw	s0,8(sp)
    1d82:	842a                	mv	s0,a0
    1d84:	852e                	mv	a0,a1
    1d86:	d201ac23          	sw	zero,-712(gp) # 200005a8 <errno>
    1d8a:	c606                	sw	ra,12(sp)
    1d8c:	edffe0ef          	jal	ra,c6a <_sbrk>
    1d90:	57fd                	li	a5,-1
    1d92:	00f51763          	bne	a0,a5,1da0 <_sbrk_r+0x22>
    1d96:	d3818793          	addi	a5,gp,-712 # 200005a8 <errno>
    1d9a:	439c                	lw	a5,0(a5)
    1d9c:	c391                	beqz	a5,1da0 <_sbrk_r+0x22>
    1d9e:	c01c                	sw	a5,0(s0)
    1da0:	40b2                	lw	ra,12(sp)
    1da2:	4422                	lw	s0,8(sp)
    1da4:	0141                	addi	sp,sp,16
    1da6:	8082                	ret

00001da8 <__sread>:
    1da8:	1141                	addi	sp,sp,-16
    1daa:	c422                	sw	s0,8(sp)
    1dac:	842e                	mv	s0,a1
    1dae:	00e59583          	lh	a1,14(a1)
    1db2:	c606                	sw	ra,12(sp)
    1db4:	2279                	jal	1f42 <_read_r>
    1db6:	00054963          	bltz	a0,1dc8 <__sread+0x20>
    1dba:	487c                	lw	a5,84(s0)
    1dbc:	97aa                	add	a5,a5,a0
    1dbe:	c87c                	sw	a5,84(s0)
    1dc0:	40b2                	lw	ra,12(sp)
    1dc2:	4422                	lw	s0,8(sp)
    1dc4:	0141                	addi	sp,sp,16
    1dc6:	8082                	ret
    1dc8:	245e                	lhu	a5,12(s0)
    1dca:	777d                	lui	a4,0xfffff
    1dcc:	177d                	addi	a4,a4,-1
    1dce:	8ff9                	and	a5,a5,a4
    1dd0:	a45e                	sh	a5,12(s0)
    1dd2:	b7fd                	j	1dc0 <__sread+0x18>

00001dd4 <__swrite>:
    1dd4:	25de                	lhu	a5,12(a1)
    1dd6:	1101                	addi	sp,sp,-32
    1dd8:	cc22                	sw	s0,24(sp)
    1dda:	ca26                	sw	s1,20(sp)
    1ddc:	c84a                	sw	s2,16(sp)
    1dde:	c64e                	sw	s3,12(sp)
    1de0:	ce06                	sw	ra,28(sp)
    1de2:	1007f793          	andi	a5,a5,256
    1de6:	84aa                	mv	s1,a0
    1de8:	842e                	mv	s0,a1
    1dea:	8932                	mv	s2,a2
    1dec:	89b6                	mv	s3,a3
    1dee:	c791                	beqz	a5,1dfa <__swrite+0x26>
    1df0:	00e59583          	lh	a1,14(a1)
    1df4:	4689                	li	a3,2
    1df6:	4601                	li	a2,0
    1df8:	2209                	jal	1efa <_lseek_r>
    1dfa:	245e                	lhu	a5,12(s0)
    1dfc:	777d                	lui	a4,0xfffff
    1dfe:	177d                	addi	a4,a4,-1
    1e00:	8ff9                	and	a5,a5,a4
    1e02:	a45e                	sh	a5,12(s0)
    1e04:	00e41583          	lh	a1,14(s0)
    1e08:	4462                	lw	s0,24(sp)
    1e0a:	40f2                	lw	ra,28(sp)
    1e0c:	86ce                	mv	a3,s3
    1e0e:	864a                	mv	a2,s2
    1e10:	49b2                	lw	s3,12(sp)
    1e12:	4942                	lw	s2,16(sp)
    1e14:	8526                	mv	a0,s1
    1e16:	44d2                	lw	s1,20(sp)
    1e18:	6105                	addi	sp,sp,32
    1e1a:	a825                	j	1e52 <_write_r>

00001e1c <__sseek>:
    1e1c:	1141                	addi	sp,sp,-16
    1e1e:	c422                	sw	s0,8(sp)
    1e20:	842e                	mv	s0,a1
    1e22:	00e59583          	lh	a1,14(a1)
    1e26:	c606                	sw	ra,12(sp)
    1e28:	28c9                	jal	1efa <_lseek_r>
    1e2a:	57fd                	li	a5,-1
    1e2c:	245a                	lhu	a4,12(s0)
    1e2e:	00f51a63          	bne	a0,a5,1e42 <__sseek+0x26>
    1e32:	77fd                	lui	a5,0xfffff
    1e34:	17fd                	addi	a5,a5,-1
    1e36:	8ff9                	and	a5,a5,a4
    1e38:	a45e                	sh	a5,12(s0)
    1e3a:	40b2                	lw	ra,12(sp)
    1e3c:	4422                	lw	s0,8(sp)
    1e3e:	0141                	addi	sp,sp,16
    1e40:	8082                	ret
    1e42:	6785                	lui	a5,0x1
    1e44:	8fd9                	or	a5,a5,a4
    1e46:	a45e                	sh	a5,12(s0)
    1e48:	c868                	sw	a0,84(s0)
    1e4a:	bfc5                	j	1e3a <__sseek+0x1e>

00001e4c <__sclose>:
    1e4c:	00e59583          	lh	a1,14(a1)
    1e50:	a805                	j	1e80 <_close_r>

00001e52 <_write_r>:
    1e52:	1141                	addi	sp,sp,-16
    1e54:	c422                	sw	s0,8(sp)
    1e56:	842a                	mv	s0,a0
    1e58:	852e                	mv	a0,a1
    1e5a:	85b2                	mv	a1,a2
    1e5c:	8636                	mv	a2,a3
    1e5e:	d201ac23          	sw	zero,-712(gp) # 200005a8 <errno>
    1e62:	c606                	sw	ra,12(sp)
    1e64:	dcdfe0ef          	jal	ra,c30 <_write>
    1e68:	57fd                	li	a5,-1
    1e6a:	00f51763          	bne	a0,a5,1e78 <_write_r+0x26>
    1e6e:	d3818793          	addi	a5,gp,-712 # 200005a8 <errno>
    1e72:	439c                	lw	a5,0(a5)
    1e74:	c391                	beqz	a5,1e78 <_write_r+0x26>
    1e76:	c01c                	sw	a5,0(s0)
    1e78:	40b2                	lw	ra,12(sp)
    1e7a:	4422                	lw	s0,8(sp)
    1e7c:	0141                	addi	sp,sp,16
    1e7e:	8082                	ret

00001e80 <_close_r>:
    1e80:	1141                	addi	sp,sp,-16
    1e82:	c422                	sw	s0,8(sp)
    1e84:	842a                	mv	s0,a0
    1e86:	852e                	mv	a0,a1
    1e88:	d201ac23          	sw	zero,-712(gp) # 200005a8 <errno>
    1e8c:	c606                	sw	ra,12(sp)
    1e8e:	20c5                	jal	1f6e <_close>
    1e90:	57fd                	li	a5,-1
    1e92:	00f51763          	bne	a0,a5,1ea0 <_close_r+0x20>
    1e96:	d3818793          	addi	a5,gp,-712 # 200005a8 <errno>
    1e9a:	439c                	lw	a5,0(a5)
    1e9c:	c391                	beqz	a5,1ea0 <_close_r+0x20>
    1e9e:	c01c                	sw	a5,0(s0)
    1ea0:	40b2                	lw	ra,12(sp)
    1ea2:	4422                	lw	s0,8(sp)
    1ea4:	0141                	addi	sp,sp,16
    1ea6:	8082                	ret

00001ea8 <_fstat_r>:
    1ea8:	1141                	addi	sp,sp,-16
    1eaa:	c422                	sw	s0,8(sp)
    1eac:	842a                	mv	s0,a0
    1eae:	852e                	mv	a0,a1
    1eb0:	85b2                	mv	a1,a2
    1eb2:	d201ac23          	sw	zero,-712(gp) # 200005a8 <errno>
    1eb6:	c606                	sw	ra,12(sp)
    1eb8:	20c9                	jal	1f7a <_fstat>
    1eba:	57fd                	li	a5,-1
    1ebc:	00f51763          	bne	a0,a5,1eca <_fstat_r+0x22>
    1ec0:	d3818793          	addi	a5,gp,-712 # 200005a8 <errno>
    1ec4:	439c                	lw	a5,0(a5)
    1ec6:	c391                	beqz	a5,1eca <_fstat_r+0x22>
    1ec8:	c01c                	sw	a5,0(s0)
    1eca:	40b2                	lw	ra,12(sp)
    1ecc:	4422                	lw	s0,8(sp)
    1ece:	0141                	addi	sp,sp,16
    1ed0:	8082                	ret

00001ed2 <_isatty_r>:
    1ed2:	1141                	addi	sp,sp,-16
    1ed4:	c422                	sw	s0,8(sp)
    1ed6:	842a                	mv	s0,a0
    1ed8:	852e                	mv	a0,a1
    1eda:	d201ac23          	sw	zero,-712(gp) # 200005a8 <errno>
    1ede:	c606                	sw	ra,12(sp)
    1ee0:	205d                	jal	1f86 <_isatty>
    1ee2:	57fd                	li	a5,-1
    1ee4:	00f51763          	bne	a0,a5,1ef2 <_isatty_r+0x20>
    1ee8:	d3818793          	addi	a5,gp,-712 # 200005a8 <errno>
    1eec:	439c                	lw	a5,0(a5)
    1eee:	c391                	beqz	a5,1ef2 <_isatty_r+0x20>
    1ef0:	c01c                	sw	a5,0(s0)
    1ef2:	40b2                	lw	ra,12(sp)
    1ef4:	4422                	lw	s0,8(sp)
    1ef6:	0141                	addi	sp,sp,16
    1ef8:	8082                	ret

00001efa <_lseek_r>:
    1efa:	1141                	addi	sp,sp,-16
    1efc:	c422                	sw	s0,8(sp)
    1efe:	842a                	mv	s0,a0
    1f00:	852e                	mv	a0,a1
    1f02:	85b2                	mv	a1,a2
    1f04:	8636                	mv	a2,a3
    1f06:	d201ac23          	sw	zero,-712(gp) # 200005a8 <errno>
    1f0a:	c606                	sw	ra,12(sp)
    1f0c:	2059                	jal	1f92 <_lseek>
    1f0e:	57fd                	li	a5,-1
    1f10:	00f51763          	bne	a0,a5,1f1e <_lseek_r+0x24>
    1f14:	d3818793          	addi	a5,gp,-712 # 200005a8 <errno>
    1f18:	439c                	lw	a5,0(a5)
    1f1a:	c391                	beqz	a5,1f1e <_lseek_r+0x24>
    1f1c:	c01c                	sw	a5,0(s0)
    1f1e:	40b2                	lw	ra,12(sp)
    1f20:	4422                	lw	s0,8(sp)
    1f22:	0141                	addi	sp,sp,16
    1f24:	8082                	ret

00001f26 <memchr>:
    1f26:	0ff5f593          	andi	a1,a1,255
    1f2a:	962a                	add	a2,a2,a0
    1f2c:	00c51463          	bne	a0,a2,1f34 <memchr+0xe>
    1f30:	4501                	li	a0,0
    1f32:	8082                	ret
    1f34:	211c                	lbu	a5,0(a0)
    1f36:	feb78ee3          	beq	a5,a1,1f32 <memchr+0xc>
    1f3a:	0505                	addi	a0,a0,1
    1f3c:	bfc5                	j	1f2c <memchr+0x6>

00001f3e <__malloc_lock>:
    1f3e:	8082                	ret

00001f40 <__malloc_unlock>:
    1f40:	8082                	ret

00001f42 <_read_r>:
    1f42:	1141                	addi	sp,sp,-16
    1f44:	c422                	sw	s0,8(sp)
    1f46:	842a                	mv	s0,a0
    1f48:	852e                	mv	a0,a1
    1f4a:	85b2                	mv	a1,a2
    1f4c:	8636                	mv	a2,a3
    1f4e:	d201ac23          	sw	zero,-712(gp) # 200005a8 <errno>
    1f52:	c606                	sw	ra,12(sp)
    1f54:	20a9                	jal	1f9e <_read>
    1f56:	57fd                	li	a5,-1
    1f58:	00f51763          	bne	a0,a5,1f66 <_read_r+0x24>
    1f5c:	d3818793          	addi	a5,gp,-712 # 200005a8 <errno>
    1f60:	439c                	lw	a5,0(a5)
    1f62:	c391                	beqz	a5,1f66 <_read_r+0x24>
    1f64:	c01c                	sw	a5,0(s0)
    1f66:	40b2                	lw	ra,12(sp)
    1f68:	4422                	lw	s0,8(sp)
    1f6a:	0141                	addi	sp,sp,16
    1f6c:	8082                	ret

00001f6e <_close>:
    1f6e:	05800793          	li	a5,88
    1f72:	d2f1ac23          	sw	a5,-712(gp) # 200005a8 <errno>
    1f76:	557d                	li	a0,-1
    1f78:	8082                	ret

00001f7a <_fstat>:
    1f7a:	05800793          	li	a5,88
    1f7e:	d2f1ac23          	sw	a5,-712(gp) # 200005a8 <errno>
    1f82:	557d                	li	a0,-1
    1f84:	8082                	ret

00001f86 <_isatty>:
    1f86:	05800793          	li	a5,88
    1f8a:	d2f1ac23          	sw	a5,-712(gp) # 200005a8 <errno>
    1f8e:	4501                	li	a0,0
    1f90:	8082                	ret

00001f92 <_lseek>:
    1f92:	05800793          	li	a5,88
    1f96:	d2f1ac23          	sw	a5,-712(gp) # 200005a8 <errno>
    1f9a:	557d                	li	a0,-1
    1f9c:	8082                	ret

00001f9e <_read>:
    1f9e:	05800793          	li	a5,88
    1fa2:	d2f1ac23          	sw	a5,-712(gp) # 200005a8 <errno>
    1fa6:	557d                	li	a0,-1
    1fa8:	8082                	ret
    1faa:	0000                	unimp
    1fac:	74737953          	0x74737953
    1fb0:	6d65                	lui	s10,0x19
    1fb2:	3a6b6c43          	fmadd.d	fs8,fs6,ft6,ft7,unknown
    1fb6:	6425                	lui	s0,0x9
    1fb8:	0a0d                	addi	s4,s4,3
    1fba:	0000                	unimp
    1fbc:	6854                	flw	fa3,20(s0)
    1fbe:	7369                	lui	t1,0xffffa
    1fc0:	6920                	flw	fs0,80(a0)
    1fc2:	6e612073          	csrs	0x6e6,sp
    1fc6:	6520                	flw	fs0,72(a0)
    1fc8:	6178                	flw	fa4,68(a0)
    1fca:	706d                	c.lui	zero,0xffffb
    1fcc:	656c                	flw	fa1,76(a0)
    1fce:	000d                	c.nop	3
    1fd0:	6572                	flw	fa0,28(sp)
    1fd2:	25207663          	bgeu	zero,s2,221e <_data_lma+0x19a>
    1fd6:	2064                	lbu	s1,6(s0)
    1fd8:	3e3e                	lhu	a5,58(a2)
    1fda:	0a3e                	slli	s4,s4,0xf
    1fdc:	0000                	unimp
    1fde:	0000                	unimp
    1fe0:	3c0a                	lhu	a0,56(s0)
    1fe2:	3c3c                	lbu	a5,27(s0)
    1fe4:	0000                	unimp
	...

00001fe8 <__sf_fake_stderr>:
	...

00002008 <__sf_fake_stdin>:
	...

00002028 <__sf_fake_stdout>:
	...
    2048:	2d23 2b30 0020 0000 6c68 004c 6665 4567     #-0+ ...hlL.efgE
    2058:	4746 0000 3130 3332 3534 3736 3938 4241     FG..0123456789AB
    2068:	4443 4645 0000 0000 3130 3332 3534 3736     CDEF....01234567
    2078:	3938 6261 6463 6665 0000 0000               89abcdef....
